 DeviceQuery

 Timestamp is 59c32135 (Thu Sep 21 10:17:25 2017)

 Preferred load address is 10000000

 Start         Length     Name                   Class
 0001:00000000 000000e0H .text$di                CODE
 0001:000000e0 00086120H .text$mn                CODE
 0001:00086200 00000230H .text$x                 CODE
 0001:00086430 0000006cH .text$yd                CODE
 0002:00000000 000001d0H .idata$5                DATA
 0002:000001d0 00000004H .00cfg                  DATA
 0002:000001d4 00000004H .CRT$XCA                DATA
 0002:000001d8 0000001cH .CRT$XCC                DATA
 0002:000001f4 00000008H .CRT$XCL                DATA
 0002:000001fc 00000008H .CRT$XCU                DATA
 0002:00000204 00000004H .CRT$XCZ                DATA
 0002:00000208 00000004H .CRT$XIA                DATA
 0002:0000020c 00000018H .CRT$XIC                DATA
 0002:00000224 00000004H .CRT$XIZ                DATA
 0002:00000228 00000004H .CRT$XLA                DATA
 0002:0000022c 00000004H .CRT$XLZ                DATA
 0002:00000230 00000004H .CRT$XPA                DATA
 0002:00000234 0000000cH .CRT$XPX                DATA
 0002:00000240 00000004H .CRT$XPXA               DATA
 0002:00000244 00000004H .CRT$XPZ                DATA
 0002:00000248 00000004H .CRT$XTA                DATA
 0002:0000024c 00000004H .CRT$XTZ                DATA
 0002:00000250 00031a74H .rdata                  DATA
 0002:00031cc4 00000018H .rdata$T                DATA
 0002:00031cdc 00000954H .rdata$r                DATA
 0002:00032630 00000050H .rdata$sxdata           DATA
 0002:00032680 0000047cH .rdata$zzzdbg           DATA
 0002:00032afc 00000004H .rtc$IAA                DATA
 0002:00032b00 00000004H .rtc$IZZ                DATA
 0002:00032b04 00000004H .rtc$TAA                DATA
 0002:00032b08 00000008H .rtc$TZZ                DATA
 0002:00032b10 00000cd4H .xdata$x                DATA
 0002:000337e4 00000020H .didat$2                DATA
 0002:00033804 00000020H .didat$3                DATA
 0002:00033824 00000038H .didat$4                DATA
 0002:0003385c 00000318H .didat$6                DATA
 0002:00033b74 0000003cH .didat$7                DATA
 0002:00033bb0 00000078H .edata                  DATA
 0002:00033c28 00000064H .idata$2                DATA
 0002:00033c8c 00000014H .idata$3                DATA
 0002:00033ca0 000001d0H .idata$4                DATA
 0002:00033e70 00000802H .idata$6                DATA
 0003:00000000 00001948H .data                   DATA
 0003:00001948 00000464H .data$r                 DATA
 0003:00001dac 00000044H .didat$5                DATA
 0003:00001df0 00003520H .bss                    DATA
 0004:00000000 000000c8H .gfids$x                DATA
 0004:000000c8 00000240H .gfids$y                DATA
 0005:00000000 00000004H .tls                    DATA
 0005:00000004 00000004H .tls$                   DATA
 0005:00000008 00000001H .tls$ZZZ                DATA
 0006:00000000 00000060H .rsrc$01                DATA
 0006:00000060 00000180H .rsrc$02                DATA

  Address         Publics by Value              Rva+Base       Lib:Object

 0000:00000000       ___guard_longjmp_count     00000000     <absolute>
 0000:00000000       ___guard_longjmp_table     00000000     <absolute>
 0000:00000000       ___guard_iat_table         00000000     <absolute>
 0000:00000000       ___guard_iat_count         00000000     <absolute>
 0000:00000000       ___guard_fids_count        00000000     <absolute>
 0000:00000000       ___dynamic_value_reloc_table 00000000     <absolute>
 0000:00000000       ___guard_fids_table        00000000     <absolute>
 0000:00000000       __except_list              00000000     <absolute>
 0000:00000014       ___safe_se_handler_count   00000014     <absolute>
 0000:0000002c       __tls_array                0000002c     <absolute>
 0000:00000100       ___guard_flags             00000100     <absolute>
 0000:00000000       ___ImageBase               10000000     <linker-defined>
 0001:000000e0       ___local_stdio_printf_options 100010e0 f i DeviceQuery.obj
 0001:000000f0       __vsnprintf_l              100010f0 f i DeviceQuery.obj
 0001:00000130       _sprintf                   10001130 f i DeviceQuery.obj
 0001:00000170       ?what@exception@stdext@@UBEPBDXZ 10001170 f i DeviceQuery.obj
 0001:00000180       ?_Raise@exception@stdext@@QBEXXZ 10001180 f i DeviceQuery.obj
 0001:000001b0       ___except_validate_context_record 100011b0 f i libvcruntime:jbcxrval.obj
 0001:000001b0       ?_Doraise@exception@stdext@@MBEXXZ 100011b0 f i DeviceQuery.obj
 0001:000001b0       ?_Unlock@?$basic_streambuf@DU?$char_traits@D@std@@@std@@UAEXXZ 100011b0 f i libcpmt:cout.obj
 0001:000001b0       ___except_validate_jump_buffer 100011b0 f i libvcruntime:jbcxrval.obj
 0001:000001b0       ?_Lock@?$basic_streambuf@DU?$char_traits@D@std@@@std@@UAEXXZ 100011b0 f i libcpmt:cout.obj
 0001:000001b0       @_guard_check_icall_nop@4  100011b0 f i LIBCMT:guard_support.obj
 0001:000001c0       ??_Gexception@stdext@@UAEPAXI@Z 100011c0 f i DeviceQuery.obj
 0001:000001c0       ??_Eruntime_error@std@@UAEPAXI@Z 100011c0 f i * CIL library *:* CIL module *
 0001:000001c0       ??_Gruntime_error@std@@UAEPAXI@Z 100011c0 f i DeviceQuery.obj
 0001:000001c0       ??_Eexception@stdext@@UAEPAXI@Z 100011c0 f i * CIL library *:* CIL module *
 0001:000001f0       ??0_Locinfo@std@@QAE@PBD@Z 100011f0 f i DeviceQuery.obj
 0001:00000270       ??1_Locinfo@std@@QAE@XZ    10001270 f i DeviceQuery.obj
 0001:00000310       ??_E_Facet_base@std@@UAEPAXI@Z 10001310 f i * CIL library *:* CIL module *
 0001:00000310       ??_G_Facet_base@std@@UAEPAXI@Z 10001310 f i DeviceQuery.obj
 0001:00000340       ??Bid@locale@std@@QAEIXZ   10001340 f i DeviceQuery.obj
 0001:00000380       ?_Incref@facet@locale@std@@UAEXXZ 10001380 f i DeviceQuery.obj
 0001:00000390       ?_Decref@facet@locale@std@@UAEPAV_Facet_base@3@XZ 10001390 f i DeviceQuery.obj
 0001:000003b0       ??1locale@std@@QAE@XZ      100013b0 f i DeviceQuery.obj
 0001:000003d0       ?c_str@locale@std@@QBEPBDXZ 100013d0 f i DeviceQuery.obj
 0001:000003f0       ?_Getfacet@locale@std@@QBEPBVfacet@12@I@Z 100013f0 f i DeviceQuery.obj
 0001:00000430       ?_Getcat@?$ctype@D@std@@SAIPAPBVfacet@locale@2@PBV42@@Z 10001430 f i DeviceQuery.obj
 0001:000004c0       ?do_tolower@?$ctype@D@std@@MBEDD@Z 100014c0 f i DeviceQuery.obj
 0001:000004e0       ?do_tolower@?$ctype@D@std@@MBEPBDPADPBD@Z 100014e0 f i DeviceQuery.obj
 0001:00000520       ?do_toupper@?$ctype@D@std@@MBEDD@Z 10001520 f i DeviceQuery.obj
 0001:00000540       ?do_toupper@?$ctype@D@std@@MBEPBDPADPBD@Z 10001540 f i DeviceQuery.obj
 0001:00000580       ?do_widen@?$ctype@D@std@@MBEDD@Z 10001580 f i DeviceQuery.obj
 0001:00000590       ?do_widen@?$ctype@D@std@@MBEPBDPBD0PAD@Z 10001590 f i DeviceQuery.obj
 0001:000005b0       ?do_narrow@?$ctype@D@std@@MBEDDD@Z 100015b0 f i DeviceQuery.obj
 0001:000005c0       ?do_narrow@?$ctype@D@std@@MBEPBDPBD0DPAD@Z 100015c0 f i DeviceQuery.obj
 0001:000005e0       ??_G?$ctype@D@std@@MAEPAXI@Z 100015e0 f i DeviceQuery.obj
 0001:000005e0       ??_E?$ctype@D@std@@MAEPAXI@Z 100015e0 f i * CIL library *:* CIL module *
 0001:00000630       ??_E_Iostream_error_category@std@@UAEPAXI@Z 10001630 f i * CIL library *:* CIL module *
 0001:00000630       ??_Eerror_category@std@@UAEPAXI@Z 10001630 f i * CIL library *:* CIL module *
 0001:00000630       ??_Gerror_category@std@@UAEPAXI@Z 10001630 f i DeviceQuery.obj
 0001:00000630       ??_G_Iostream_error_category@std@@UAEPAXI@Z 10001630 f i DeviceQuery.obj
 0001:00000660       ?default_error_condition@error_category@std@@UBE?AVerror_condition@2@H@Z 10001660 f i DeviceQuery.obj
 0001:00000670       ?equivalent@error_category@std@@UBE_NHABVerror_condition@2@@Z 10001670 f i DeviceQuery.obj
 0001:000006d0       ?equivalent@error_category@std@@UBE_NABVerror_code@2@H@Z 100016d0 f i DeviceQuery.obj
 0001:00000700       ?_Makestr@_System_error@std@@CA?AV?$basic_string@DU?$char_traits@D@std@@V?$allocator@D@2@@2@Verror_code@2@V32@@Z 10001700 f i DeviceQuery.obj
 0001:00000810       ??0_System_error@std@@IAE@Verror_code@1@ABV?$basic_string@DU?$char_traits@D@std@@V?$allocator@D@2@@1@@Z 10001810 f i DeviceQuery.obj
 0001:000008f0       ??_G_System_error@std@@UAEPAXI@Z 100018f0 f i DeviceQuery.obj
 0001:000008f0       ??_Gsystem_error@std@@UAEPAXI@Z 100018f0 f i DeviceQuery.obj
 0001:000008f0       ??_Esystem_error@std@@UAEPAXI@Z 100018f0 f i * CIL library *:* CIL module *
 0001:000008f0       ??_E_System_error@std@@UAEPAXI@Z 100018f0 f i * CIL library *:* CIL module *
 0001:000008f0       ??_Gfailure@ios_base@std@@UAEPAXI@Z 100018f0 f i DeviceQuery.obj
 0001:000008f0       ??_Efailure@ios_base@std@@UAEPAXI@Z 100018f0 f i * CIL library *:* CIL module *
 0001:00000920       ??0system_error@std@@QAE@Verror_code@1@PBD@Z 10001920 f i DeviceQuery.obj
 0001:000009f0       ?name@_Iostream_error_category@std@@UBEPBDXZ 100019f0 f i DeviceQuery.obj
 0001:00000a00       ?message@_Iostream_error_category@std@@UBE?AV?$basic_string@DU?$char_traits@D@std@@V?$allocator@D@2@@2@H@Z 10001a00 f i DeviceQuery.obj
 0001:00000a90       ?clear@ios_base@std@@QAEXH_N@Z 10001a90 f i DeviceQuery.obj
 0001:00000b40       ?StringCchCopyA@@YGJPADIPBD@Z 10001b40 f i DeviceQuery.obj
 0001:00000bc0       ?StringCchCatA@@YGJPADIPBD@Z 10001bc0 f i DeviceQuery.obj
 0001:00000cb0       ?Method@@YAXABV?$FunctionCallbackInfo@VValue@v8@@@v8@@@Z 10001cb0 f   DeviceQuery.obj
 0001:00001170       ?init@@YAXV?$Local@VObject@v8@@@v8@@@Z 10002170 f   DeviceQuery.obj
 0001:00001190       ??1?$basic_string@DU?$char_traits@D@std@@V?$allocator@D@2@@std@@QAE@XZ 10002190 f i DeviceQuery.obj
 0001:00001200       ??0?$basic_string@DU?$char_traits@D@std@@V?$allocator@D@2@@std@@QAE@$$QAV01@@Z 10002200 f i DeviceQuery.obj
 0001:00001280       ?_Tidy@?$basic_string@DU?$char_traits@D@std@@V?$allocator@D@2@@std@@QAEX_NI@Z 10002280 f i DeviceQuery.obj
 0001:00001310       ?assign@?$basic_string@DU?$char_traits@D@std@@V?$allocator@D@2@@std@@QAEAAV12@ABV12@II@Z 10002310 f i DeviceQuery.obj
 0001:00001420       ?append@?$basic_string@DU?$char_traits@D@std@@V?$allocator@D@2@@std@@QAEAAV12@PBDI@Z 10002420 f i DeviceQuery.obj
 0001:00001550       ?append@?$basic_string@DU?$char_traits@D@std@@V?$allocator@D@2@@std@@QAEAAV12@ABV12@II@Z 10002550 f i DeviceQuery.obj
 0001:00001650       ?_Xlen@?$basic_string@DU?$char_traits@D@std@@V?$allocator@D@2@@std@@QBEXXZ 10002650 f i DeviceQuery.obj
 0001:00001660       ?_Grow@?$basic_string@DU?$char_traits@D@std@@V?$allocator@D@2@@std@@QAE_NI_N@Z 10002660 f i DeviceQuery.obj
 0001:000016d0       ?erase@?$basic_string@DU?$char_traits@D@std@@V?$allocator@D@2@@std@@QAEAAV12@II@Z 100026d0 f i DeviceQuery.obj
 0001:00001770       ?assign@?$basic_string@DU?$char_traits@D@std@@V?$allocator@D@2@@std@@QAEAAV12@PBDI@Z 10002770 f i DeviceQuery.obj
 0001:00001870       ?_Copy@?$basic_string@DU?$char_traits@D@std@@V?$allocator@D@2@@std@@QAEXII@Z 10002870 f i DeviceQuery.obj
 0001:000019a0       ??$use_facet@V?$ctype@D@std@@@std@@YAABV?$ctype@D@0@ABVlocale@0@@Z 100029a0 f i DeviceQuery.obj
 0001:00001aa0       ??$_Immortalize@V_Iostream_error_category@std@@@std@@YAAAV_Iostream_error_category@0@XZ 10002aa0 f i DeviceQuery.obj
 0001:00001b10       ??$?6U?$char_traits@D@std@@@std@@YAAAV?$basic_ostream@DU?$char_traits@D@std@@@0@AAV10@PBD@Z 10002b10 f i DeviceQuery.obj
 0001:00001df0       ??$endl@DU?$char_traits@D@std@@@std@@YAAAV?$basic_ostream@DU?$char_traits@D@std@@@0@AAV10@@Z 10002df0 f i DeviceQuery.obj
 0001:00001e70       ??$NODE_SET_METHOD@V?$Local@VObject@v8@@@v8@@@node@@YAXABV?$Local@VObject@v8@@@v8@@PBDP6AXABV?$FunctionCallbackInfo@VValue@v8@@@2@@Z@Z 10002e70 f i DeviceQuery.obj
 0001:00001f10       ??0sentry@?$basic_ostream@DU?$char_traits@D@std@@@std@@QAE@AAV12@@Z 10002f10 f i DeviceQuery.obj
 0001:00001f70       ?flush@?$basic_ostream@DU?$char_traits@D@std@@@std@@QAEAAV12@XZ 10002f70 f i DeviceQuery.obj
 0001:00002080       ?put@?$basic_ostream@DU?$char_traits@D@std@@@std@@QAEAAV12@D@Z 10003080 f i DeviceQuery.obj
 0001:000021e0       ?widen@?$basic_ios@DU?$char_traits@D@std@@@std@@QBEDD@Z 100031e0 f i DeviceQuery.obj
 0001:00002250       ?_Osfx@?$basic_ostream@DU?$char_traits@D@std@@@std@@QAEXXZ 10003250 f i DeviceQuery.obj
 0001:00002330       ?GetDiskInfo@DiskInfo@@SAAAV1@XZ 10003330 f i WMI_DeviceQuery.obj
 0001:00002380       ??0_bstr_t@@QAE@PBD@Z      10003380 f i WMI_DeviceQuery.obj
 0001:000023d0       ??0_bstr_t@@QAE@PB_W@Z     100033d0 f i WMI_DeviceQuery.obj
 0001:00002430       ??1_bstr_t@@QAE@XZ         10003430 f i WMI_DeviceQuery.obj
 0001:00002490       ??B_bstr_t@@QBEPBDXZ       10003490 f i WMI_DeviceQuery.obj
 0001:000024b0       ?StringCchPrintfA@@YAJPADIPBDZZ 100034b0 f i WMI_DeviceQuery.obj
 0001:000028e0       _WMI_DeviceQuery@12        100038e0 f   WMI_DeviceQuery.obj
 0001:00002d30       ??0?$vector@PAGV?$allocator@PAG@std@@@std@@QAE@ABV01@@Z 10003d30 f i WMI_DeviceQuery.obj
 0001:00002d30       ??0?$vector@PADV?$allocator@PAD@std@@@std@@QAE@ABV01@@Z 10003d30 f i WMI_DeviceQuery.obj
 0001:00002dc0       ?allocate@?$_Wrap_alloc@V?$allocator@PAG@std@@@std@@QAEPAPAGI@Z 10003dc0 f i WMI_DeviceQuery.obj
 0001:00002dc0       ?allocate@?$_Wrap_alloc@V?$allocator@PAD@std@@@std@@QAEPAPADI@Z 10003dc0 f i WMI_DeviceQuery.obj
 0001:00002e20       ??$_Remove_unchecked@PAD_W@std@@YAPADPAD0AB_W@Z 10003e20 f i WMI_DeviceQuery.obj
 0001:00002e90       ?flipAndCodeBytes@DiskInfo@@CAPADPAD@Z 10003e90 f   IOCTL_DeviceQuery.obj
 0001:00003040       ?ReadPhysicalDriveInNTWithZeroRights@DiskInfo@@QAEHXZ 10004040 f   IOCTL_DeviceQuery.obj
 0001:00003260       ?ReadDrivePortsInWin9X@DiskInfo@@QAEHXZ 10004260 f   IOCTL_DeviceQuery.obj
 0001:000034f0       ?ConvertToString@DiskInfo@@CAPADQAGHH@Z 100044f0 f   IOCTL_DeviceQuery.obj
 0001:000035e0       ??1DiskInfo@@QAE@XZ        100045e0 f   IOCTL_DeviceQuery.obj
 0001:00003710       ?LoadDiskInfo@DiskInfo@@QAEJXZ 10004710 f   IOCTL_DeviceQuery.obj
 0001:000037d0       ?_Reserve@?$vector@PADV?$allocator@PAD@std@@@std@@IAEXI@Z 100047d0 f i IOCTL_DeviceQuery.obj
 0001:00003830       ?_Reallocate@?$vector@PAGV?$allocator@PAG@std@@@std@@IAEXI@Z 10004830 f i IOCTL_DeviceQuery.obj
 0001:00003830       ?_Reallocate@?$vector@PADV?$allocator@PAD@std@@@std@@IAEXI@Z 10004830 f i IOCTL_DeviceQuery.obj
 0001:00003920       _printf                    10004920 f i RSA_EncryptData.obj
 0001:00003960       ?my_rsa_entrypt@@YAHPAE0@Z 10004960 f   RSA_EncryptData.obj
 0001:00003a8b       __imp_load_?ThrowException@Isolate@v8@@QAE?AV?$Local@VValue@v8@@@2@V32@@Z 10004a8b f   node:node.exe
 0001:00003a95       __tailMerge_node_exe       10004a95 f i node:node.exe
 0001:00003aa6       __imp_load_?GetCurrent@Isolate@v8@@SAPAV12@XZ 10004aa6 f   node:node.exe
 0001:00003ab0       __imp_load_??1HandleScope@v8@@QAE@XZ 10004ab0 f   node:node.exe
 0001:00003aba       __imp_load_??0HandleScope@v8@@QAE@PAVIsolate@1@@Z 10004aba f   node:node.exe
 0001:00003ac4       __imp_load_?TypeError@Exception@v8@@SA?AV?$Local@VValue@v8@@@2@V?$Local@VString@v8@@@2@@Z 10004ac4 f   node:node.exe
 0001:00003ace       __imp_load_?GetFunction@FunctionTemplate@v8@@QAE?AV?$Local@VFunction@v8@@@2@XZ 10004ace f   node:node.exe
 0001:00003ad8       __imp_load_?New@FunctionTemplate@v8@@SA?AV?$Local@VFunctionTemplate@v8@@@2@PAVIsolate@2@P6AXABV?$FunctionCallbackInfo@VValue@v8@@@2@@ZV?$Local@VValue@v8@@@2@V?$Local@VSignature@v8@@@2@H@Z 10004ad8 f   node:node.exe
 0001:00003ae2       __imp_load_?NumberValue@Value@v8@@QBENXZ 10004ae2 f   node:node.exe
 0001:00003aec       __imp_load_?IsNumber@Value@v8@@QBE_NXZ 10004aec f   node:node.exe
 0001:00003af6       __imp_load_?NewFromUtf8@String@v8@@SA?AV?$Local@VString@v8@@@2@PAVIsolate@2@PBDW4NewStringType@12@H@Z 10004af6 f   node:node.exe
 0001:00003b00       __imp_load_?Set@Object@v8@@QAE_NV?$Local@VValue@v8@@@2@0@Z 10004b00 f   node:node.exe
 0001:00003b0a       __imp_load_?SetName@Function@v8@@QAEXV?$Local@VString@v8@@@2@@Z 10004b0a f   node:node.exe
 0001:00003b14       __imp_load__node_module_register 10004b14 f   node:node.exe
 0001:00003b20       _BN_bin2bn                 10004b20 f   libeay32:bn_lib.obj
 0001:00003c20       _BN_bn2bin                 10004c20 f   libeay32:bn_lib.obj
 0001:00003c80       _BN_clear_free             10004c80 f   libeay32:bn_lib.obj
 0001:00003cd0       _BN_cmp                    10004cd0 f   libeay32:bn_lib.obj
 0001:00003d80       _BN_consttime_swap         10004d80 f   libeay32:bn_lib.obj
 0001:00004020       _BN_copy                   10005020 f   libeay32:bn_lib.obj
 0001:000040f0       _BN_dup                    100050f0 f   libeay32:bn_lib.obj
 0001:00004130       _BN_free                   10005130 f   libeay32:bn_lib.obj
 0001:00004170       _BN_init                   10005170 f   libeay32:bn_lib.obj
 0001:00004190       _BN_is_bit_set             10005190 f   libeay32:bn_lib.obj
 0001:000041d0       _BN_mask_bits              100051d0 f   libeay32:bn_lib.obj
 0001:00004260       _BN_new                    10005260 f   libeay32:bn_lib.obj
 0001:000042c0       _BN_num_bits               100052c0 f   libeay32:bn_lib.obj
 0001:00004330       _BN_num_bits_word          10005330 f   libeay32:bn_lib.obj
 0001:00004380       _BN_set_bit                10005380 f   libeay32:bn_lib.obj
 0001:00004410       _BN_set_negative           10005410 f   libeay32:bn_lib.obj
 0001:00004440       _BN_set_word               10005440 f   libeay32:bn_lib.obj
 0001:000044a0       _BN_ucmp                   100054a0 f   libeay32:bn_lib.obj
 0001:000044f0       _BN_value_one              100054f0 f   libeay32:bn_lib.obj
 0001:00004500       _bn_cmp_part_words         10005500 f   libeay32:bn_lib.obj
 0001:000045a0       _bn_cmp_words              100055a0 f   libeay32:bn_lib.obj
 0001:000045f0       _bn_expand2                100055f0 f   libeay32:bn_lib.obj
 0001:00004730       _BN_asc2bn                 10005730 f   libeay32:bn_print.obj
 0001:000047a0       _BN_bn2dec                 100057a0 f   libeay32:bn_print.obj
 0001:00004990       _BN_bn2hex                 10005990 f   libeay32:bn_print.obj
 0001:00004a70       _BN_dec2bn                 10005a70 f   libeay32:bn_print.obj
 0001:00004c10       _BN_hex2bn                 10005c10 f   libeay32:bn_print.obj
 0001:00004dd0       _BN_print                  10005dd0 f   libeay32:bn_print.obj
 0001:00004e80       _RSA_private_decrypt       10005e80 f   libeay32:rsa_crpt.obj
 0001:00004e90       _RSA_private_encrypt       10005e90 f   libeay32:rsa_crpt.obj
 0001:00004ea0       _RSA_public_decrypt        10005ea0 f   libeay32:rsa_crpt.obj
 0001:00004eb0       _RSA_public_encrypt        10005eb0 f   libeay32:rsa_crpt.obj
 0001:00004ec0       _RSA_setup_blinding        10005ec0 f   libeay32:rsa_crpt.obj
 0001:00005060       _RSA_size                  10006060 f   libeay32:rsa_crpt.obj
 0001:00005160       _RSA_free                  10006160 f   libeay32:rsa_lib.obj
 0001:00005280       _RSA_new                   10006280 f   libeay32:rsa_lib.obj
 0001:00005290       _RSA_new_method            10006290 f   libeay32:rsa_lib.obj
 0001:000054b0       _CRYPTO_free               100064b0 f   libeay32:mem.obj
 0001:000054f0       _CRYPTO_free_locked        100064f0 f   libeay32:mem.obj
 0001:00005530       _CRYPTO_malloc             10006530 f   libeay32:mem.obj
 0001:000055a0       _CRYPTO_realloc            100065a0 f   libeay32:mem.obj
 0001:00005620       _CRYPTO_realloc_clean      10006620 f   libeay32:mem.obj
 0001:000056d0       _CRYPTO_strdup             100066d0 f   libeay32:mem.obj
 0001:00005730       _OPENSSL_cleanse           10006730 f   libeay32:mem_clr.obj
 0001:00005de0       _ERR_add_error_data        10006de0 f   libeay32:err.obj
 0001:00005e00       _ERR_add_error_vdata       10006e00 f   libeay32:err.obj
 0001:00005f30       _ERR_clear_error           10006f30 f   libeay32:err.obj
 0001:00005fb0       _ERR_get_state             10006fb0 f   libeay32:err.obj
 0001:00006120       _ERR_peek_last_error       10007120 f   libeay32:err.obj
 0001:00006140       _ERR_pop_to_mark           10007140 f   libeay32:err.obj
 0001:00006240       _ERR_put_error             10007240 f   libeay32:err.obj
 0001:00006320       _ERR_set_mark              10007320 f   libeay32:err.obj
 0001:000068a0       _BIO_new_file              100078a0 f   libeay32:bss_file.obj
 0001:00006b10       _BIO_callback_ctrl         10007b10 f   libeay32:bio_lib.obj
 0001:00006ba0       _BIO_clear_flags           10007ba0 f   libeay32:bio_lib.obj
 0001:00006bb0       _BIO_copy_next_retry       10007bb0 f   libeay32:bio_lib.obj
 0001:00006bd0       _BIO_ctrl                  10007bd0 f   libeay32:bio_lib.obj
 0001:00006c60       _BIO_find_type             10007c60 f   libeay32:bio_lib.obj
 0001:00006c90       _BIO_free                  10007c90 f   libeay32:bio_lib.obj
 0001:00006d10       _BIO_free_all              10007d10 f   libeay32:bio_lib.obj
 0001:00006da0       _BIO_gets                  10007da0 f   libeay32:bio_lib.obj
 0001:00006e50       _BIO_indent                10007e50 f   libeay32:bio_lib.obj
 0001:00006f30       _BIO_int_ctrl              10007f30 f   libeay32:bio_lib.obj
 0001:00006f60       _BIO_new                   10007f60 f   libeay32:bio_lib.obj
 0001:00006fc0       _BIO_next                  10007fc0 f   libeay32:bio_lib.obj
 0001:00006fd0       _BIO_push                  10007fd0 f   libeay32:bio_lib.obj
 0001:00007020       _BIO_puts                  10008020 f   libeay32:bio_lib.obj
 0001:000070d0       _BIO_read                  100080d0 f   libeay32:bio_lib.obj
 0001:00007190       _BIO_set                   10008190 f   libeay32:bio_lib.obj
 0001:00007240       _BIO_set_flags             10008240 f   libeay32:bio_lib.obj
 0001:00007250       _BIO_test_flags            10008250 f   libeay32:bio_lib.obj
 0001:00007260       _BIO_write                 10008260 f   libeay32:bio_lib.obj
 0001:00007320       _BIO_printf                10008320 f   libeay32:b_print.obj
 0001:00007340       _BIO_snprintf              10008340 f   libeay32:b_print.obj
 0001:000073b0       _BIO_vprintf               100083b0 f   libeay32:b_print.obj
 0001:000083c0       _BN_add_word               100093c0 f   libeay32:bn_word.obj
 0001:00008470       _BN_div_word               10009470 f   libeay32:bn_word.obj
 0001:00008530       _BN_mod_word               10009530 f   libeay32:bn_word.obj
 0001:000085a0       _BN_mul_word               100095a0 f   libeay32:bn_word.obj
 0001:00008610       _BN_sub_word               10009610 f   libeay32:bn_word.obj
 0001:000086d0       _CRYPTO_THREADID_cmp       100096d0 f   libeay32:cryptlib.obj
 0001:00008720       _CRYPTO_THREADID_cpy       10009720 f   libeay32:cryptlib.obj
 0001:00008740       _CRYPTO_THREADID_current   10009740 f   libeay32:cryptlib.obj
 0001:00008780       _CRYPTO_add_lock           10009780 f   libeay32:cryptlib.obj
 0001:000087d0       _CRYPTO_destroy_dynlockid  100097d0 f   libeay32:cryptlib.obj
 0001:000088a0       _CRYPTO_get_dynlock_value  100098a0 f   libeay32:cryptlib.obj
 0001:00008920       _CRYPTO_lock               10009920 f   libeay32:cryptlib.obj
 0001:00008990       _CRYPTO_memcmp             10009990 f   libeay32:cryptlib.obj
 0001:000089c0       _OPENSSL_isservice         100099c0 f   libeay32:cryptlib.obj
 0001:00008b00       _OPENSSL_showfatal         10009b00 f   libeay32:cryptlib.obj
 0001:00008c60       _OpenSSLDie                10009c60 f   libeay32:cryptlib.obj
 0001:00008c90       _BN_CTX_end                10009c90 f   libeay32:bn_ctx.obj
 0001:00008cd0       _BN_CTX_free               10009cd0 f   libeay32:bn_ctx.obj
 0001:00008d00       _BN_CTX_get                10009d00 f   libeay32:bn_ctx.obj
 0001:00008d60       _BN_CTX_new                10009d60 f   libeay32:bn_ctx.obj
 0001:00008de0       _BN_CTX_start              10009de0 f   libeay32:bn_ctx.obj
 0001:00009010       _BN_add                    1000a010 f   libeay32:bn_add.obj
 0001:000090a0       _BN_sub                    1000a0a0 f   libeay32:bn_add.obj
 0001:00009170       _BN_uadd                   1000a170 f   libeay32:bn_add.obj
 0001:00009240       _BN_usub                   1000a240 f   libeay32:bn_add.obj
 0001:000093c0       _BN_mul                    1000a3c0 f   libeay32:bn_mul.obj
 0001:000096a0       _bn_mul_normal             1000a6a0 f   libeay32:bn_mul.obj
 0001:000097b0       _bn_mul_part_recursive     1000a7b0 f   libeay32:bn_mul.obj
 0001:00009c90       _bn_mul_recursive          1000ac90 f   libeay32:bn_mul.obj
 0001:0000a070       _bn_sub_part_words         1000b070 f   libeay32:bn_mul.obj
 0001:0000a1f0       _BN_gcd                    1000b1f0 f   libeay32:bn_gcd.obj
 0001:0000a290       _BN_mod_inverse            1000b290 f   libeay32:bn_gcd.obj
 0001:0000ac00       _BN_BLINDING_convert_ex    1000bc00 f   libeay32:bn_blind.obj
 0001:0000ac90       _BN_BLINDING_create_param  1000bc90 f   libeay32:bn_blind.obj
 0001:0000ae70       _BN_BLINDING_free          1000be70 f   libeay32:bn_blind.obj
 0001:0000aed0       _BN_BLINDING_invert_ex     1000bed0 f   libeay32:bn_blind.obj
 0001:0000af20       _BN_BLINDING_thread_id     1000bf20 f   libeay32:bn_blind.obj
 0001:0000af30       _BN_BLINDING_update        1000bf30 f   libeay32:bn_blind.obj
 0001:0000aff0       _RAND_add                  1000bff0 f   libeay32:rand_lib.obj
 0001:0000b070       _RAND_bytes                1000c070 f   libeay32:rand_lib.obj
 0001:0000b0d0       _RAND_pseudo_bytes         1000c0d0 f   libeay32:rand_lib.obj
 0001:0000b130       _RAND_seed                 1000c130 f   libeay32:rand_lib.obj
 0001:0000b180       _RAND_status               1000c180 f   libeay32:rand_lib.obj
 0001:0000b6d0       _CRYPTO_free_ex_data       1000c6d0 f   libeay32:ex_data.obj
 0001:0000b730       _CRYPTO_new_ex_data        1000c730 f   libeay32:ex_data.obj
 0001:0000b790       _CRYPTO_set_ex_data        1000c790 f   libeay32:ex_data.obj
 0001:0000cc90       _RSA_PKCS1_SSLeay          1000dc90 f   libeay32:rsa_eay.obj
 0001:0000ce60       _ENGINE_get_default_RSA    1000de60 f   libeay32:tb_rsa.obj
 0001:0000ce70       _ENGINE_finish             1000de70 f   libeay32:eng_init.obj
 0001:0000cf60       _ENGINE_init               1000df60 f   libeay32:eng_init.obj
 0001:0000cfe0       _engine_unlocked_finish    1000dfe0 f   libeay32:eng_init.obj
 0001:0000d070       _engine_unlocked_init      1000e070 f   libeay32:eng_init.obj
 0001:0000d0a0       _CRYPTO_is_mem_check_on    1000e0a0 f   libeay32:mem_dbg.obj
 0001:0000d120       _CRYPTO_mem_ctrl           1000e120 f   libeay32:mem_dbg.obj
 0001:0000d290       _CRYPTO_pop_info           1000e290 f   libeay32:mem_dbg.obj
 0001:0000d3e0       _CRYPTO_push_info_         1000e3e0 f   libeay32:mem_dbg.obj
 0001:0000d670       _BUF_memdup                1000e670 f   libeay32:buf_str.obj
 0001:0000d6d0       _BUF_strdup                1000e6d0 f   libeay32:buf_str.obj
 0001:0000d700       _BUF_strlcat               1000e700 f   libeay32:buf_str.obj
 0001:0000d760       _BUF_strlcpy               1000e760 f   libeay32:buf_str.obj
 0001:0000d7a0       _BUF_strndup               1000e7a0 f   libeay32:buf_str.obj
 0001:0000da70       _lh_delete                 1000ea70 f   libeay32:lhash.obj
 0001:0000dae0       _lh_doall                  1000eae0 f   libeay32:lhash.obj
 0001:0000db00       _lh_doall_arg              1000eb00 f   libeay32:lhash.obj
 0001:0000db20       _lh_free                   1000eb20 f   libeay32:lhash.obj
 0001:0000db70       _lh_insert                 1000eb70 f   libeay32:lhash.obj
 0001:0000dc00       _lh_new                    1000ec00 f   libeay32:lhash.obj
 0001:0000dd30       _lh_num_items              1000ed30 f   libeay32:lhash.obj
 0001:0000dd40       _lh_retrieve               1000ed40 f   libeay32:lhash.obj
 0001:0000dd70       _lh_strhash                1000ed70 f   libeay32:lhash.obj
 0001:0000ddc0       _BN_lshift                 1000edc0 f   libeay32:bn_shift.obj
 0001:0000df40       _BN_lshift1                1000ef40 f   libeay32:bn_shift.obj
 0001:0000dfe0       _BN_rshift                 1000efe0 f   libeay32:bn_shift.obj
 0001:0000e150       _BN_rshift1                1000f150 f   libeay32:bn_shift.obj
 0001:0000e200       _bn_add_words              1000f200 f   libeay32:bn_asm.obj
 0001:0000e2f0       _bn_div_words              1000f2f0 f   libeay32:bn_asm.obj
 0001:0000e310       _bn_mul_add_words          1000f310 f   libeay32:bn_asm.obj
 0001:0000e3d0       _bn_mul_comba4             1000f3d0 f   libeay32:bn_asm.obj
 0001:0000e5b0       _bn_mul_comba8             1000f5b0 f   libeay32:bn_asm.obj
 0001:0000ed00       _bn_mul_words              1000fd00 f   libeay32:bn_asm.obj
 0001:0000edb0       _bn_sqr_comba4             1000fdb0 f   libeay32:bn_asm.obj
 0001:0000ef50       _bn_sqr_comba8             1000ff50 f   libeay32:bn_asm.obj
 0001:0000f5d0       _bn_sqr_words              100105d0 f   libeay32:bn_asm.obj
 0001:0000f650       _bn_sub_words              10010650 f   libeay32:bn_asm.obj
 0001:0000f7d0       _sk_delete                 100107d0 f   libeay32:stack.obj
 0001:0000f810       _sk_delete_ptr             10010810 f   libeay32:stack.obj
 0001:0000f870       _sk_find                   10010870 f   libeay32:stack.obj
 0001:0000f890       _sk_free                   10010890 f   libeay32:stack.obj
 0001:0000f8c0       _sk_insert                 100108c0 f   libeay32:stack.obj
 0001:0000f960       _sk_is_sorted              10010960 f   libeay32:stack.obj
 0001:0000f980       _sk_new                    10010980 f   libeay32:stack.obj
 0001:0000fa10       _sk_new_null               10010a10 f   libeay32:stack.obj
 0001:0000fa20       _sk_num                    10010a20 f   libeay32:stack.obj
 0001:0000fa30       _sk_pop                    10010a30 f   libeay32:stack.obj
 0001:0000fa50       _sk_pop_free               10010a50 f   libeay32:stack.obj
 0001:0000faa0       _sk_push                   10010aa0 f   libeay32:stack.obj
 0001:0000fac0       _sk_set                    10010ac0 f   libeay32:stack.obj
 0001:0000faf0       _sk_set_cmp_func           10010af0 f   libeay32:stack.obj
 0001:0000fb10       _sk_sort                   10010b10 f   libeay32:stack.obj
 0001:0000fb40       _sk_value                  10010b40 f   libeay32:stack.obj
 0001:0000fb60       _BN_div                    10010b60 f   libeay32:bn_div.obj
 0001:000100a0       _BN_mod_add                100110a0 f   libeay32:bn_mod.obj
 0001:00010110       _BN_mod_add_quick          10011110 f   libeay32:bn_mod.obj
 0001:00010160       _BN_mod_lshift1_quick      10011160 f   libeay32:bn_mod.obj
 0001:000101a0       _BN_mod_lshift_quick       100111a0 f   libeay32:bn_mod.obj
 0001:00010260       _BN_mod_mul                10011260 f   libeay32:bn_mod.obj
 0001:000102e0       _BN_mod_sqr                100112e0 f   libeay32:bn_mod.obj
 0001:00010320       _BN_mod_sub                10011320 f   libeay32:bn_mod.obj
 0001:00010390       _BN_mod_sub_quick          10011390 f   libeay32:bn_mod.obj
 0001:000103d0       _BN_nnmod                  100113d0 f   libeay32:bn_mod.obj
 0001:00010420       _BN_pseudo_rand            10011420 f   libeay32:bn_rand.obj
 0001:00010440       _BN_pseudo_rand_range      10011440 f   libeay32:bn_rand.obj
 0001:00010460       _BN_rand                   10011460 f   libeay32:bn_rand.obj
 0001:00010480       _BN_rand_range             10011480 f   libeay32:bn_rand.obj
 0001:00010810       _BN_mod_exp                10011810 f   libeay32:bn_exp.obj
 0001:00010880       _BN_mod_exp_mont           10011880 f   libeay32:bn_exp.obj
 0001:00010df0       _BN_mod_exp_mont_consttime 10011df0 f   libeay32:bn_exp.obj
 0001:000113d0       _BN_mod_exp_mont_word      100123d0 f   libeay32:bn_exp.obj
 0001:00011780       _BN_mod_exp_recp           10012780 f   libeay32:bn_exp.obj
 0001:00012350       _RAND_SSLeay               10013350 f   libeay32:md_rand.obj
 0001:00012360       _ssleay_rand_bytes         10013360 f   libeay32:md_rand.obj
 0001:00012900       _ENGINE_get_RAND           10013900 f   libeay32:tb_rand.obj
 0001:00012900       _EC_KEY_get_flags          10013900 f   libeay32:ec_key.obj
 0001:00012910       _ENGINE_get_default_RAND   10013910 f   libeay32:tb_rand.obj
 0001:00012920       _BN_MONT_CTX_copy          10013920 f   libeay32:bn_mont.obj
 0001:00012990       _BN_MONT_CTX_free          10013990 f   libeay32:bn_mont.obj
 0001:000129d0       _BN_MONT_CTX_new           100139d0 f   libeay32:bn_mont.obj
 0001:00012a30       _BN_MONT_CTX_set           10013a30 f   libeay32:bn_mont.obj
 0001:00012bc0       _BN_MONT_CTX_set_locked    10013bc0 f   libeay32:bn_mont.obj
 0001:00012c70       _BN_from_montgomery        10013c70 f   libeay32:bn_mont.obj
 0001:00012f80       _BN_mod_mul_montgomery     10013f80 f   libeay32:bn_mont.obj
 0001:00012ff0       _RSA_padding_add_PKCS1_type_1 10013ff0 f   libeay32:rsa_pk1.obj
 0001:00013060       _RSA_padding_add_PKCS1_type_2 10014060 f   libeay32:rsa_pk1.obj
 0001:00013110       _RSA_padding_check_PKCS1_type_1 10014110 f   libeay32:rsa_pk1.obj
 0001:00013210       _RSA_padding_check_PKCS1_type_2 10014210 f   libeay32:rsa_pk1.obj
 0001:000133a0       _PKCS1_MGF1                100143a0 f   libeay32:rsa_oaep.obj
 0001:00013520       _RSA_padding_add_PKCS1_OAEP 10014520 f   libeay32:rsa_oaep.obj
 0001:00013550       _RSA_padding_add_PKCS1_OAEP_mgf1 10014550 f   libeay32:rsa_oaep.obj
 0001:000138c0       _RSA_padding_check_PKCS1_OAEP 100148c0 f   libeay32:rsa_oaep.obj
 0001:000138f0       _RSA_padding_check_PKCS1_OAEP_mgf1 100148f0 f   libeay32:rsa_oaep.obj
 0001:00013d20       _RSA_padding_add_SSLv23    10014d20 f   libeay32:rsa_ssl.obj
 0001:00013dd0       _RSA_padding_check_SSLv23  10014dd0 f   libeay32:rsa_ssl.obj
 0001:00013ee0       _RSA_padding_add_none      10014ee0 f   libeay32:rsa_none.obj
 0001:00013f40       _RSA_padding_check_none    10014f40 f   libeay32:rsa_none.obj
 0001:00013fa0       _RSA_X931_hash_id          10014fa0 f   libeay32:rsa_x931.obj
 0001:00013fe0       _RSA_padding_add_X931      10014fe0 f   libeay32:rsa_x931.obj
 0001:00014060       _RSA_padding_check_X931    10015060 f   libeay32:rsa_x931.obj
 0001:00014150       _engine_table_doall        10015150 f   libeay32:eng_table.obj
 0001:00014190       _engine_table_select       10015190 f   libeay32:eng_table.obj
 0001:000142e0       _ENGINE_free               100152e0 f   libeay32:eng_lib.obj
 0001:00014360       _engine_free_util          10015360 f   libeay32:eng_lib.obj
 0001:000143f0       _OBJ_bsearch_              100153f0 f   libeay32:obj_dat.obj
 0001:00014410       _OBJ_bsearch_ex_           10015410 f   libeay32:obj_dat.obj
 0001:000144d0       _OBJ_ln2nid                100154d0 f   libeay32:obj_dat.obj
 0001:000145b0       _OBJ_nid2ln                100155b0 f   libeay32:obj_dat.obj
 0001:00014650       _OBJ_nid2obj               10015650 f   libeay32:obj_dat.obj
 0001:000146e0       _OBJ_nid2sn                100156e0 f   libeay32:obj_dat.obj
 0001:00014770       _OBJ_obj2nid               10015770 f   libeay32:obj_dat.obj
 0001:00014830       _OBJ_obj2txt               10015830 f   libeay32:obj_dat.obj
 0001:00014b70       _OBJ_sn2nid                10015b70 f   libeay32:obj_dat.obj
 0001:00014c50       _OBJ_txt2obj               10015c50 f   libeay32:obj_dat.obj
 0001:00014da0       _BN_sqr                    10015da0 f   libeay32:bn_sqr.obj
 0001:00014f70       _bn_sqr_normal             10015f70 f   libeay32:bn_sqr.obj
 0001:00015030       _bn_sqr_recursive          10016030 f   libeay32:bn_sqr.obj
 0001:000151b0       _BN_RECP_CTX_free          100161b0 f   libeay32:bn_recp.obj
 0001:000151e0       _BN_RECP_CTX_init          100161e0 f   libeay32:bn_recp.obj
 0001:00015210       _BN_RECP_CTX_set           10016210 f   libeay32:bn_recp.obj
 0001:00015250       _BN_div_recp               10016250 f   libeay32:bn_recp.obj
 0001:000154c0       _BN_mod_mul_reciprocal     100164c0 f   libeay32:bn_recp.obj
 0001:00015540       _BN_reciprocal             10016540 f   libeay32:bn_recp.obj
 0001:000155a0       _RAND_poll                 100165a0 f   libeay32:rand_win.obj
 0001:00015fb0       _EVP_Digest                10016fb0 f   libeay32:digest.obj
 0001:00016050       _EVP_DigestFinal           10017050 f   libeay32:digest.obj
 0001:00016080       _EVP_DigestFinal_ex        10017080 f   libeay32:digest.obj
 0001:00016100       _EVP_DigestInit_ex         10017100 f   libeay32:digest.obj
 0001:000162b0       _EVP_DigestUpdate          100172b0 f   libeay32:digest.obj
 0001:000162c0       _EVP_MD_CTX_cleanup        100172c0 f   libeay32:digest.obj
 0001:00016360       _EVP_MD_CTX_copy           10017360 f   libeay32:digest.obj
 0001:00016380       _EVP_MD_CTX_copy_ex        10017380 f   libeay32:digest.obj
 0001:000164d0       _EVP_MD_CTX_create         100174d0 f   libeay32:digest.obj
 0001:00016500       _EVP_MD_CTX_destroy        10017500 f   libeay32:digest.obj
 0001:00016520       _EVP_MD_CTX_init           10017520 f   libeay32:digest.obj
 0001:00016640       _EVP_sha1                  10017640 f   libeay32:m_sha1.obj
 0001:00016650       _EVP_sha224                10017650 f   libeay32:m_sha1.obj
 0001:00016660       _EVP_sha256                10017660 f   libeay32:m_sha1.obj
 0001:00016670       _EVP_CIPHER_CTX_flags      10017670 f   libeay32:evp_lib.obj
 0001:00016680       _EVP_CIPHER_CTX_key_length 10017680 f   libeay32:evp_lib.obj
 0001:00016690       _EVP_CIPHER_CTX_set_flags  10017690 f   libeay32:evp_lib.obj
 0001:000166a0       _EVP_CIPHER_CTX_test_flags 100176a0 f   libeay32:evp_lib.obj
 0001:000166b0       _EVP_CIPHER_asn1_to_param  100176b0 f   libeay32:evp_lib.obj
 0001:00016700       _EVP_CIPHER_get_asn1_iv    10017700 f   libeay32:evp_lib.obj
 0001:00016770       _EVP_CIPHER_param_to_asn1  10017770 f   libeay32:evp_lib.obj
 0001:000167e0       _EVP_CIPHER_set_asn1_iv    100177e0 f   libeay32:evp_lib.obj
 0001:00016830       _EVP_CIPHER_type           10017830 f   libeay32:evp_lib.obj
 0001:00016a80       _EVP_Cipher                10017a80 f   libeay32:evp_lib.obj
 0001:00016a90       _EVP_MD_CTX_clear_flags    10017a90 f   libeay32:evp_lib.obj
 0001:00016aa0       _EVP_MD_CTX_set_flags      10017aa0 f   libeay32:evp_lib.obj
 0001:00016ab0       _EVP_MD_CTX_test_flags     10017ab0 f   libeay32:evp_lib.obj
 0001:00016ac0       _EC_GROUP_get_seed_len     10017ac0 f   libeay32:ec_lib.obj
 0001:00016ac0       _EVP_MD_block_size         10017ac0 f   libeay32:evp_lib.obj
 0001:00016ad0       _EVP_MD_size               10017ad0 f   libeay32:evp_lib.obj
 0001:00016b00       _ENGINE_get_pkey_meth      10017b00 f   libeay32:tb_pkmeth.obj
 0001:00016b50       _ENGINE_get_pkey_meth_engine 10017b50 f   libeay32:tb_pkmeth.obj
 0001:00016b70       _engine_pkey_meths_free    10017b70 f   libeay32:tb_pkmeth.obj
 0001:00016be0       _ENGINE_get_pkey_asn1_meth 10017be0 f   libeay32:tb_asnmth.obj
 0001:00016c30       _ENGINE_get_pkey_asn1_meth_engine 10017c30 f   libeay32:tb_asnmth.obj
 0001:00016c50       _ENGINE_pkey_asn1_find_str 10017c50 f   libeay32:tb_asnmth.obj
 0001:00016ce0       _engine_pkey_asn1_meths_free 10017ce0 f   libeay32:tb_asnmth.obj
 0001:00016e00       _ASN1_OBJECT_free          10017e00 f   libeay32:a_object.obj
 0001:00016e70       _ASN1_OBJECT_new           10017e70 f   libeay32:a_object.obj
 0001:00016ed0       _a2d_ASN1_OBJECT           10017ed0 f   libeay32:a_object.obj
 0001:00017280       _c2i_ASN1_OBJECT           10018280 f   libeay32:a_object.obj
 0001:000173f0       _d2i_ASN1_OBJECT           100183f0 f   libeay32:a_object.obj
 0001:00017490       _i2a_ASN1_OBJECT           10018490 f   libeay32:a_object.obj
 0001:000175a0       _i2t_ASN1_OBJECT           100185a0 f   libeay32:a_object.obj
 0001:000175c0       _ASN1_STRING_clear_free    100185c0 f   libeay32:asn1_lib.obj
 0001:00017610       _ASN1_STRING_cmp           10018610 f   libeay32:asn1_lib.obj
 0001:00017690       _ASN1_STRING_copy          10018690 f   libeay32:asn1_lib.obj
 0001:000176d0       _ASN1_STRING_dup           100186d0 f   libeay32:asn1_lib.obj
 0001:00017730       _ASN1_STRING_free          10018730 f   libeay32:asn1_lib.obj
 0001:00017760       _ASN1_STRING_length        10018760 f   libeay32:asn1_lib.obj
 0001:00017760       _EVP_PKEY_id               10018760 f   libeay32:p_lib.obj
 0001:00017760       _EVP_MD_type               10018760 f   libeay32:evp_lib.obj
 0001:00017760       _EC_GROUP_method_of        10018760 f   libeay32:ec_lib.obj
 0001:00017760       _EVP_CIPHER_CTX_cipher     10018760 f   libeay32:evp_lib.obj
 0001:00017770       _ASN1_STRING_new           10018770 f   libeay32:asn1_lib.obj
 0001:000177d0       _ASN1_STRING_set           100187d0 f   libeay32:asn1_lib.obj
 0001:00017890       _ASN1_STRING_set0          10018890 f   libeay32:asn1_lib.obj
 0001:000178c0       _ASN1_STRING_type_new      100188c0 f   libeay32:asn1_lib.obj
 0001:00017920       _ASN1_get_object           10018920 f   libeay32:asn1_lib.obj
 0001:00017a60       _ASN1_object_size          10018a60 f   libeay32:asn1_lib.obj
 0001:00017ac0       _ASN1_put_eoc              10018ac0 f   libeay32:asn1_lib.obj
 0001:00017ae0       _ASN1_put_object           10018ae0 f   libeay32:asn1_lib.obj
 0001:00017c30       _OBJ_cmp                   10018c30 f   libeay32:obj_lib.obj
 0001:00017ca0       _OBJ_dup                   10018ca0 f   libeay32:obj_lib.obj
 0001:00017e30       _EVP_PKEY_CTX_ctrl         10018e30 f   libeay32:pmeth_lib.obj
 0001:00017f20       _EVP_PKEY_CTX_dup          10018f20 f   libeay32:pmeth_lib.obj
 0001:00018020       _EVP_PKEY_CTX_free         10019020 f   libeay32:pmeth_lib.obj
 0001:00018080       _EC_KEY_get0_public_key    10019080 f   libeay32:ec_key.obj
 0001:00018080       _ENGINE_get_RSA            10019080 f   libeay32:tb_rsa.obj
 0001:00018080       _EVP_CIPHER_key_length     10019080 f   libeay32:evp_lib.obj
 0001:00018080       _ASN1_STRING_data          10019080 f   libeay32:asn1_lib.obj
 0001:00018080       _EVP_PKEY_CTX_get0_pkey    10019080 f   libeay32:pmeth_lib.obj
 0001:00018090       _EVP_PKEY_CTX_new          10019090 f   libeay32:pmeth_lib.obj
 0001:000180b0       _EVP_PKEY_meth_find        100190b0 f   libeay32:pmeth_lib.obj
 0001:00018130       _EVP_PKEY_meth_free        10019130 f   libeay32:pmeth_lib.obj
 0001:000182b0       _ENGINE_get_digest         100192b0 f   libeay32:tb_digest.obj
 0001:00018300       _ENGINE_get_digest_engine  10019300 f   libeay32:tb_digest.obj
 0001:00018320       _RSA_sign                  10019320 f   libeay32:rsa_sign.obj
 0001:00018530       _RSA_verify                10019530 f   libeay32:rsa_sign.obj
 0001:00018570       _int_rsa_verify            10019570 f   libeay32:rsa_sign.obj
 0001:000189b0       _SHA1_Final                100199b0 f   libeay32:sha1dgst.obj
 0001:00018af0       _SHA1_Init                 10019af0 f   libeay32:sha1dgst.obj
 0001:00018b30       _SHA1_Update               10019b30 f   libeay32:sha1dgst.obj
 0001:0001a140       _SHA224_Init               1001b140 f   libeay32:sha256.obj
 0001:0001a1a0       _SHA256_Final              1001b1a0 f   libeay32:sha256.obj
 0001:0001a480       _SHA256_Init               1001b480 f   libeay32:sha256.obj
 0001:0001a4e0       _SHA256_Update             1001b4e0 f   libeay32:sha256.obj
 0001:0001b6b0       _SHA384_Init               1001c6b0 f   libeay32:sha512.obj
 0001:0001b760       _SHA512_Final              1001c760 f   libeay32:sha512.obj
 0001:0001bce0       _SHA512_Init               1001cce0 f   libeay32:sha512.obj
 0001:0001bd90       _SHA512_Update             1001cd90 f   libeay32:sha512.obj
 0001:0001c4e0       _ASN1_TYPE_get             1001d4e0 f   libeay32:a_type.obj
 0001:0001c500       _ASN1_TYPE_set             1001d500 f   libeay32:a_type.obj
 0001:0001c540       _ASN1_TYPE_set1            1001d540 f   libeay32:a_type.obj
 0001:0001c5f0       _ASN1_TYPE_get_octetstring 1001d5f0 f   libeay32:evp_asn1.obj
 0001:0001c640       _ASN1_TYPE_set_octetstring 1001d640 f   libeay32:evp_asn1.obj
 0001:0001c690       _EVP_PKEY_asn1_find        1001d690 f   libeay32:ameth_lib.obj
 0001:0001c760       _EVP_PKEY_asn1_find_str    1001d760 f   libeay32:ameth_lib.obj
 0001:0001c860       _EVP_PKEY_asn1_free        1001d860 f   libeay32:ameth_lib.obj
 0001:0001f980       _EVP_get_cipherbyname      10020980 f   libeay32:names.obj
 0001:0001f990       _EVP_get_digestbyname      10020990 f   libeay32:names.obj
 0001:0001f9a0       _EVP_PKEY_assign           100209a0 f   libeay32:p_lib.obj
 0001:0001f9e0       _EVP_PKEY_bits             100209e0 f   libeay32:p_lib.obj
 0001:0001fa00       _EVP_PKEY_cmp_parameters   10020a00 f   libeay32:p_lib.obj
 0001:0001fa30       _EVP_PKEY_copy_parameters  10020a30 f   libeay32:p_lib.obj
 0001:0001fb00       _EVP_PKEY_free             10020b00 f   libeay32:p_lib.obj
 0001:0001fb80       _EVP_PKEY_get_default_digest_nid 10020b80 f   libeay32:p_lib.obj
 0001:0001fbb0       _EVP_PKEY_missing_parameters 10020bb0 f   libeay32:p_lib.obj
 0001:0001fbd0       _EVP_PKEY_new              10020bd0 f   libeay32:p_lib.obj
 0001:0001fc40       _EVP_PKEY_set1_EC_KEY      10020c40 f   libeay32:p_lib.obj
 0001:0001fc90       _EVP_PKEY_set_type         10020c90 f   libeay32:p_lib.obj
 0001:0001fcb0       _EVP_PKEY_size             10020cb0 f   libeay32:p_lib.obj
 0001:0001fcd0       _EVP_PKEY_type             10020cd0 f   libeay32:p_lib.obj
 0001:0001fe20       _X509_SIG_free             10020e20 f   libeay32:x_sig.obj
 0001:0001fe40       _X509_SIG_it               10020e40 f   libeay32:x_sig.obj
 0001:0001fe50       _d2i_X509_SIG              10020e50 f   libeay32:x_sig.obj
 0001:0001fe70       _i2d_X509_SIG              10020e70 f   libeay32:x_sig.obj
 0001:0001fe90       _ASN1_item_ex_free         10020e90 f   libeay32:tasn_fre.obj
 0001:0001feb0       _ASN1_item_free            10020eb0 f   libeay32:tasn_fre.obj
 0001:0001fed0       _ASN1_primitive_free       10020ed0 f   libeay32:tasn_fre.obj
 0001:0001ffb0       _ASN1_template_free        10020fb0 f   libeay32:tasn_fre.obj
 0001:00020220       _ASN1_ANY_it               10021220 f   libeay32:tasn_typ.obj
 0001:00020230       _ASN1_BIT_STRING_free      10021230 f   libeay32:tasn_typ.obj
 0001:00020250       _ASN1_BIT_STRING_it        10021250 f   libeay32:tasn_typ.obj
 0001:00020260       _ASN1_BIT_STRING_new       10021260 f   libeay32:tasn_typ.obj
 0001:00020270       _ASN1_BOOLEAN_it           10021270 f   libeay32:tasn_typ.obj
 0001:00020280       _ASN1_ENUMERATED_free      10021280 f   libeay32:tasn_typ.obj
 0001:000202a0       _ASN1_ENUMERATED_it        100212a0 f   libeay32:tasn_typ.obj
 0001:000202b0       _ASN1_FBOOLEAN_it          100212b0 f   libeay32:tasn_typ.obj
 0001:000202c0       _ASN1_GENERALIZEDTIME_free 100212c0 f   libeay32:tasn_typ.obj
 0001:000202e0       _ASN1_GENERALIZEDTIME_it   100212e0 f   libeay32:tasn_typ.obj
 0001:000202f0       _ASN1_GENERALIZEDTIME_new  100212f0 f   libeay32:tasn_typ.obj
 0001:00020300       _ASN1_IA5STRING_it         10021300 f   libeay32:tasn_typ.obj
 0001:00020310       _ASN1_INTEGER_free         10021310 f   libeay32:tasn_typ.obj
 0001:00020330       _ASN1_INTEGER_it           10021330 f   libeay32:tasn_typ.obj
 0001:00020340       _ASN1_INTEGER_new          10021340 f   libeay32:tasn_typ.obj
 0001:00020350       _ASN1_NULL_it              10021350 f   libeay32:tasn_typ.obj
 0001:00020360       _ASN1_NULL_new             10021360 f   libeay32:tasn_typ.obj
 0001:00020370       _ASN1_OBJECT_it            10021370 f   libeay32:tasn_typ.obj
 0001:00020380       _ASN1_OCTET_STRING_NDEF_it 10021380 f   libeay32:tasn_typ.obj
 0001:00020390       _ASN1_OCTET_STRING_free    10021390 f   libeay32:tasn_typ.obj
 0001:000203b0       _ASN1_OCTET_STRING_it      100213b0 f   libeay32:tasn_typ.obj
 0001:000203c0       _ASN1_OCTET_STRING_new     100213c0 f   libeay32:tasn_typ.obj
 0001:000203d0       _ASN1_PRINTABLE_it         100213d0 f   libeay32:tasn_typ.obj
 0001:000203e0       _ASN1_SEQUENCE_it          100213e0 f   libeay32:tasn_typ.obj
 0001:000203f0       _ASN1_TYPE_free            100213f0 f   libeay32:tasn_typ.obj
 0001:00020410       _ASN1_TYPE_new             10021410 f   libeay32:tasn_typ.obj
 0001:00020420       _ASN1_UTF8STRING_it        10021420 f   libeay32:tasn_typ.obj
 0001:00020430       _DIRECTORYSTRING_it        10021430 f   libeay32:tasn_typ.obj
 0001:00020440       _DISPLAYTEXT_it            10021440 f   libeay32:tasn_typ.obj
 0001:00020450       _d2i_ASN1_INTEGER          10021450 f   libeay32:tasn_typ.obj
 0001:00020470       _d2i_ASN1_OCTET_STRING     10021470 f   libeay32:tasn_typ.obj
 0001:00020490       _d2i_ASN1_SEQUENCE_ANY     10021490 f   libeay32:tasn_typ.obj
 0001:000204b0       _d2i_ASN1_TYPE             100214b0 f   libeay32:tasn_typ.obj
 0001:000204d0       _i2d_ASN1_INTEGER          100214d0 f   libeay32:tasn_typ.obj
 0001:000204f0       _i2d_ASN1_OCTET_STRING     100214f0 f   libeay32:tasn_typ.obj
 0001:00020510       _i2d_ASN1_SEQUENCE_ANY     10021510 f   libeay32:tasn_typ.obj
 0001:00020530       _i2d_ASN1_SET_ANY          10021530 f   libeay32:tasn_typ.obj
 0001:00020550       _i2d_ASN1_TYPE             10021550 f   libeay32:tasn_typ.obj
 0001:00020570       _ASN1_INTEGER_cmp          10021570 f   libeay32:a_int.obj
 0001:000205b0       _ASN1_INTEGER_get          100215b0 f   libeay32:a_int.obj
 0001:00020620       _ASN1_INTEGER_set          10021620 f   libeay32:a_int.obj
 0001:00020710       _ASN1_INTEGER_to_BN        10021710 f   libeay32:a_int.obj
 0001:00020770       _BN_to_ASN1_INTEGER        10021770 f   libeay32:a_int.obj
 0001:00020850       _c2i_ASN1_INTEGER          10021850 f   libeay32:a_int.obj
 0001:000209d0       _d2i_ASN1_UINTEGER         100219d0 f   libeay32:a_int.obj
 0001:00020b20       _i2c_ASN1_INTEGER          10021b20 f   libeay32:a_int.obj
 0001:000238f0       _DHparams_dup              100248f0 f   libeay32:dh_ameth.obj
 0001:00025e10       _RSA_generate_key_ex       10026e10 f   libeay32:rsa_gen.obj
 0001:000262f0       _RSA_sign_ASN1_OCTET_STRING 100272f0 f   libeay32:rsa_saos.obj
 0001:000263f0       _RSA_padding_add_PKCS1_PSS_mgf1 100273f0 f   libeay32:rsa_pss.obj
 0001:000266e0       _RSA_verify_PKCS1_PSS_mgf1 100276e0 f   libeay32:rsa_pss.obj
 0001:00026b40       _X509V3_NAME_from_section  10027b40 f   libeay32:v3_utl.obj
 0001:00026bf0       _X509V3_add_value          10027bf0 f   libeay32:v3_utl.obj
 0001:00026cc0       _X509V3_add_value_bool     10027cc0 f   libeay32:v3_utl.obj
 0001:00026cf0       _X509V3_add_value_int      10027cf0 f   libeay32:v3_utl.obj
 0001:00026d70       _X509V3_add_value_uchar    10027d70 f   libeay32:v3_utl.obj
 0001:00026d80       _X509V3_conf_free          10027d80 f   libeay32:v3_utl.obj
 0001:00026dd0       _X509V3_get_value_bool     10027dd0 f   libeay32:v3_utl.obj
 0001:000270b0       _X509V3_get_value_int      100280b0 f   libeay32:v3_utl.obj
 0001:00027100       _X509V3_parse_list         10028100 f   libeay32:v3_utl.obj
 0001:000272b0       ___local_stdio_scanf_options 100282b0 f i libeay32:v3_utl.obj
 0001:000272c0       _a2i_IPADDRESS             100282c0 f   libeay32:v3_utl.obj
 0001:00027370       _a2i_IPADDRESS_NC          10028370 f   libeay32:v3_utl.obj
 0001:00027480       _a2i_ipadd                 10028480 f   libeay32:v3_utl.obj
 0001:000274c0       _hex_to_string             100284c0 f   libeay32:v3_utl.obj
 0001:00027550       _i2s_ASN1_ENUMERATED       10028550 f   libeay32:v3_utl.obj
 0001:000275b0       _i2s_ASN1_INTEGER          100285b0 f   libeay32:v3_utl.obj
 0001:00027920       _name_cmp                  10028920 f   libeay32:v3_utl.obj
 0001:00027970       _s2i_ASN1_INTEGER          10028970 f   libeay32:v3_utl.obj
 0001:00027a80       _sscanf                    10028a80 f i libeay32:v3_utl.obj
 0001:00027ab0       _string_to_hex             10028ab0 f   libeay32:v3_utl.obj
 0001:00027cc0       _evp_pkey_set_cb_translate 10028cc0 f   libeay32:pmeth_gn.obj
 0001:00027d10       _DH_free                   10028d10 f   libeay32:dh_lib.obj
 0001:00027e00       _DH_new                    10028e00 f   libeay32:dh_lib.obj
 0001:00027e10       _DH_new_method             10028e10 f   libeay32:dh_lib.obj
 0001:00027fa0       _DH_size                   10028fa0 f   libeay32:dh_lib.obj
 0001:00027fc0       _DH_generate_parameters_ex 10028fc0 f   libeay32:dh_gen.obj
 0001:00028530       _DH_OpenSSL                10029530 f   libeay32:dh_key.obj
 0001:00028540       _DH_compute_key            10029540 f   libeay32:dh_key.obj
 0001:00028550       _DH_compute_key_padded     10029550 f   libeay32:dh_key.obj
 0001:000285c0       _DH_generate_key           100295c0 f   libeay32:dh_key.obj
 0001:000285d0       _DH_get_1024_160           100295d0 f   libeay32:dh_rfc5114.obj
 0001:00028630       _DH_get_2048_224           10029630 f   libeay32:dh_rfc5114.obj
 0001:00028690       _DH_get_2048_256           10029690 f   libeay32:dh_rfc5114.obj
 0001:000286f0       _DH_KDF_X9_42              100296f0 f   libeay32:dh_kdf.obj
 0001:00028aa0       _DSA_dup_DH                10029aa0 f   libeay32:dsa_lib.obj
 0001:00028b50       _DSA_free                  10029b50 f   libeay32:dsa_lib.obj
 0001:00028c30       _DSA_new                   10029c30 f   libeay32:dsa_lib.obj
 0001:00028c40       _DSA_new_method            10029c40 f   libeay32:dsa_lib.obj
 0001:00028dd0       _DSA_size                  10029dd0 f   libeay32:dsa_lib.obj
 0001:00028e30       _dsa_builtin_paramgen      10029e30 f   libeay32:dsa_gen.obj
 0001:000295c0       _dsa_builtin_paramgen2     1002a5c0 f   libeay32:dsa_gen.obj
 0001:00029f90       _dsa_pub_internal_it       1002af90 f   libeay32:dsa_asn1.obj
 0001:00029fa0       _DSA_sign                  1002afa0 f   libeay32:dsa_asn1.obj
 0001:0002a000       _DSA_verify                1002b000 f   libeay32:dsa_asn1.obj
 0001:0002a110       _d2i_DSAPrivateKey         1002b110 f   libeay32:dsa_asn1.obj
 0001:0002a130       _d2i_DSA_SIG               1002b130 f   libeay32:dsa_asn1.obj
 0001:0002a150       _d2i_DSAparams             1002b150 f   libeay32:dsa_asn1.obj
 0001:0002a170       _i2d_DSAPrivateKey         1002b170 f   libeay32:dsa_asn1.obj
 0001:0002a190       _i2d_DSAPublicKey          1002b190 f   libeay32:dsa_asn1.obj
 0001:0002a1b0       _i2d_DSAparams             1002b1b0 f   libeay32:dsa_asn1.obj
 0001:0002a1d0       _DSA_generate_key          1002b1d0 f   libeay32:dsa_key.obj
 0001:0002a310       _EC_EX_DATA_clear_free_all_data 1002b310 f   libeay32:ec_lib.obj
 0001:0002a350       _EC_EX_DATA_free_all_data  1002b350 f   libeay32:ec_lib.obj
 0001:0002a390       _EC_EX_DATA_free_data      1002b390 f   libeay32:ec_lib.obj
 0001:0002a3f0       _EC_EX_DATA_get_data       1002b3f0 f   libeay32:ec_lib.obj
 0001:0002a430       _EC_EX_DATA_set_data       1002b430 f   libeay32:ec_lib.obj
 0001:0002a4d0       _EC_GROUP_clear_free       1002b4d0 f   libeay32:ec_lib.obj
 0001:0002a590       _EC_GROUP_cmp              1002b590 f   libeay32:ec_lib.obj
 0001:0002a790       _EC_GROUP_copy             1002b790 f   libeay32:ec_lib.obj
 0001:0002a9c0       _EC_GROUP_dup              1002b9c0 f   libeay32:ec_lib.obj
 0001:0002aa00       _EC_GROUP_free             1002ba00 f   libeay32:ec_lib.obj
 0001:0002aaa0       _EC_GROUP_get0_seed        1002baa0 f   libeay32:ec_lib.obj
 0001:0002aaa0       _CMS_SignerInfo_get0_pkey_ctx 1002baa0 f   libeay32:cms_sd.obj
 0001:0002aab0       _EC_GROUP_get_asn1_flag    1002bab0 f   libeay32:ec_lib.obj
 0001:0002aac0       _EC_GROUP_get_cofactor     1002bac0 f   libeay32:ec_lib.obj
 0001:0002aaf0       _EC_GROUP_get_curve_GF2m   1002baf0 f   libeay32:ec_lib.obj
 0001:0002ab30       _EC_GROUP_get_curve_GFp    1002bb30 f   libeay32:ec_lib.obj
 0001:0002ab70       _EC_GROUP_get_curve_name   1002bb70 f   libeay32:ec_lib.obj
 0001:0002ab80       _EC_GROUP_get_degree       1002bb80 f   libeay32:ec_lib.obj
 0001:0002abc0       _EC_GROUP_get_mont_data    1002bbc0 f   libeay32:ec_lib.obj
 0001:0002abe0       _EC_GROUP_get_order        1002bbe0 f   libeay32:ec_lib.obj
 0001:0002ac10       _EC_GROUP_get_point_conversion_form 1002bc10 f   libeay32:ec_lib.obj
 0001:0002ac20       _EC_GROUP_have_precompute_mult 1002bc20 f   libeay32:ec_lib.obj
 0001:0002ac50       _EC_GROUP_new              1002bc50 f   libeay32:ec_lib.obj
 0001:0002ad40       _EC_GROUP_set_asn1_flag    1002bd40 f   libeay32:ec_lib.obj
 0001:0002ad60       _EC_GROUP_set_curve_GF2m   1002bd60 f   libeay32:ec_lib.obj
 0001:0002ada0       _EC_GROUP_set_curve_GFp    1002bda0 f   libeay32:ec_lib.obj
 0001:0002add0       _EC_GROUP_set_curve_name   1002bdd0 f   libeay32:ec_lib.obj
 0001:0002ade0       _EC_GROUP_set_generator    1002bde0 f   libeay32:ec_lib.obj
 0001:0002aea0       _EC_GROUP_set_point_conversion_form 1002bea0 f   libeay32:ec_lib.obj
 0001:0002aeb0       _EC_GROUP_set_seed         1002beb0 f   libeay32:ec_lib.obj
 0001:0002af20       _EC_POINT_add              1002bf20 f   libeay32:ec_lib.obj
 0001:0002afa0       _EC_POINT_clear_free       1002bfa0 f   libeay32:ec_lib.obj
 0001:0002afe0       _EC_POINT_cmp              1002bfe0 f   libeay32:ec_lib.obj
 0001:0002b050       _EC_POINT_copy             1002c050 f   libeay32:ec_lib.obj
 0001:0002b0c0       _EC_POINT_dbl              1002c0c0 f   libeay32:ec_lib.obj
 0001:0002b130       _EC_POINT_dup              1002c130 f   libeay32:ec_lib.obj
 0001:0002b180       _EC_POINT_free             1002c180 f   libeay32:ec_lib.obj
 0001:0002b1b0       _EC_POINT_get_affine_coordinates_GF2m 1002c1b0 f   libeay32:ec_lib.obj
 0001:0002b220       _EC_POINT_get_affine_coordinates_GFp 1002c220 f   libeay32:ec_lib.obj
 0001:0002b290       _EC_POINT_invert           1002c290 f   libeay32:ec_lib.obj
 0001:0002b2f0       _EC_POINT_is_at_infinity   1002c2f0 f   libeay32:ec_lib.obj
 0001:0002b350       _EC_POINT_is_on_curve      1002c350 f   libeay32:ec_lib.obj
 0001:0002b3b0       _EC_POINT_make_affine      1002c3b0 f   libeay32:ec_lib.obj
 0001:0002b410       _EC_POINT_mul              1002c410 f   libeay32:ec_lib.obj
 0001:0002b490       _EC_POINT_new              1002c490 f   libeay32:ec_lib.obj
 0001:0002b540       _EC_POINT_set_Jprojective_coordinates_GFp 1002c540 f   libeay32:ec_lib.obj
 0001:0002b5b0       _EC_POINT_set_affine_coordinates_GF2m 1002c5b0 f   libeay32:ec_lib.obj
 0001:0002b620       _EC_POINT_set_affine_coordinates_GFp 1002c620 f   libeay32:ec_lib.obj
 0001:0002b690       _EC_POINT_set_to_infinity  1002c690 f   libeay32:ec_lib.obj
 0001:0002b6f0       _EC_POINTs_make_affine     1002c6f0 f   libeay32:ec_lib.obj
 0001:0002b770       _ec_precompute_mont_data   1002c770 f   libeay32:ec_lib.obj
 0001:0002b800       _EC_GROUP_new_by_curve_name 1002c800 f   libeay32:ec_curve.obj
 0001:0002bbf0       _EC_curve_nid2nist         1002cbf0 f   libeay32:ec_curve.obj
 0001:0002bc10       _EC_curve_nist2nid         1002cc10 f   libeay32:ec_curve.obj
 0001:0002bc70       _EC_KEY_clear_flags        1002cc70 f   libeay32:ec_key.obj
 0001:0002bc80       _EC_KEY_copy               1002cc80 f   libeay32:ec_key.obj
 0001:0002bdd0       _EC_KEY_dup                1002cdd0 f   libeay32:ec_key.obj
 0001:0002be00       _EC_KEY_free               1002ce00 f   libeay32:ec_key.obj
 0001:0002be70       _EC_KEY_generate_key       1002ce70 f   libeay32:ec_key.obj
 0001:0002bfa0       _EC_GROUP_get0_generator   1002cfa0 f   libeay32:ec_lib.obj
 0001:0002bfa0       _EC_KEY_get0_group         1002cfa0 f   libeay32:ec_key.obj
 0001:0002bfa0       _EC_METHOD_get_field_type  1002cfa0 f   libeay32:ec_lib.obj
 0001:0002bfa0       _CRYPTO_THREADID_hash      1002cfa0 f   libeay32:cryptlib.obj
 0001:0002bfa0       _EVP_MD_pkey_type          1002cfa0 f   libeay32:evp_lib.obj
 0001:0002bfb0       _EC_KEY_get_conv_form      1002cfb0 f   libeay32:ec_key.obj
 0001:0002bfb0       _ENGINE_get_ECDH           1002cfb0 f   libeay32:tb_ecdh.obj
 0001:0002bfc0       _EVP_CIPHER_flags          1002cfc0 f   libeay32:evp_lib.obj
 0001:0002bfc0       _ENGINE_get_DH             1002cfc0 f   libeay32:tb_dh.obj
 0001:0002bfc0       _EC_KEY_get_enc_flags      1002cfc0 f   libeay32:ec_key.obj
 0001:0002bfd0       _EC_KEY_get_key_method_data 1002cfd0 f   libeay32:ec_key.obj
 0001:0002c020       _EC_KEY_insert_key_method_data 1002d020 f   libeay32:ec_key.obj
 0001:0002c090       _EC_KEY_new                1002d090 f   libeay32:ec_key.obj
 0001:0002c100       _EC_KEY_set_enc_flags      1002d100 f   libeay32:ec_key.obj
 0001:0002c110       _EC_KEY_set_flags          1002d110 f   libeay32:ec_key.obj
 0001:0002c120       _EC_KEY_set_group          1002d120 f   libeay32:ec_key.obj
 0001:0002c150       _EC_KEY_set_public_key     1002d150 f   libeay32:ec_key.obj
 0001:0002c190       _EC_KEY_up_ref             1002d190 f   libeay32:ec_key.obj
 0001:0002c280       _ECDSA_size                1002d280 f   libeay32:ecs_lib.obj
 0001:0002c330       _ecdsa_check               1002d330 f   libeay32:ecs_lib.obj
 0001:0002c400       _ECDSA_sign                1002d400 f   libeay32:ecs_sign.obj
 0001:0002c430       _ECDSA_sign_ex             1002d430 f   libeay32:ecs_sign.obj
 0001:0002c4a0       _ECDSA_sign_setup          1002d4a0 f   libeay32:ecs_sign.obj
 0001:0002c4c0       _ECDSA_verify              1002d4c0 f   libeay32:ecs_vrf.obj
 0001:0002c5e0       _ECDH_compute_key          1002d5e0 f   libeay32:ech_key.obj
 0001:0002c600       _ECDH_KDF_X9_62            1002d600 f   libeay32:ech_kdf.obj
 0001:0002c7f0       _ASN1_OCTET_STRING_cmp     1002d7f0 f   libeay32:a_octet.obj
 0001:0002c800       _ASN1_OCTET_STRING_dup     1002d800 f   libeay32:a_octet.obj
 0001:0002c810       _HMAC_CTX_cleanup          1002d810 f   libeay32:hmac.obj
 0001:0002c840       _HMAC_CTX_copy             1002d840 f   libeay32:hmac.obj
 0001:0002c8b0       _HMAC_CTX_init             1002d8b0 f   libeay32:hmac.obj
 0001:0002c8e0       _HMAC_CTX_set_flags        1002d8e0 f   libeay32:hmac.obj
 0001:0002c910       _HMAC_Final                1002d910 f   libeay32:hmac.obj
 0001:0002c9c0       _HMAC_Init_ex              1002d9c0 f   libeay32:hmac.obj
 0001:0002cbd0       _HMAC_Update               1002dbd0 f   libeay32:hmac.obj
 0001:0002cbf0       _CMAC_CTX_cleanup          1002dbf0 f   libeay32:cmac.obj
 0001:0002cc50       _CMAC_CTX_copy             1002dc50 f   libeay32:cmac.obj
 0001:0002ccf0       _CMAC_CTX_free             1002dcf0 f   libeay32:cmac.obj
 0001:0002cd10       _CMAC_CTX_new              1002dd10 f   libeay32:cmac.obj
 0001:0002cd50       _CMAC_Final                1002dd50 f   libeay32:cmac.obj
 0001:0002ce30       _CMAC_Init                 1002de30 f   libeay32:cmac.obj
 0001:0002cfa0       _CMAC_Update               1002dfa0 f   libeay32:cmac.obj
 0001:0002d0e0       _OBJ_NAME_get              1002e0e0 f   libeay32:o_names.obj
 0001:0002d190       _OBJ_NAME_init             1002e190 f   libeay32:o_names.obj
 0001:0002d2c0       _OBJ_find_sigid_algs       1002e2c0 f   libeay32:obj_xref.obj
 0001:0002d380       _OBJ_find_sigid_by_algs    1002e380 f   libeay32:obj_xref.obj
 0001:0002d460       _EVP_PBE_CipherInit        1002e460 f   libeay32:evp_pbe.obj
 0001:0002d650       _EVP_PBE_find              1002e650 f   libeay32:evp_pbe.obj
 0001:0002d720       _X509_ATTRIBUTE_SET_it     1002e720 f   libeay32:x_attrib.obj
 0001:0002d730       _X509_ATTRIBUTE_create     1002e730 f   libeay32:x_attrib.obj
 0001:0002d7c0       _X509_ATTRIBUTE_dup        1002e7c0 f   libeay32:x_attrib.obj
 0001:0002d7e0       _X509_ATTRIBUTE_free       1002e7e0 f   libeay32:x_attrib.obj
 0001:0002d800       _X509_ATTRIBUTE_it         1002e800 f   libeay32:x_attrib.obj
 0001:0002d810       _X509_ATTRIBUTE_new        1002e810 f   libeay32:x_attrib.obj
 0001:0002d820       _X509_ALGOR_it             1002e820 f   libeay32:x_algor.obj
 0001:0002d830       _X509_ALGOR_free           1002e830 f   libeay32:x_algor.obj
 0001:0002d850       _X509_ALGOR_get0           1002e850 f   libeay32:x_algor.obj
 0001:0002d890       _X509_ALGOR_new            1002e890 f   libeay32:x_algor.obj
 0001:0002d8a0       _X509_ALGOR_set0           1002e8a0 f   libeay32:x_algor.obj
 0001:0002d920       _X509_ALGOR_set_md         1002e920 f   libeay32:x_algor.obj
 0001:0002d960       _d2i_X509_ALGOR            1002e960 f   libeay32:x_algor.obj
 0001:0002d980       _i2d_X509_ALGOR            1002e980 f   libeay32:x_algor.obj
 0001:0002d9a0       _ASN1_item_ex_new          1002e9a0 f   libeay32:tasn_new.obj
 0001:0002d9c0       _ASN1_item_new             1002e9c0 f   libeay32:tasn_new.obj
 0001:0002da00       _ASN1_primitive_new        1002ea00 f   libeay32:tasn_new.obj
 0001:0002db00       _ASN1_template_new         1002eb00 f   libeay32:tasn_new.obj
 0001:0002deb0       _ASN1_item_d2i             1002eeb0 f   libeay32:tasn_dec.obj
 0001:0002df30       _ASN1_item_ex_d2i          1002ef30 f   libeay32:tasn_dec.obj
 0001:0002e6f0       _ASN1_tag2bit              1002f6f0 f   libeay32:tasn_dec.obj
 0001:0002eee0       _asn1_ex_c2i               1002fee0 f   libeay32:tasn_dec.obj
 0001:0002f720       _ASN1_item_ex_i2d          10030720 f   libeay32:tasn_enc.obj
 0001:0002fa90       _ASN1_item_i2d             10030a90 f   libeay32:tasn_enc.obj
 0001:0002fab0       _asn1_ex_i2c               10030ab0 f   libeay32:tasn_enc.obj
 0001:00030300       _asn1_do_adb               10031300 f   libeay32:tasn_utl.obj
 0001:000303a0       _asn1_do_lock              100313a0 f   libeay32:tasn_utl.obj
 0001:000303f0       _asn1_enc_free             100313f0 f   libeay32:tasn_utl.obj
 0001:00030440       _asn1_enc_init             10031440 f   libeay32:tasn_utl.obj
 0001:00030480       _asn1_enc_restore          10031480 f   libeay32:tasn_utl.obj
 0001:000304f0       _asn1_enc_save             100314f0 f   libeay32:tasn_utl.obj
 0001:00030570       _asn1_get_choice_selector  10031570 f   libeay32:tasn_utl.obj
 0001:00030590       _asn1_get_field_ptr        10031590 f   libeay32:tasn_utl.obj
 0001:000305b0       _asn1_set_choice_selector  100315b0 f   libeay32:tasn_utl.obj
 0001:000305d0       _BUF_MEM_free              100315d0 f   libeay32:buffer.obj
 0001:00030600       _BUF_MEM_grow              10031600 f   libeay32:buffer.obj
 0001:000306e0       _BUF_MEM_grow_clean        100316e0 f   libeay32:buffer.obj
 0001:000307e0       _BUF_MEM_new               100317e0 f   libeay32:buffer.obj
 0001:00030830       _BUF_reverse               10031830 f   libeay32:buffer.obj
 0001:00030890       _i2a_ASN1_INTEGER          10031890 f   libeay32:f_int.obj
 0001:00030990       _ASN1_bn_print             10031990 f   libeay32:t_pkey.obj
 0001:00030b50       _ASN1_item_pack            10031b50 f   libeay32:asn_pack.obj
 0001:00030c00       _EVP_DigestSignFinal       10031c00 f   libeay32:m_sigver.obj
 0001:00030da0       _EVP_DigestSignInit        10031da0 f   libeay32:m_sigver.obj
 0001:00030dc0       _EVP_DigestVerifyFinal     10031dc0 f   libeay32:m_sigver.obj
 0001:00030ec0       _EVP_DigestVerifyInit      10031ec0 f   libeay32:m_sigver.obj
 0001:00031070       _RSA_OAEP_PARAMS_free      10032070 f   libeay32:rsa_asn1.obj
 0001:00031090       _RSA_OAEP_PARAMS_it        10032090 f   libeay32:rsa_asn1.obj
 0001:000310a0       _RSA_OAEP_PARAMS_new       100320a0 f   libeay32:rsa_asn1.obj
 0001:000310b0       _RSA_PSS_PARAMS_free       100320b0 f   libeay32:rsa_asn1.obj
 0001:000310d0       _RSA_PSS_PARAMS_it         100320d0 f   libeay32:rsa_asn1.obj
 0001:000310e0       _RSA_PSS_PARAMS_new        100320e0 f   libeay32:rsa_asn1.obj
 0001:000310f0       _d2i_RSAPrivateKey         100320f0 f   libeay32:rsa_asn1.obj
 0001:00031110       _d2i_RSAPublicKey          10032110 f   libeay32:rsa_asn1.obj
 0001:00031130       _d2i_RSA_OAEP_PARAMS       10032130 f   libeay32:rsa_asn1.obj
 0001:00031150       _d2i_RSA_PSS_PARAMS        10032150 f   libeay32:rsa_asn1.obj
 0001:00031170       _i2d_RSAPrivateKey         10032170 f   libeay32:rsa_asn1.obj
 0001:00031190       _i2d_RSAPublicKey          10032190 f   libeay32:rsa_asn1.obj
 0001:000311b0       _PKCS7_RECIP_INFO_get0_alg 100321b0 f   libeay32:pk7_lib.obj
 0001:000311d0       _PKCS7_SIGNER_INFO_get0_algs 100321d0 f   libeay32:pk7_lib.obj
 0001:00031200       _PKCS7_ctrl                10032200 f   libeay32:pk7_lib.obj
 0001:000312d0       _PKCS7_stream              100322d0 f   libeay32:pk7_lib.obj
 0001:00031380       _ASN1_GENERALIZEDTIME_print 10032380 f   libeay32:t_x509.obj
 0001:00031540       _ASN1_STRING_print         10032540 f   libeay32:t_x509.obj
 0001:00031600       _X509_NAME_print           10032600 f   libeay32:t_x509.obj
 0001:000316f0       _X509_signature_dump       100326f0 f   libeay32:t_x509.obj
 0001:00031810       _PKCS8_PRIV_KEY_INFO_it    10032810 f   libeay32:p8_pkey.obj
 0001:00031820       _PKCS8_pkey_get0           10032820 f   libeay32:p8_pkey.obj
 0001:00031890       _PKCS8_pkey_set0           10032890 f   libeay32:p8_pkey.obj
 0001:00031940       _X509_PUBKEY_get           10032940 f   libeay32:x_pubkey.obj
 0001:00031aa0       _X509_PUBKEY_get0_param    10032aa0 f   libeay32:x_pubkey.obj
 0001:00031ae0       _X509_PUBKEY_it            10032ae0 f   libeay32:x_pubkey.obj
 0001:00031af0       _X509_PUBKEY_set0_param    10032af0 f   libeay32:x_pubkey.obj
 0001:00031b60       _CMS_RecipientInfo_encrypt 10032b60 f   libeay32:cms_env.obj
 0001:00031bd0       _CMS_RecipientInfo_get0_pkey_ctx 10032bd0 f   libeay32:cms_env.obj
 0001:00031bf0       _CMS_RecipientInfo_ktri_get0_algs 10032bf0 f   libeay32:cms_env.obj
 0001:00031c50       _cms_EnvelopedData_init_bio 10032c50 f   libeay32:cms_env.obj
 0001:00032000       _cms_env_asn1_ctrl         10033000 f   libeay32:cms_env.obj
 0001:000321d0       _CMS_SignerInfo_get0_algs  100331d0 f   libeay32:cms_sd.obj
 0001:00032210       _CMS_SignerInfo_sign       10033210 f   libeay32:cms_sd.obj
 0001:00032430       _cms_SignedData_final      10033430 f   libeay32:cms_sd.obj
 0001:000324d0       _cms_SignedData_init_bio   100334d0 f   libeay32:cms_sd.obj
 0001:000329b0       _DSA_SIG_free              100339b0 f   libeay32:dsa_sign.obj
 0001:000329f0       _DSA_SIG_new               100339f0 f   libeay32:dsa_sign.obj
 0001:00032a20       _DSA_do_sign               10033a20 f   libeay32:dsa_sign.obj
 0001:00032a30       _DSA_sign_setup            10033a30 f   libeay32:dsa_sign.obj
 0001:00032a40       _EVP_CIPHER_CTX_cleanup    10033a40 f   libeay32:evp_enc.obj
 0001:00032ab0       _EVP_CIPHER_CTX_copy       10033ab0 f   libeay32:evp_enc.obj
 0001:00032bd0       _EVP_CIPHER_CTX_ctrl       10033bd0 f   libeay32:evp_enc.obj
 0001:00032c60       _EVP_CIPHER_CTX_init       10033c60 f   libeay32:evp_enc.obj
 0001:00032c80       _EVP_CIPHER_CTX_rand_key   10033c80 f   libeay32:evp_enc.obj
 0001:00032cc0       _EVP_CIPHER_CTX_set_key_length 10033cc0 f   libeay32:evp_enc.obj
 0001:00032d20       _EVP_CIPHER_CTX_set_padding 10033d20 f   libeay32:evp_enc.obj
 0001:00032d50       _EVP_CipherFinal_ex        10033d50 f   libeay32:evp_enc.obj
 0001:00032d70       _EVP_CipherInit_ex         10033d70 f   libeay32:evp_enc.obj
 0001:00033050       _EVP_CipherUpdate          10034050 f   libeay32:evp_enc.obj
 0001:00033070       _EVP_DecryptFinal_ex       10034070 f   libeay32:evp_enc.obj
 0001:000331d0       _EVP_DecryptInit_ex        100341d0 f   libeay32:evp_enc.obj
 0001:000331f0       _EVP_DecryptUpdate         100341f0 f   libeay32:evp_enc.obj
 0001:00033330       _EVP_EncryptFinal_ex       10034330 f   libeay32:evp_enc.obj
 0001:00033420       _EVP_EncryptInit_ex        10034420 f   libeay32:evp_enc.obj
 0001:00033440       _EVP_EncryptUpdate         10034440 f   libeay32:evp_enc.obj
 0001:000335e0       _EVP_PKEY_derive           100345e0 f   libeay32:pmeth_fn.obj
 0001:000336d0       _EVP_PKEY_derive_set_peer  100346d0 f   libeay32:pmeth_fn.obj
 0001:00033850       _EVP_PKEY_encrypt          10034850 f   libeay32:pmeth_fn.obj
 0001:00033950       _EVP_PKEY_encrypt_init     10034950 f   libeay32:pmeth_fn.obj
 0001:000339c0       _EVP_PKEY_sign             100349c0 f   libeay32:pmeth_fn.obj
 0001:00033ab0       _EVP_PKEY_sign_init        10034ab0 f   libeay32:pmeth_fn.obj
 0001:00033b10       _EVP_PKEY_verify           10034b10 f   libeay32:pmeth_fn.obj
 0001:00033b80       _EVP_PKEY_verify_init      10034b80 f   libeay32:pmeth_fn.obj
 0001:00033c30       _DHvparams_it              10034c30 f   libeay32:dh_asn1.obj
 0001:00033c40       _d2i_DHparams              10034c40 f   libeay32:dh_asn1.obj
 0001:00033c60       _d2i_DHxparams             10034c60 f   libeay32:dh_asn1.obj
 0001:00033d30       _i2d_DHparams              10034d30 f   libeay32:dh_asn1.obj
 0001:00033d50       _i2d_DHxparams             10034d50 f   libeay32:dh_asn1.obj
 0001:00033de0       _CMS_RecipientInfo_kari_get0_alg 10034de0 f   libeay32:cms_kari.obj
 0001:00033e30       _CMS_RecipientInfo_kari_get0_ctx 10034e30 f   libeay32:cms_kari.obj
 0001:00033e50       _CMS_RecipientInfo_kari_get0_orig_id 10034e50 f   libeay32:cms_kari.obj
 0001:00033f40       _cms_RecipientInfo_kari_encrypt 10034f40 f   libeay32:cms_kari.obj
 0001:00034290       _EC_POINT_point2bn         10035290 f   libeay32:ec_print.obj
 0001:00034320       _ECPKParameters_print      10035320 f   libeay32:eck_prn.obj
 0001:00034a60       _X9_62_PENTANOMIAL_it      10035a60 f   libeay32:ec_asn1.obj
 0001:00034a80       _X9_62_CHARACTERISTIC_TWO_it 10035a80 f   libeay32:ec_asn1.obj
 0001:00034aa0       _X9_62_FIELDID_it          10035aa0 f   libeay32:ec_asn1.obj
 0001:00034ab0       _X9_62_CURVE_it            10035ab0 f   libeay32:ec_asn1.obj
 0001:00034ac0       _ECPARAMETERS_it           10035ac0 f   libeay32:ec_asn1.obj
 0001:00034ad0       _ECPKPARAMETERS_it         10035ad0 f   libeay32:ec_asn1.obj
 0001:00034ae0       _EC_GROUP_get_basis_type   10035ae0 f   libeay32:ec_asn1.obj
 0001:00034b30       _EC_GROUP_get_pentanomial_basis 10035b30 f   libeay32:ec_asn1.obj
 0001:00034bc0       _EC_GROUP_get_trinomial_basis 10035bc0 f   libeay32:ec_asn1.obj
 0001:00034c20       _d2i_ECPKParameters        10035c20 f   libeay32:ec_asn1.obj
 0001:00034cf0       _d2i_ECParameters          10035cf0 f   libeay32:ec_asn1.obj
 0001:00034dc0       _d2i_ECPrivateKey          10035dc0 f   libeay32:ec_asn1.obj
 0001:00035ed0       _i2d_ECPKParameters        10036ed0 f   libeay32:ec_asn1.obj
 0001:00035f60       _i2d_ECParameters          10036f60 f   libeay32:ec_asn1.obj
 0001:00035fb0       _i2d_ECPrivateKey          10036fb0 f   libeay32:ec_asn1.obj
 0001:00036300       _i2d_EC_PRIVATEKEY         10037300 f   libeay32:ec_asn1.obj
 0001:00036320       _i2o_ECPublicKey           10037320 f   libeay32:ec_asn1.obj
 0001:00036420       _o2i_ECPublicKey           10037420 f   libeay32:ec_asn1.obj
 0001:000364f0       _CMS_OtherRecipientInfo_it 100374f0 f   libeay32:cms_asn1.obj
 0001:00036580       _CMS_EnvelopedData_it      10037580 f   libeay32:cms_asn1.obj
 0001:00036590       _CMS_DigestedData_it       10037590 f   libeay32:cms_asn1.obj
 0001:000365a0       _CMS_EncryptedData_it      100375a0 f   libeay32:cms_asn1.obj
 0001:000365b0       _CMS_AuthenticatedData_it  100375b0 f   libeay32:cms_asn1.obj
 0001:000365c0       _CMS_CompressedData_it     100375c0 f   libeay32:cms_asn1.obj
 0001:00036660       _CMS_ReceiptsFrom_it       10037660 f   libeay32:cms_asn1.obj
 0001:00036670       _CMS_SignerInfo_it         10037670 f   libeay32:cms_asn1.obj
 0001:00036680       _CMS_IssuerAndSerialNumber_it 10037680 f   libeay32:cms_asn1.obj
 0001:00036690       _CMS_RecipientInfo_it      10037690 f   libeay32:cms_asn1.obj
 0001:000366a0       _CMS_PasswordRecipientInfo_it 100376a0 f   libeay32:cms_asn1.obj
 0001:000366b0       _CMS_OtherCertificateFormat_it 100376b0 f   libeay32:cms_asn1.obj
 0001:000366c0       _CMS_CertificateChoices_it 100376c0 f   libeay32:cms_asn1.obj
 0001:000366d0       _CMS_SignerIdentifier_it   100376d0 f   libeay32:cms_asn1.obj
 0001:000366e0       _CMS_EncapsulatedContentInfo_it 100376e0 f   libeay32:cms_asn1.obj
 0001:00036740       _CMS_OtherRevocationInfoFormat_it 10037740 f   libeay32:cms_asn1.obj
 0001:00036750       _CMS_RevocationInfoChoice_it 10037750 f   libeay32:cms_asn1.obj
 0001:00036760       _CMS_SignedData_it         10037760 f   libeay32:cms_asn1.obj
 0001:00036770       _CMS_OriginatorInfo_it     10037770 f   libeay32:cms_asn1.obj
 0001:00036780       _CMS_EncryptedContentInfo_it 10037780 f   libeay32:cms_asn1.obj
 0001:00036790       _CMS_KeyTransRecipientInfo_it 10037790 f   libeay32:cms_asn1.obj
 0001:000367a0       _CMS_OtherKeyAttribute_it  100377a0 f   libeay32:cms_asn1.obj
 0001:000367b0       _CMS_RecipientKeyIdentifier_it 100377b0 f   libeay32:cms_asn1.obj
 0001:000367c0       _CMS_KeyAgreeRecipientIdentifier_it 100377c0 f   libeay32:cms_asn1.obj
 0001:00036800       _CMS_RecipientEncryptedKey_it 10037800 f   libeay32:cms_asn1.obj
 0001:00036810       _CMS_OriginatorPublicKey_it 10037810 f   libeay32:cms_asn1.obj
 0001:00036820       _CMS_OriginatorIdentifierOrKey_it 10037820 f   libeay32:cms_asn1.obj
 0001:00036890       _CMS_KeyAgreeRecipientInfo_it 10037890 f   libeay32:cms_asn1.obj
 0001:000368a0       _CMS_KEKIdentifier_it      100378a0 f   libeay32:cms_asn1.obj
 0001:000368b0       _CMS_KEKRecipientInfo_it   100378b0 f   libeay32:cms_asn1.obj
 0001:000368c0       _CMS_Attributes_Sign_it    100378c0 f   libeay32:cms_asn1.obj
 0001:000368d0       _CMS_SharedInfo_encode     100378d0 f   libeay32:cms_asn1.obj
 0001:00036950       _BN_GENCB_call             10037950 f   libeay32:bn_prime.obj
 0001:000369a0       _BN_generate_prime_ex      100379a0 f   libeay32:bn_prime.obj
 0001:00036c20       _BN_is_prime_fasttest_ex   10037c20 f   libeay32:bn_prime.obj
 0001:00037420       _CONF_parse_list           10038420 f   libeay32:conf_mod.obj
 0001:00037510       _ASN1_ENUMERATED_get       10038510 f   libeay32:a_enum.obj
 0001:00037580       _ASN1_ENUMERATED_to_BN     10038580 f   libeay32:a_enum.obj
 0001:000375e0       _ASN1_STRING_to_UTF8       100385e0 f   libeay32:a_strex.obj
 0001:00037660       _X509_NAME_print_ex        10038660 f   libeay32:a_strex.obj
 0001:00038140       _X509_EXTENSION_it         10039140 f   libeay32:x_exten.obj
 0001:00038150       _X509_NAME_cmp             10039150 f   libeay32:x509_cmp.obj
 0001:00038210       _EVP_CIPHER_CTX_iv_length  10039210 f   libeay32:evp_lib.obj
 0001:00038210       _X509_get_issuer_name      10039210 f   libeay32:x509_cmp.obj
 0001:00038220       _X509_get_pubkey           10039220 f   libeay32:x509_cmp.obj
 0001:00038240       _EVP_CIPHER_CTX_block_size 10039240 f   libeay32:evp_lib.obj
 0001:00038240       _X509_get_serialNumber     10039240 f   libeay32:x509_cmp.obj
 0001:00038250       _X509_get_subject_name     10039250 f   libeay32:x509_cmp.obj
 0001:00038260       _X509_NAME_ENTRY_create_by_OBJ 10039260 f   libeay32:x509name.obj
 0001:00038300       _X509_NAME_ENTRY_create_by_txt 10039300 f   libeay32:x509name.obj
 0001:00038370       _X509_NAME_ENTRY_get_data  10039370 f   libeay32:x509name.obj
 0001:00038370       _UI_get0_output_string     10039370 f   libeay32:ui_lib.obj
 0001:00038380       _X509_EXTENSION_get_object 10039380 f   libeay32:x509_v3.obj
 0001:00038380       _EVP_MD_CTX_md             10039380 f   libeay32:evp_lib.obj
 0001:00038380       _UI_get_string_type        10039380 f   libeay32:ui_lib.obj
 0001:00038380       _X509_NAME_ENTRY_get_object 10039380 f   libeay32:x509name.obj
 0001:00038390       _X509_NAME_ENTRY_set_data  10039390 f   libeay32:x509name.obj
 0001:00038450       _X509_NAME_add_entry       10039450 f   libeay32:x509name.obj
 0001:00038570       _X509_NAME_add_entry_by_txt 10039570 f   libeay32:x509name.obj
 0001:000385c0       _X509_NAME_delete_entry    100395c0 f   libeay32:x509name.obj
 0001:00038660       _X509_NAME_entry_count     10039660 f   libeay32:x509name.obj
 0001:00038680       _X509_NAME_get_entry       10039680 f   libeay32:x509name.obj
 0001:000386b0       _X509_NAME_get_index_by_NID 100396b0 f   libeay32:x509name.obj
 0001:000386d0       _X509_NAME_get_index_by_OBJ 100396d0 f   libeay32:x509name.obj
 0001:00038730       _X509_CRL_get_ext_d2i      10039730 f   libeay32:x509_ext.obj
 0001:00038750       _X509_REVOKED_get_ext_d2i  10039750 f   libeay32:x509_ext.obj
 0001:00038770       _X509_get_ext              10039770 f   libeay32:x509_ext.obj
 0001:00038790       _X509_get_ext_by_NID       10039790 f   libeay32:x509_ext.obj
 0001:000387b0       _X509_get_ext_count        100397b0 f   libeay32:x509_ext.obj
 0001:000387d0       _X509_get_ext_d2i          100397d0 f   libeay32:x509_ext.obj
 0001:000387f0       _GENERAL_NAME_it           100397f0 f   libeay32:v3_genn.obj
 0001:00038800       _OTHERNAME_it              10039800 f   libeay32:v3_genn.obj
 0001:00038810       _EDIPARTYNAME_it           10039810 f   libeay32:v3_genn.obj
 0001:00038820       _GENERAL_NAMES_free        10039820 f   libeay32:v3_genn.obj
 0001:00038840       _GENERAL_NAMES_it          10039840 f   libeay32:v3_genn.obj
 0001:00038850       _GENERAL_NAMES_new         10039850 f   libeay32:v3_genn.obj
 0001:00038860       _GENERAL_NAME_free         10039860 f   libeay32:v3_genn.obj
 0001:00038880       _GENERAL_NAME_new          10039880 f   libeay32:v3_genn.obj
 0001:00038890       _OTHERNAME_new             10039890 f   libeay32:v3_genn.obj
 0001:00038c30       _ACCESS_DESCRIPTION_it     10039c30 f   libeay32:v3_info.obj
 0001:00038c40       _AUTHORITY_INFO_ACCESS_it  10039c40 f   libeay32:v3_info.obj
 0001:00038c50       _ACCESS_DESCRIPTION_free   10039c50 f   libeay32:v3_info.obj
 0001:00038c70       _X509V3_EXT_d2i            10039c70 f   libeay32:v3_lib.obj
 0001:00038ce0       _X509V3_EXT_get_nid        10039ce0 f   libeay32:v3_lib.obj
 0001:00038d60       _X509V3_get_d2i            10039d60 f   libeay32:v3_lib.obj
 0001:00038ea0       _ENGINE_get_default_DH     10039ea0 f   libeay32:tb_dh.obj
 0001:00038eb0       _DH_check_pub_key          10039eb0 f   libeay32:dh_check.obj
 0001:00039710       _DSA_OpenSSL               1003a710 f   libeay32:dsa_ossl.obj
 0001:00039720       _EVP_PKEY_CTX_get0_peerkey 1003a720 f   libeay32:pmeth_lib.obj
 0001:00039720       _ENGINE_get_DSA            1003a720 f   libeay32:tb_dsa.obj
 0001:00039720       _EC_KEY_get0_private_key   1003a720 f   libeay32:ec_key.obj
 0001:00039720       _EVP_CIPHER_iv_length      1003a720 f   libeay32:evp_lib.obj
 0001:00039730       _ENGINE_get_default_DSA    1003a730 f   libeay32:tb_dsa.obj
 0001:000398b0       _BIGNUM_it                 1003a8b0 f   libeay32:x_bignum.obj
 0001:000398c0       _CBIGNUM_it                1003a8c0 f   libeay32:x_bignum.obj
 0001:00039a50       _LONG_it                   1003aa50 f   libeay32:x_long.obj
 0001:00039a60       _ZLONG_it                  1003aa60 f   libeay32:x_long.obj
 0001:00039a70       _DSA_do_verify             1003aa70 f   libeay32:dsa_vrf.obj
 0001:00039a80       _ASN1_item_dup             1003aa80 f   libeay32:a_dup.obj
 0001:00039e50       _ec_wNAF_have_precompute_mult 1003ae50 f   libeay32:ec_mult.obj
 0001:00039e80       _ec_wNAF_mul               1003ae80 f   libeay32:ec_mult.obj
 0001:0003a890       _ec_wNAF_precompute_mult   1003b890 f   libeay32:ec_mult.obj
 0001:0003acf0       _EC_GROUP_new_curve_GF2m   1003bcf0 f   libeay32:ec_cvt.obj
 0001:0003ad40       _EC_GROUP_new_curve_GFp    1003bd40 f   libeay32:ec_cvt.obj
 0001:0003b870       _ECDSA_OpenSSL             1003c870 f   libeay32:ecs_ossl.obj
 0001:0003b880       _ENGINE_get_ECDSA          1003c880 f   libeay32:tb_ecdsa.obj
 0001:0003b890       _ENGINE_get_default_ECDSA  1003c890 f   libeay32:tb_ecdsa.obj
 0001:0003b8a0       _ECDSA_SIG_free            1003c8a0 f   libeay32:ecs_asn1.obj
 0001:0003b8c0       _ECDSA_SIG_new             1003c8c0 f   libeay32:ecs_asn1.obj
 0001:0003b8d0       _d2i_ECDSA_SIG             1003c8d0 f   libeay32:ecs_asn1.obj
 0001:0003b8f0       _i2d_ECDSA_SIG             1003c8f0 f   libeay32:ecs_asn1.obj
 0001:0003b9e0       _ecdh_check                1003c9e0 f   libeay32:ech_lib.obj
 0001:0003bab0       _PKCS5_PBKDF2_HMAC         1003cab0 f   libeay32:p5_crpt2.obj
 0001:0003be20       _PKCS5_v2_PBE_keyivgen     1003ce20 f   libeay32:p5_crpt2.obj
 0001:0003bf60       _PKCS5_v2_PBKDF2_keyivgen  1003cf60 f   libeay32:p5_crpt2.obj
 0001:0003c170       _PKCS5_PBE_keyivgen        1003d170 f   libeay32:p5_crpt.obj
 0001:0003c4b0       _PKCS12_PBE_keyivgen       1003d4b0 f   libeay32:p12_crpt.obj
 0001:0003c6a0       _ASN1_BIT_STRING_get_bit   1003d6a0 f   libeay32:a_bitstr.obj
 0001:0003c6f0       _ASN1_BIT_STRING_set       1003d6f0 f   libeay32:a_bitstr.obj
 0001:0003c6f0       _ASN1_OCTET_STRING_set     1003d6f0 f   libeay32:a_octet.obj
 0001:0003c700       _ASN1_BIT_STRING_set_bit   1003d700 f   libeay32:a_bitstr.obj
 0001:0003c820       _c2i_ASN1_BIT_STRING       1003d820 f   libeay32:a_bitstr.obj
 0001:0003c950       _i2c_ASN1_BIT_STRING       1003d950 f   libeay32:a_bitstr.obj
 0001:0003ca40       _PKCS7_ISSUER_AND_SERIAL_it 1003da40 f   libeay32:pk7_asn1.obj
 0001:0003ca50       _PKCS7_SIGNER_INFO_it      1003da50 f   libeay32:pk7_asn1.obj
 0001:0003ca60       _PKCS7_RECIP_INFO_it       1003da60 f   libeay32:pk7_asn1.obj
 0001:0003ca70       _PKCS7_SIGNED_it           1003da70 f   libeay32:pk7_asn1.obj
 0001:0003ca80       _PKCS7_ENC_CONTENT_it      1003da80 f   libeay32:pk7_asn1.obj
 0001:0003ca90       _PKCS7_ENVELOPE_it         1003da90 f   libeay32:pk7_asn1.obj
 0001:0003caa0       _PKCS7_SIGN_ENVELOPE_it    1003daa0 f   libeay32:pk7_asn1.obj
 0001:0003cab0       _PKCS7_DIGEST_it           1003dab0 f   libeay32:pk7_asn1.obj
 0001:0003cac0       _PKCS7_ENCRYPT_it          1003dac0 f   libeay32:pk7_asn1.obj
 0001:0003cad0       _PKCS7_it                  1003dad0 f   libeay32:pk7_asn1.obj
 0001:0003cb90       _PKCS7_ATTR_SIGN_it        1003db90 f   libeay32:pk7_asn1.obj
 0001:0003cbd0       _X509_NAME_ENTRIES_it      1003dbd0 f   libeay32:x_name.obj
 0001:0003cbe0       _X509_NAME_ENTRY_it        1003dbe0 f   libeay32:x_name.obj
 0001:0003cee0       _X509_NAME_ENTRY_dup       1003dee0 f   libeay32:x_name.obj
 0001:0003cf00       _X509_NAME_ENTRY_free      1003df00 f   libeay32:x_name.obj
 0001:0003cf20       _X509_NAME_ENTRY_new       1003df20 f   libeay32:x_name.obj
 0001:0003cf30       _X509_NAME_dup             1003df30 f   libeay32:x_name.obj
 0001:0003cf50       _X509_NAME_free            1003df50 f   libeay32:x_name.obj
 0001:0003cf70       _X509_NAME_it              1003df70 f   libeay32:x_name.obj
 0001:0003cf80       _X509_NAME_new             1003df80 f   libeay32:x_name.obj
 0001:0003d0b0       _i2d_X509_NAME             1003e0b0 f   libeay32:x_name.obj
 0001:0003d450       _X509_CINF_it              1003e450 f   libeay32:x_x509.obj
 0001:0003d560       _X509_free                 1003e560 f   libeay32:x_x509.obj
 0001:0003d580       _X509_it                   1003e580 f   libeay32:x_x509.obj
 0001:0003d590       _X509_REVOKED_it           1003e590 f   libeay32:x_crl.obj
 0001:0003d5a0       _X509_CRL_INFO_it          1003e5a0 f   libeay32:x_crl.obj
 0001:0003d960       _X509_CRL_it               1003e960 f   libeay32:x_crl.obj
 0001:0003db90       _X509_NAME_oneline         1003eb90 f   libeay32:x509_obj.obj
 0001:0003df10       _CMS_dataFinal             1003ef10 f   libeay32:cms_lib.obj
 0001:0003e050       _CMS_dataInit              1003f050 f   libeay32:cms_lib.obj
 0001:0003e170       _CMS_get0_content          1003f170 f   libeay32:cms_lib.obj
 0001:0003e220       _cms_DigestAlgorithm_find_ctx 1003f220 f   libeay32:cms_lib.obj
 0001:0003e2f0       _cms_DigestAlgorithm_init_bio 1003f2f0 f   libeay32:cms_lib.obj
 0001:0003e3b0       _AES_set_decrypt_key       1003f3b0 f   libeay32:aes_misc.obj
 0001:0003e3c0       _AES_set_encrypt_key       1003f3c0 f   libeay32:aes_misc.obj
 0001:0003e3d0       _AES_wrap_key              1003f3d0 f   libeay32:aes_wrap.obj
 0001:0003e400       _cms_EncryptedContent_init_bio 1003f400 f   libeay32:cms_enc.obj
 0001:0003e770       _cms_EncryptedData_init_bio 1003f770 f   libeay32:cms_enc.obj
 0001:0003e7a0       _cms_RecipientInfo_pwri_crypt 1003f7a0 f   libeay32:cms_pwri.obj
 0001:0003ed30       _ASN1_TIME_adj             1003fd30 f   libeay32:a_time.obj
 0001:0003ee10       _ASN1_TIME_check           1003fe10 f   libeay32:a_time.obj
 0001:0003ee40       _ASN1_TIME_free            1003fe40 f   libeay32:a_time.obj
 0001:0003ee60       _ASN1_TIME_it              1003fe60 f   libeay32:a_time.obj
 0001:0003ee70       _EVP_SignFinal             1003fe70 f   libeay32:p_sign.obj
 0001:0003f040       _X509_gmtime_adj           10040040 f   libeay32:x509_vfy.obj
 0001:0003f380       _X509_check_akid           10040380 f   libeay32:v3_purp.obj
 0001:0003f440       _X509_check_purpose        10040440 f   libeay32:v3_purp.obj
 0001:0003faa0       _CMS_signed_add1_attr_by_NID 10040aa0 f   libeay32:cms_att.obj
 0001:0003fad0       _CMS_signed_get_attr_by_NID 10040ad0 f   libeay32:cms_att.obj
 0001:0003faf0       _CMS_signed_get_attr_count 10040af0 f   libeay32:cms_att.obj
 0001:0003fb00       _ENGINE_get_cipher         10040b00 f   libeay32:tb_cipher.obj
 0001:0003fb50       _ENGINE_get_cipher_engine  10040b50 f   libeay32:tb_cipher.obj
 0001:000400e0       _EVP_des_ede3_wrap         100410e0 f   libeay32:e_des3.obj
 0001:00041520       _EVP_aes_128_wrap          10042520 f   libeay32:e_aes.obj
 0001:00041530       _EVP_aes_192_wrap          10042530 f   libeay32:e_aes.obj
 0001:00041540       _EVP_aes_256_wrap          10042540 f   libeay32:e_aes.obj
 0001:000416a0       _EC_POINT_oct2point        100426a0 f   libeay32:ec_oct.obj
 0001:00041740       _EC_POINT_point2oct        10042740 f   libeay32:ec_oct.obj
 0001:000417e0       _EC_POINT_set_compressed_coordinates_GF2m 100427e0 f   libeay32:ec_oct.obj
 0001:00041880       _EC_POINT_set_compressed_coordinates_GFp 10042880 f   libeay32:ec_oct.obj
 0001:00041910       _CMS_stream                10042910 f   libeay32:cms_io.obj
 0001:00041970       _CONF_free                 10042970 f   libeay32:conf_lib.obj
 0001:000419b0       _CONF_get_section          100429b0 f   libeay32:conf_lib.obj
 0001:00041a30       _CONF_get_string           10042a30 f   libeay32:conf_lib.obj
 0001:00041ac0       _NCONF_get_section         10042ac0 f   libeay32:conf_lib.obj
 0001:00041b20       _NCONF_get_string          10042b20 f   libeay32:conf_lib.obj
 0001:00041b90       _DSO_convert_filename      10042b90 f   libeay32:dso_lib.obj
 0001:00041c70       _UTF8_getc                 10042c70 f   libeay32:a_utf8.obj
 0001:00041f30       _UTF8_putc                 10042f30 f   libeay32:a_utf8.obj
 0001:000420b0       _ASN1_tag2str              100430b0 f   libeay32:asn1_par.obj
 0001:000420e0       _ASN1_mbstring_copy        100430e0 f   libeay32:a_mbstr.obj
 0001:00042110       _ASN1_mbstring_ncopy       10043110 f   libeay32:a_mbstr.obj
 0001:000427c0       _X509_CRL_digest           100437c0 f   libeay32:x_all.obj
 0001:000427e0       _X509_digest               100437e0 f   libeay32:x_all.obj
 0001:00042830       _X509_REQ_INFO_it          10043830 f   libeay32:x_req.obj
 0001:00042840       _X509_ATTRIBUTE_set1_data  10043840 f   libeay32:x509_att.obj
 0001:000429a0       _X509at_add1_attr          100439a0 f   libeay32:x509_att.obj
 0001:00042a50       _X509at_add1_attr_by_NID   10043a50 f   libeay32:x509_att.obj
 0001:00042b10       _X509v3_get_ext_by_OBJ     10043b10 f   libeay32:x509_v3.obj
 0001:00042b10       _X509at_get_attr_by_OBJ    10043b10 f   libeay32:x509_att.obj
 0001:00042b70       _X509at_get_attr_count     10043b70 f   libeay32:x509_att.obj
 0001:00042b80       _ASN1_PRINTABLE_type       10043b80 f   libeay32:a_print.obj
 0001:00042c50       _ASN1_STRING_TABLE_get     10043c50 f   libeay32:a_strnid.obj
 0001:00042ce0       _ASN1_STRING_set_by_NID    10043ce0 f   libeay32:a_strnid.obj
 0001:00042d70       _X509_EXTENSION_get_critical 10043d70 f   libeay32:x509_v3.obj
 0001:00042d90       _X509v3_get_ext            10043d90 f   libeay32:x509_v3.obj
 0001:00042dc0       _X509v3_get_ext_by_NID     10043dc0 f   libeay32:x509_v3.obj
 0001:00042dc0       _X509at_get_attr_by_NID    10043dc0 f   libeay32:x509_att.obj
 0001:00042de0       _X509v3_get_ext_count      10043de0 f   libeay32:x509_v3.obj
 0001:00043060       _i2v_GENERAL_NAMES         10044060 f   libeay32:v3_alt.obj
 0001:00043340       _GENERAL_NAME_print        10044340 f   libeay32:v3_alt.obj
 0001:00043520       _a2i_GENERAL_NAME          10044520 f   libeay32:v3_alt.obj
 0001:00043ab0       _i2v_GENERAL_NAME          10044ab0 f   libeay32:v3_alt.obj
 0001:00043d40       _v2i_GENERAL_NAME          10044d40 f   libeay32:v3_alt.obj
 0001:00043d60       _v2i_GENERAL_NAMES         10044d60 f   libeay32:v3_alt.obj
 0001:00043df0       _v2i_GENERAL_NAME_ex       10044df0 f   libeay32:v3_alt.obj
 0001:00043f10       _BASIC_CONSTRAINTS_it      10044f10 f   libeay32:v3_bcons.obj
 0001:000440c0       _BASIC_CONSTRAINTS_free    100450c0 f   libeay32:v3_bcons.obj
 0001:000440e0       _v2i_ASN1_BIT_STRING       100450e0 f   libeay32:v3_bitst.obj
 0001:00044280       _i2v_ASN1_BIT_STRING       10045280 f   libeay32:v3_bitst.obj
 0001:00044420       _EXTENDED_KEY_USAGE_it     10045420 f   libeay32:v3_extku.obj
 0001:000444b0       _PKEY_USAGE_PERIOD_it      100454b0 f   libeay32:v3_pku.obj
 0001:000444c0       _SXNET_it                  100454c0 f   libeay32:v3_sxnet.obj
 0001:000444d0       _SXNETID_it                100454d0 f   libeay32:v3_sxnet.obj
 0001:00044620       _SXNET_add_id_INTEGER      10045620 f   libeay32:v3_sxnet.obj
 0001:000447b0       _SXNET_get_id_INTEGER      100457b0 f   libeay32:v3_sxnet.obj
 0001:00044a70       _i2s_ASN1_OCTET_STRING     10045a70 f   libeay32:v3_skey.obj
 0001:00044a90       _s2i_ASN1_OCTET_STRING     10045a90 f   libeay32:v3_skey.obj
 0001:00044ee0       _i2s_ASN1_ENUMERATED_TABLE 10045ee0 f   libeay32:v3_enum.obj
 0001:00045680       _CERTIFICATEPOLICIES_it    10046680 f   libeay32:v3_cpols.obj
 0001:00045690       _POLICYINFO_it             10046690 f   libeay32:v3_cpols.obj
 0001:000456a0       _POLICYQUALINFO_it         100466a0 f   libeay32:v3_cpols.obj
 0001:000456b0       _USERNOTICE_it             100466b0 f   libeay32:v3_cpols.obj
 0001:000456c0       _NOTICEREF_it              100466c0 f   libeay32:v3_cpols.obj
 0001:000456d0       _POLICYINFO_free           100466d0 f   libeay32:v3_cpols.obj
 0001:000456f0       _POLICYQUALINFO_free       100466f0 f   libeay32:v3_cpols.obj
 0001:000461f0       _CRL_DIST_POINTS_it        100471f0 f   libeay32:v3_crld.obj
 0001:00046200       _DIST_POINT_it             10047200 f   libeay32:v3_crld.obj
 0001:00046210       _DIST_POINT_NAME_it        10047210 f   libeay32:v3_crld.obj
 0001:00046220       _ISSUING_DIST_POINT_it     10047220 f   libeay32:v3_crld.obj
 0001:00046550       _CRL_DIST_POINTS_free      10047550 f   libeay32:v3_crld.obj
 0001:00046570       _DIST_POINT_free           10047570 f   libeay32:v3_crld.obj
 0001:00046590       _DIST_POINT_set_dpname     10047590 f   libeay32:v3_crld.obj
 0001:00046640       _ISSUING_DIST_POINT_free   10047640 f   libeay32:v3_crld.obj
 0001:00047800       _POLICY_MAPPING_it         10048800 f   libeay32:v3_pmaps.obj
 0001:00047810       _POLICY_MAPPINGS_it        10048810 f   libeay32:v3_pmaps.obj
 0001:00047820       _POLICY_MAPPING_free       10048820 f   libeay32:v3_pmaps.obj
 0001:00047a00       _POLICY_CONSTRAINTS_it     10048a00 f   libeay32:v3_pcons.obj
 0001:00047be0       _GENERAL_SUBTREE_it        10048be0 f   libeay32:v3_ncons.obj
 0001:00047bf0       _NAME_CONSTRAINTS_it       10048bf0 f   libeay32:v3_ncons.obj
 0001:00047c00       _NAME_CONSTRAINTS_free     10048c00 f   libeay32:v3_ncons.obj
 0001:00048370       _X509V3_get_section        10049370 f   libeay32:v3_conf.obj
 0001:000483b0       _X509V3_section_free       100493b0 f   libeay32:v3_conf.obj
 0001:000483d0       _BN_mod_exp2_mont          100493d0 f   libeay32:bn_exp2.obj
 0001:00048a70       _ec_GFp_mont_group_init    10049a70 f   libeay32:ecp_mont.obj
 0001:00048aa0       _ec_GFp_mont_group_set_curve 10049aa0 f   libeay32:ecp_mont.obj
 0001:00048be0       _ec_GFp_mont_group_finish  10049be0 f   libeay32:ecp_mont.obj
 0001:00048c30       _ec_GFp_mont_group_clear_finish 10049c30 f   libeay32:ecp_mont.obj
 0001:00048c80       _ec_GFp_mont_group_copy    10049c80 f   libeay32:ecp_mont.obj
 0001:00048d50       _ec_GFp_mont_field_mul     10049d50 f   libeay32:ecp_mont.obj
 0001:00048da0       _ec_GFp_mont_field_sqr     10049da0 f   libeay32:ecp_mont.obj
 0001:00048df0       _ec_GFp_mont_field_encode  10049df0 f   libeay32:ecp_mont.obj
 0001:00048e40       _ec_GFp_mont_field_decode  10049e40 f   libeay32:ecp_mont.obj
 0001:00048e90       _ec_GFp_mont_field_set_to_one 10049e90 f   libeay32:ecp_mont.obj
 0001:00048ed0       _EC_GFp_mont_method        10049ed0 f   libeay32:ecp_mont.obj
 0001:00048ee0       _ec_GFp_nist_group_copy    10049ee0 f   libeay32:ecp_nist.obj
 0001:00048f10       _ec_GFp_nist_group_set_curve 10049f10 f   libeay32:ecp_nist.obj
 0001:00049050       _ec_GFp_nist_field_mul     1004a050 f   libeay32:ecp_nist.obj
 0001:00049100       _ec_GFp_nist_field_sqr     1004a100 f   libeay32:ecp_nist.obj
 0001:000491a0       _EC_GFp_nist_method        1004a1a0 f   libeay32:ecp_nist.obj
 0001:000491b0       _ec_GF2m_simple_points_make_affine 1004a1b0 f   libeay32:ec2_smpl.obj
 0001:00049200       _ec_GF2m_simple_field_mul  1004a200 f   libeay32:ec2_smpl.obj
 0001:00049230       _ec_GF2m_simple_field_sqr  1004a230 f   libeay32:ec2_smpl.obj
 0001:00049250       _ec_GF2m_simple_field_div  1004a250 f   libeay32:ec2_smpl.obj
 0001:00049280       _ec_GF2m_simple_group_init 1004a280 f   libeay32:ec2_smpl.obj
 0001:000492b0       _ec_GF2m_simple_group_clear_finish 1004a2b0 f   libeay32:ec2_smpl.obj
 0001:00049310       _ec_GF2m_simple_group_copy 1004a310 f   libeay32:ec2_smpl.obj
 0001:00049430       _ec_GF2m_simple_group_set_curve 1004a430 f   libeay32:ec2_smpl.obj
 0001:00049560       _ec_GF2m_simple_group_get_curve 1004a560 f   libeay32:ec2_smpl.obj
 0001:000495d0       _ec_GF2m_simple_group_get_degree 1004a5d0 f   libeay32:ec2_smpl.obj
 0001:000495f0       _ec_GF2m_simple_group_check_discriminant 1004a5f0 f   libeay32:ec2_smpl.obj
 0001:00049690       _ec_GF2m_simple_point_init 1004a690 f   libeay32:ec2_smpl.obj
 0001:000496c0       _ec_GF2m_simple_point_clear_finish 1004a6c0 f   libeay32:ec2_smpl.obj
 0001:000496c0       _ec_GFp_simple_point_clear_finish 1004a6c0 f   libeay32:ecp_smpl.obj
 0001:000496f0       _ec_GFp_simple_point_set_to_infinity 1004a6f0 f   libeay32:ecp_smpl.obj
 0001:000496f0       _ec_GF2m_simple_point_set_to_infinity 1004a6f0 f   libeay32:ec2_smpl.obj
 0001:00049710       _ec_GF2m_simple_point_set_affine_coordinates 1004a710 f   libeay32:ec2_smpl.obj
 0001:000497b0       _ec_GF2m_simple_point_get_affine_coordinates 1004a7b0 f   libeay32:ec2_smpl.obj
 0001:00049880       _ec_GF2m_simple_add        1004a880 f   libeay32:ec2_smpl.obj
 0001:00049c00       _ec_GF2m_simple_dbl        1004ac00 f   libeay32:ec2_smpl.obj
 0001:00049c20       _ec_GF2m_simple_invert     1004ac20 f   libeay32:ec2_smpl.obj
 0001:00049c70       _ec_GF2m_simple_is_on_curve 1004ac70 f   libeay32:ec2_smpl.obj
 0001:00049de0       _ec_GF2m_simple_cmp        1004ade0 f   libeay32:ec2_smpl.obj
 0001:00049f60       _ec_GF2m_simple_make_affine 1004af60 f   libeay32:ec2_smpl.obj
 0001:0004a060       _EC_GF2m_simple_method     1004b060 f   libeay32:ec2_smpl.obj
 0001:0004a380       _ECDH_OpenSSL              1004b380 f   libeay32:ech_ossl.obj
 0001:0004a390       _ENGINE_get_default_ECDH   1004b390 f   libeay32:tb_ecdh.obj
 0001:0004a3a0       _PBE2PARAM_free            1004b3a0 f   libeay32:p5_pbev2.obj
 0001:0004a3c0       _PBKDF2PARAM_free          1004b3c0 f   libeay32:p5_pbev2.obj
 0001:0004a3e0       _d2i_PBE2PARAM             1004b3e0 f   libeay32:p5_pbev2.obj
 0001:0004a400       _d2i_PBKDF2PARAM           1004b400 f   libeay32:p5_pbev2.obj
 0001:0004a420       _PBEPARAM_free             1004b420 f   libeay32:p5_pbe.obj
 0001:0004a440       _d2i_PBEPARAM              1004b440 f   libeay32:p5_pbe.obj
 0001:0004a460       _PKCS12_key_gen_asc        1004b460 f   libeay32:p12_key.obj
 0001:0004a510       _PKCS12_key_gen_uni        1004b510 f   libeay32:p12_key.obj
 0001:0004a9a0       _PKCS7_SIGNER_INFO_sign    1004b9a0 f   libeay32:pk7_doit.obj
 0001:0004ab40       _PKCS7_add_signed_attribute 1004bb40 f   libeay32:pk7_doit.obj
 0001:0004ac00       _PKCS7_dataFinal           1004bc00 f   libeay32:pk7_doit.obj
 0001:0004b030       _PKCS7_dataInit            1004c030 f   libeay32:pk7_doit.obj
 0001:0004b900       _X509_VAL_it               1004c900 f   libeay32:x_val.obj
 0001:0004b910       _X509_CERT_AUX_free        1004c910 f   libeay32:x_x509a.obj
 0001:0004b930       _AUTHORITY_KEYID_free      1004c930 f   libeay32:v3_akeya.obj
 0001:0004b950       _AUTHORITY_KEYID_it        1004c950 f   libeay32:v3_akeya.obj
 0001:0004b960       _AUTHORITY_KEYID_new       1004c960 f   libeay32:v3_akeya.obj
 0001:0004b970       _policy_cache_free         1004c970 f   libeay32:pcy_cache.obj
 0001:0004b9b0       _ASN1_item_verify          1004c9b0 f   libeay32:a_verify.obj
 0001:0004bc20       _BIO_hex_string            1004cc20 f   libeay32:b_dump.obj
 0001:0004c140       _BIO_new_mem_buf           1004d140 f   libeay32:bss_mem.obj
 0001:0004c1b0       _BIO_s_mem                 1004d1b0 f   libeay32:bss_mem.obj
 0001:0004c1d0       ?sync@?$basic_streambuf@DU?$char_traits@D@std@@@std@@MAEHXZ 1004d1d0 f   libcpmt:cout.obj
 0001:0004c270       _BIO_s_null                1004d270 f   libeay32:bss_null.obj
 0001:0004c610       _BIO_f_md                  1004d610 f   libeay32:bio_md.obj
 0001:0004c620       _cms_DigestedData_do_final 1004d620 f   libeay32:cms_dd.obj
 0001:0004c770       _cms_DigestedData_init_bio 1004d770 f   libeay32:cms_dd.obj
 0001:0004c790       _AES_decrypt               1004d790 f   libeay32:aes_core.obj
 0001:0004cce0       _AES_encrypt               1004dce0 f   libeay32:aes_core.obj
 0001:0004d260       _private_AES_set_decrypt_key 1004e260 f   libeay32:aes_core.obj
 0001:0004d460       _private_AES_set_encrypt_key 1004e460 f   libeay32:aes_core.obj
 0001:0004d940       _CRYPTO_128_unwrap         1004e940 f   libeay32:wrap128.obj
 0001:0004dab0       _CRYPTO_128_wrap           1004eab0 f   libeay32:wrap128.obj
 0001:0004e1f0       _BIO_f_cipher              1004f1f0 f   libeay32:bio_enc.obj
 0001:0004e200       _OPENSSL_gmtime            1004f200 f   libeay32:o_time.obj
 0001:0004e230       _OPENSSL_gmtime_adj        1004f230 f   libeay32:o_time.obj
 0001:0004e520       _ASN1_UTCTIME_adj          1004f520 f   libeay32:a_utctm.obj
 0001:0004e670       _ASN1_UTCTIME_check        1004f670 f   libeay32:a_utctm.obj
 0001:0004e680       _asn1_utctime_to_tm        1004f680 f   libeay32:a_utctm.obj
 0001:0004e890       _ASN1_GENERALIZEDTIME_adj  1004f890 f   libeay32:a_gentm.obj
 0001:0004e9e0       _ASN1_GENERALIZEDTIME_check 1004f9e0 f   libeay32:a_gentm.obj
 0001:0004e9f0       _ASN1_GENERALIZEDTIME_set_string 1004f9f0 f   libeay32:a_gentm.obj
 0001:0004ea70       _asn1_generalizedtime_to_tm 1004fa70 f   libeay32:a_gentm.obj
 0001:0004ee10       _PROXY_POLICY_it           1004fe10 f   libeay32:v3_pcia.obj
 0001:0004ee20       _PROXY_CERT_INFO_EXTENSION_free 1004fe20 f   libeay32:v3_pcia.obj
 0001:0004ee40       _PROXY_CERT_INFO_EXTENSION_it 1004fe40 f   libeay32:v3_pcia.obj
 0001:0004ee50       _PROXY_CERT_INFO_EXTENSION_new 1004fe50 f   libeay32:v3_pcia.obj
 0001:0004ee60       _DES_ecb3_encrypt          1004fe60 f   libeay32:ecb3_enc.obj
 0001:0004ef20       _DES_decrypt3              1004ff20 f   libeay32:des_enc.obj
 0001:0004f030       _DES_ede3_cbc_encrypt      10050030 f   libeay32:des_enc.obj
 0001:0004f560       _DES_encrypt2              10050560 f   libeay32:des_enc.obj
 0001:0004f7e0       _DES_encrypt3              100507e0 f   libeay32:des_enc.obj
 0001:0004f8f0       _DES_ede3_cfb64_encrypt    100508f0 f   libeay32:cfb64ede.obj
 0001:0004fb20       _DES_ede3_cfb_encrypt      10050b20 f   libeay32:cfb64ede.obj
 0001:00050300       _DES_ede3_ofb64_encrypt    10051300 f   libeay32:ofb64ede.obj
 0001:00050500       _DES_set_key_unchecked     10051500 f   libeay32:set_key.obj
 0001:00050740       _DES_set_odd_parity        10051740 f   libeay32:set_key.obj
 0001:000507c0       _SHA1                      100517c0 f   libeay32:sha1_one.obj
 0001:00050850       _AES_cbc_encrypt           10051850 f   libeay32:aes_cbc.obj
 0001:00050880       _CRYPTO_cbc128_decrypt     10051880 f   libeay32:cbc128.obj
 0001:00050b30       _CRYPTO_cbc128_encrypt     10051b30 f   libeay32:cbc128.obj
 0001:00050cd0       _CRYPTO_ctr128_encrypt     10051cd0 f   libeay32:ctr128.obj
 0001:00050df0       _CRYPTO_ctr128_encrypt_ctr32 10051df0 f   libeay32:ctr128.obj
 0001:00050fe0       _CRYPTO_ofb128_encrypt     10051fe0 f   libeay32:ofb128.obj
 0001:00051100       _CRYPTO_cfb128_1_encrypt   10052100 f   libeay32:cfb128.obj
 0001:000512a0       _CRYPTO_cfb128_8_encrypt   100522a0 f   libeay32:cfb128.obj
 0001:00051340       _CRYPTO_cfb128_encrypt     10052340 f   libeay32:cfb128.obj
 0001:000515c0       _CRYPTO_gcm128_aad         100525c0 f   libeay32:gcm128.obj
 0001:00051690       _CRYPTO_gcm128_decrypt     10052690 f   libeay32:gcm128.obj
 0001:00051960       _CRYPTO_gcm128_decrypt_ctr32 10052960 f   libeay32:gcm128.obj
 0001:00051bd0       _CRYPTO_gcm128_encrypt     10052bd0 f   libeay32:gcm128.obj
 0001:00051eb0       _CRYPTO_gcm128_encrypt_ctr32 10052eb0 f   libeay32:gcm128.obj
 0001:00052130       _CRYPTO_gcm128_finish      10053130 f   libeay32:gcm128.obj
 0001:000522e0       _CRYPTO_gcm128_init        100532e0 f   libeay32:gcm128.obj
 0001:00052430       _CRYPTO_gcm128_setiv       10053430 f   libeay32:gcm128.obj
 0001:00052670       _CRYPTO_gcm128_tag         10053670 f   libeay32:gcm128.obj
 0001:00052e80       _CRYPTO_ccm128_aad         10053e80 f   libeay32:ccm128.obj
 0001:00052f30       _CRYPTO_ccm128_decrypt     10053f30 f   libeay32:ccm128.obj
 0001:00053160       _CRYPTO_ccm128_decrypt_ccm64 10054160 f   libeay32:ccm128.obj
 0001:00053320       _CRYPTO_ccm128_encrypt     10054320 f   libeay32:ccm128.obj
 0001:00053620       _CRYPTO_ccm128_encrypt_ccm64 10054620 f   libeay32:ccm128.obj
 0001:000538d0       _CRYPTO_ccm128_init        100548d0 f   libeay32:ccm128.obj
 0001:00053920       _CRYPTO_ccm128_setiv       10054920 f   libeay32:ccm128.obj
 0001:00053990       _CRYPTO_ccm128_tag         10054990 f   libeay32:ccm128.obj
 0001:00053a10       _CRYPTO_xts128_encrypt     10054a10 f   libeay32:xts128.obj
 0001:00053d60       _ec_GFp_simple_oct2point   10054d60 f   libeay32:ecp_oct.obj
 0001:00053fb0       _ec_GFp_simple_point2oct   10054fb0 f   libeay32:ecp_oct.obj
 0001:00054270       _ec_GFp_simple_set_compressed_coordinates 10055270 f   libeay32:ecp_oct.obj
 0001:000545b0       _ec_GF2m_simple_oct2point  100555b0 f   libeay32:ec2_oct.obj
 0001:00054860       _ec_GF2m_simple_point2oct  10055860 f   libeay32:ec2_oct.obj
 0001:00054b60       _ec_GF2m_simple_set_compressed_coordinates 10055b60 f   libeay32:ec2_oct.obj
 0001:00054d90       _fprintf                   10055d90 f i libeay32:pem_lib.obj
 0001:00055550       _NCONF_default             10056550 f   libeay32:conf_def.obj
 0001:00055b60       __CONF_add_string          10056b60 f   libeay32:conf_api.obj
 0001:00055bc0       __CONF_free_data           10056bc0 f   libeay32:conf_api.obj
 0001:00055c00       __CONF_get_section         10056c00 f   libeay32:conf_api.obj
 0001:00055c40       __CONF_get_section_values  10056c40 f   libeay32:conf_api.obj
 0001:00055c90       __CONF_get_string          10056c90 f   libeay32:conf_api.obj
 0001:00055d60       __CONF_new_data            10056d60 f   libeay32:conf_api.obj
 0001:00055da0       __CONF_new_section         10056da0 f   libeay32:conf_api.obj
 0001:00055fd0       _MD5_Final                 10056fd0 f   libeay32:md5_dgst.obj
 0001:000560f0       _MD5_Init                  100570f0 f   libeay32:md5_dgst.obj
 0001:00056130       _MD5_Update                10057130 f   libeay32:md5_dgst.obj
 0001:00056210       _md5_block_data_order      10057210 f   libeay32:md5_dgst.obj
 0001:00056b30       _NETSCAPE_SPKAC_it         10057b30 f   libeay32:x_spki.obj
 0001:00056b40       _ASN1_item_digest          10057b40 f   libeay32:a_digest.obj
 0001:00056bb0       _ASN1_generate_v3          10057bb0 f   libeay32:asn1_gen.obj
 0001:00057aa0       _OCSP_SIGNATURE_it         10058aa0 f   libeay32:ocsp_asn.obj
 0001:00057ab0       _OCSP_REQINFO_it           10058ab0 f   libeay32:ocsp_asn.obj
 0001:00057ac0       _OCSP_RESPID_it            10058ac0 f   libeay32:ocsp_asn.obj
 0001:00057ad0       _OCSP_SINGLERESP_it        10058ad0 f   libeay32:ocsp_asn.obj
 0001:00057ae0       _OCSP_CERTSTATUS_it        10058ae0 f   libeay32:ocsp_asn.obj
 0001:00057af0       _OCSP_REVOKEDINFO_it       10058af0 f   libeay32:ocsp_asn.obj
 0001:00057b00       _OCSP_RESPDATA_it          10058b00 f   libeay32:ocsp_asn.obj
 0001:00057b10       _OCSP_RESPBYTES_it         10058b10 f   libeay32:ocsp_asn.obj
 0001:00057b20       _OCSP_ONEREQ_it            10058b20 f   libeay32:ocsp_asn.obj
 0001:00057b30       _OCSP_CERTID_it            10058b30 f   libeay32:ocsp_asn.obj
 0001:00057b40       _OCSP_CRLID_it             10058b40 f   libeay32:ocsp_asn.obj
 0001:00057b50       _OCSP_SERVICELOC_it        10058b50 f   libeay32:ocsp_asn.obj
 0001:00057b60       _i2a_ASN1_STRING           10058b60 f   libeay32:f_string.obj
 0001:00057c40       _ec_GFp_simple_group_init  10058c40 f   libeay32:ecp_smpl.obj
 0001:00057c80       _ec_GF2m_simple_group_finish 10058c80 f   libeay32:ec2_smpl.obj
 0001:00057c80       _ec_GFp_simple_group_finish 10058c80 f   libeay32:ecp_smpl.obj
 0001:00057cb0       _ec_GFp_simple_group_clear_finish 10058cb0 f   libeay32:ecp_smpl.obj
 0001:00057ce0       _ec_GFp_simple_group_copy  10058ce0 f   libeay32:ecp_smpl.obj
 0001:00057d50       _ec_GFp_simple_group_set_curve 10058d50 f   libeay32:ecp_smpl.obj
 0001:00057ee0       _ec_GFp_simple_group_get_curve 10058ee0 f   libeay32:ecp_smpl.obj
 0001:00057fe0       _ec_GFp_simple_group_get_degree 10058fe0 f   libeay32:ecp_smpl.obj
 0001:00057ff0       _ec_GFp_simple_group_check_discriminant 10058ff0 f   libeay32:ecp_smpl.obj
 0001:000581d0       _ec_GFp_simple_point_init  100591d0 f   libeay32:ecp_smpl.obj
 0001:00058210       _ec_GF2m_simple_point_finish 10059210 f   libeay32:ec2_smpl.obj
 0001:00058210       _ec_GFp_simple_point_finish 10059210 f   libeay32:ecp_smpl.obj
 0001:00058240       _ec_GFp_simple_point_copy  10059240 f   libeay32:ecp_smpl.obj
 0001:00058240       _ec_GF2m_simple_point_copy 10059240 f   libeay32:ec2_smpl.obj
 0001:000582a0       _ec_GFp_simple_set_Jprojective_coordinates_GFp 100592a0 f   libeay32:ecp_smpl.obj
 0001:00058400       _ec_GFp_simple_get_Jprojective_coordinates_GFp 10059400 f   libeay32:ecp_smpl.obj
 0001:00058510       _ec_GFp_simple_point_set_affine_coordinates 10059510 f   libeay32:ecp_smpl.obj
 0001:00058560       _ec_GFp_simple_point_get_affine_coordinates 10059560 f   libeay32:ecp_smpl.obj
 0001:000587f0       _ec_GFp_simple_add         100597f0 f   libeay32:ecp_smpl.obj
 0001:00058d00       _ec_GFp_simple_dbl         10059d00 f   libeay32:ecp_smpl.obj
 0001:00059100       _ec_GFp_simple_invert      1005a100 f   libeay32:ecp_smpl.obj
 0001:00059140       _ec_GFp_simple_is_at_infinity 1005a140 f   libeay32:ecp_smpl.obj
 0001:00059140       _ec_GF2m_simple_is_at_infinity 1005a140 f   libeay32:ec2_smpl.obj
 0001:00059150       _ec_GFp_simple_is_on_curve 1005a150 f   libeay32:ecp_smpl.obj
 0001:000593d0       _ec_GFp_simple_cmp         1005a3d0 f   libeay32:ecp_smpl.obj
 0001:00059670       _ec_GFp_simple_make_affine 1005a670 f   libeay32:ecp_smpl.obj
 0001:00059760       _ec_GFp_simple_points_make_affine 1005a760 f   libeay32:ecp_smpl.obj
 0001:00059b50       _ec_GFp_simple_field_mul   1005ab50 f   libeay32:ecp_smpl.obj
 0001:00059b80       _ec_GFp_simple_field_sqr   1005ab80 f   libeay32:ecp_smpl.obj
 0001:00059ba0       _BN_get0_nist_prime_192    1005aba0 f   libeay32:bn_nist.obj
 0001:00059bb0       _BN_get0_nist_prime_224    1005abb0 f   libeay32:bn_nist.obj
 0001:00059bc0       _BN_get0_nist_prime_256    1005abc0 f   libeay32:bn_nist.obj
 0001:00059bd0       _BN_get0_nist_prime_384    1005abd0 f   libeay32:bn_nist.obj
 0001:00059be0       _BN_get0_nist_prime_521    1005abe0 f   libeay32:bn_nist.obj
 0001:00059bf0       _BN_nist_mod_192           1005abf0 f   libeay32:bn_nist.obj
 0001:00059eb0       _BN_nist_mod_224           1005aeb0 f   libeay32:bn_nist.obj
 0001:0005a1e0       _BN_nist_mod_256           1005b1e0 f   libeay32:bn_nist.obj
 0001:0005a5f0       _BN_nist_mod_384           1005b5f0 f   libeay32:bn_nist.obj
 0001:0005aa80       _BN_nist_mod_521           1005ba80 f   libeay32:bn_nist.obj
 0001:0005acd0       _ec_GF2m_have_precompute_mult 1005bcd0 f   libeay32:ec2_mult.obj
 0001:0005b070       _ec_GF2m_precompute_mult   1005c070 f   libeay32:ec2_mult.obj
 0001:0005b080       _ec_GF2m_simple_mul        1005c080 f   libeay32:ec2_mult.obj
 0001:0005b780       _BN_GF2m_add               1005c780 f   libeay32:bn_gf2m.obj
 0001:0005b830       _BN_GF2m_mod               1005c830 f   libeay32:bn_gf2m.obj
 0001:0005b8c0       _BN_GF2m_mod_arr           1005c8c0 f   libeay32:bn_gf2m.obj
 0001:0005bb20       _BN_GF2m_mod_div           1005cb20 f   libeay32:bn_gf2m.obj
 0001:0005bb90       _BN_GF2m_mod_exp_arr       1005cb90 f   libeay32:bn_gf2m.obj
 0001:0005bc90       _BN_GF2m_mod_inv           1005cc90 f   libeay32:bn_gf2m.obj
 0001:0005c200       _BN_GF2m_mod_mul           1005d200 f   libeay32:bn_gf2m.obj
 0001:0005c2a0       _BN_GF2m_mod_mul_arr       1005d2a0 f   libeay32:bn_gf2m.obj
 0001:0005c570       _BN_GF2m_mod_solve_quad_arr 1005d570 f   libeay32:bn_gf2m.obj
 0001:0005c8c0       _BN_GF2m_mod_sqr_arr       1005d8c0 f   libeay32:bn_gf2m.obj
 0001:0005ca20       _BN_GF2m_mod_sqrt_arr      1005da20 f   libeay32:bn_gf2m.obj
 0001:0005ca90       _BN_GF2m_poly2arr          1005da90 f   libeay32:bn_gf2m.obj
 0001:0005ccc0       _OPENSSL_asc2uni           1005dcc0 f   libeay32:p12_utl.obj
 0001:0005cd40       _PKCS7_add0_attrib_signing_time 1005dd40 f   libeay32:pk7_attr.obj
 0001:0005cd90       _PKCS7_add1_attrib_digest  1005dd90 f   libeay32:pk7_attr.obj
 0001:0005cde0       _policy_data_free          1005dde0 f   libeay32:pcy_data.obj
 0001:0005ce20       _BN_kronecker              1005de20 f   libeay32:bn_kron.obj
 0001:0005d0a0       _BN_mod_sqrt               1005e0a0 f   libeay32:bn_sqrt.obj
 0001:0005f210       _EVP_DecodeBlock           10060210 f   libeay32:encode.obj
 0001:0005f390       _EVP_DecodeInit            10060390 f   libeay32:encode.obj
 0001:0005f3b0       _EVP_DecodeUpdate          100603b0 f   libeay32:encode.obj
 0001:0005f550       _EVP_EncodeBlock           10060550 f   libeay32:encode.obj
 0001:0005f650       _EVP_EncodeFinal           10060650 f   libeay32:encode.obj
 0001:0005f6a0       _EVP_EncodeInit            100606a0 f   libeay32:encode.obj
 0001:0005f6c0       _EVP_EncodeUpdate          100606c0 f   libeay32:encode.obj
 0001:000605d0       _PKCS12_MAC_DATA_it        100615d0 f   libeay32:p12_asn.obj
 0001:000605e0       _PKCS12_SAFEBAG_it         100615e0 f   libeay32:p12_asn.obj
 0001:000605f0       _PKCS12_BAGS_it            100615f0 f   libeay32:p12_asn.obj
 0001:00060620       _UI_get0_action_string     10061620 f   libeay32:ui_lib.obj
 0001:00060640       _UI_get0_result_string     10061640 f   libeay32:ui_lib.obj
 0001:00060660       _UI_get0_test_string       10061660 f   libeay32:ui_lib.obj
 0001:00060680       _UI_get_input_flags        10061680 f   libeay32:ui_lib.obj
 0001:00060690       _UI_set_result             10061690 f   libeay32:ui_lib.obj
 0001:00060dfa       ??0_Init_locks@std@@QAE@XZ 10061dfa f   libcpmt:xlock.obj
 0001:00060e27       ??0_Lockit@std@@QAE@H@Z    10061e27 f   libcpmt:xlock.obj
 0001:00060e58       ??1_Init_locks@std@@QAE@XZ 10061e58 f   libcpmt:xlock.obj
 0001:00060e7f       ??1_Lockit@std@@QAE@XZ     10061e7f f   libcpmt:xlock.obj
 0001:00060e9e       ??$_Fgetc@D@std@@YA_NAADPAU_iobuf@@@Z 10061e9e f i libcpmt:cout.obj
 0001:00060ebe       ??$_Fputc@D@std@@YA_NDPAU_iobuf@@@Z 10061ebe f i libcpmt:cout.obj
 0001:00060eda       ??$_Ungetc@D@std@@YA_NABDPAU_iobuf@@@Z 10061eda f i libcpmt:cout.obj
 0001:00060ef8       ??$use_facet@V?$codecvt@DDU_Mbstatet@@@std@@@std@@YAABV?$codecvt@DDU_Mbstatet@@@0@ABVlocale@0@@Z 10061ef8 f i libcpmt:cout.obj
 0001:00060f95       ??0?$basic_ostream@DU?$char_traits@D@std@@@std@@QAE@PAV?$basic_streambuf@DU?$char_traits@D@std@@@1@_N@Z 10061f95 f i libcpmt:cout.obj
 0001:00060ffd       ??0?$basic_streambuf@DU?$char_traits@D@std@@@std@@IAE@XZ 10061ffd f i libcpmt:cout.obj
 0001:00061044       ??0?$fpos@U_Mbstatet@@@std@@QAE@U_Mbstatet@@_J@Z 10062044 f i libcpmt:cout.obj
 0001:0006106c       ??0_Init_cout@std@@QAE@XZ  1006206c f i libcpmt:cout.obj
 0001:000610c5       ??0bad_cast@std@@QAE@ABV01@@Z 100620c5 f i libcpmt:cout.obj
 0001:000610e0       ??0bad_cast@std@@QAE@XZ    100620e0 f i libcpmt:cout.obj
 0001:000610f8       ??0exception@std@@QAE@ABV01@@Z 100620f8 f i libcpmt:cout.obj
 0001:00061124       ??0exception@std@@QAE@QBD@Z 10062124 f i libcpmt:cout.obj
 0001:0006115b       ??1?$basic_filebuf@DU?$char_traits@D@std@@@std@@UAE@XZ 1006215b f i libcpmt:cout.obj
 0001:000611b5       ??1?$basic_ios@DU?$char_traits@D@std@@@std@@UAE@XZ 100621b5 f i libcpmt:cout.obj
 0001:000611f7       ??1?$basic_streambuf@DU?$char_traits@D@std@@@std@@UAE@XZ 100621f7 f i libcpmt:cout.obj
 0001:00061218       ??_D?$basic_ostream@DU?$char_traits@D@std@@@std@@QAEXXZ 10062218 f i libcpmt:cout.obj
 0001:00061278       ??_E?$basic_ostream@DU?$char_traits@D@std@@@std@@$4PPPPPPPM@A@AEPAXI@Z 10062278 f i libcpmt:cout.obj
 0001:00061280       ??_E?$basic_filebuf@DU?$char_traits@D@std@@@std@@UAEPAXI@Z 10062280 f i libcpmt:cout.obj
 0001:00061280       ??_G?$basic_filebuf@DU?$char_traits@D@std@@@std@@UAEPAXI@Z 10062280 f i libcpmt:cout.obj
 0001:000612a2       ??_G?$basic_ios@DU?$char_traits@D@std@@@std@@UAEPAXI@Z 100622a2 f i libcpmt:cout.obj
 0001:000612a2       ??_E?$basic_ios@DU?$char_traits@D@std@@@std@@UAEPAXI@Z 100622a2 f i libcpmt:cout.obj
 0001:000612fc       ??_E?$basic_ostream@DU?$char_traits@D@std@@@std@@UAEPAXI@Z 100622fc f i libcpmt:cout.obj
 0001:000612fc       ??_G?$basic_ostream@DU?$char_traits@D@std@@@std@@UAEPAXI@Z 100622fc f i libcpmt:cout.obj
 0001:00061321       ??_E?$basic_streambuf@DU?$char_traits@D@std@@@std@@UAEPAXI@Z 10062321 f i libcpmt:cout.obj
 0001:00061321       ??_G?$basic_streambuf@DU?$char_traits@D@std@@@std@@UAEPAXI@Z 10062321 f i libcpmt:cout.obj
 0001:00061343       ??_E?$codecvt@DDU_Mbstatet@@@std@@MAEPAXI@Z 10062343 f i libcpmt:cout.obj
 0001:00061343       ??_G?$codecvt@DDU_Mbstatet@@@std@@MAEPAXI@Z 10062343 f i libcpmt:cout.obj
 0001:00061366       ??_Eios_base@std@@UAEPAXI@Z 10062366 f i libcpmt:cout.obj
 0001:00061366       ??_Gios_base@std@@UAEPAXI@Z 10062366 f i libcpmt:cout.obj
 0001:000613c0       ?_Chassign@?$basic_string@DU?$char_traits@D@std@@V?$allocator@D@2@@std@@QAEXIID@Z 100623c0 f i libcpmt:cout.obj
 0001:00061400       ?_Endwrite@?$basic_filebuf@DU?$char_traits@D@std@@@std@@IAE_NXZ 10062400 f i libcpmt:cout.obj
 0001:0006151e       ?_Getcat@?$codecvt@DDU_Mbstatet@@@std@@SAIPAPBVfacet@locale@2@PBV42@@Z 1006251e f i libcpmt:cout.obj
 0001:00061586       ?_Init@?$basic_filebuf@DU?$char_traits@D@std@@@std@@IAEXPAU_iobuf@@W4_Initfl@12@@Z 10062586 f i libcpmt:cout.obj
 0001:00061604       ?_Init@?$basic_streambuf@DU?$char_traits@D@std@@@std@@IAEXXZ 10062604 f i libcpmt:cout.obj
 0001:00061648       ?_Init@ios_base@std@@IAEXXZ 10062648 f i libcpmt:cout.obj
 0001:000616ae       ?_Initcvt@?$basic_filebuf@DU?$char_traits@D@std@@@std@@IAEXPBV?$codecvt@DDU_Mbstatet@@@2@@Z 100626ae f i libcpmt:cout.obj
 0001:000616e4       ?_Lock@?$basic_filebuf@DU?$char_traits@D@std@@@std@@UAEXXZ 100626e4 f i libcpmt:cout.obj
 0001:000616f4       ?_Reset_back@?$basic_filebuf@DU?$char_traits@D@std@@@std@@AAEXXZ 100626f4 f i libcpmt:cout.obj
 0001:00061717       ?_Set_back@?$basic_filebuf@DU?$char_traits@D@std@@@std@@AAEXXZ 10062717 f i libcpmt:cout.obj
 0001:0006174d       ?_Unlock@?$basic_filebuf@DU?$char_traits@D@std@@@std@@UAEXXZ 1006274d f i libcpmt:cout.obj
 0001:0006175d       ?append@?$basic_string@DU?$char_traits@D@std@@V?$allocator@D@2@@std@@QAEAAV12@ID@Z 1006275d f i libcpmt:cout.obj
 0001:000617ba       ?assign@?$basic_string@DU?$char_traits@D@std@@V?$allocator@D@2@@std@@QAEAAV12@ID@Z 100627ba f i libcpmt:cout.obj
 0001:00061803       ?close@?$basic_filebuf@DU?$char_traits@D@std@@@std@@QAEPAV12@XZ 10062803 f i libcpmt:cout.obj
 0001:00061862       ?do_in@?$codecvt@DDU_Mbstatet@@@std@@MBEHAAU_Mbstatet@@PBD1AAPBDPAD3AAPAD@Z 10062862 f i libcpmt:cout.obj
 0001:00061862       ?do_out@?$codecvt@DDU_Mbstatet@@@std@@MBEHAAU_Mbstatet@@PBD1AAPBDPAD3AAPAD@Z 10062862 f i libcpmt:cout.obj
 0001:0006187c       ?do_length@?$codecvt@DDU_Mbstatet@@@std@@MBEHAAU_Mbstatet@@PBD1I@Z 1006287c f i libcpmt:cout.obj
 0001:00061894       ?do_unshift@?$codecvt@DDU_Mbstatet@@@std@@MBEHAAU_Mbstatet@@PAD1AAPAD@Z 10062894 f i libcpmt:cout.obj
 0001:000618a5       ?imbue@?$basic_filebuf@DU?$char_traits@D@std@@@std@@MAEXABVlocale@2@@Z 100628a5 f i libcpmt:cout.obj
 0001:000618c1       ?imbue@?$basic_streambuf@DU?$char_traits@D@std@@@std@@MAEXABVlocale@2@@Z 100628c1 f i libcpmt:cout.obj
 0001:000618c4       ?init@?$basic_ios@DU?$char_traits@D@std@@@std@@IAEXPAV?$basic_streambuf@DU?$char_traits@D@std@@@2@_N@Z 100628c4 f i libcpmt:cout.obj
 0001:0006190d       ?overflow@?$basic_filebuf@DU?$char_traits@D@std@@@std@@MAEHH@Z 1006290d f i libcpmt:cout.obj
 0001:00061aab       ?pbackfail@?$basic_streambuf@DU?$char_traits@D@std@@@std@@MAEHH@Z 10062aab f i libcpmt:cout.obj
 0001:00061aab       ?overflow@?$basic_streambuf@DU?$char_traits@D@std@@@std@@MAEHH@Z 10062aab f i libcpmt:cout.obj
 0001:00061ab1       ?pbackfail@?$basic_filebuf@DU?$char_traits@D@std@@@std@@MAEHH@Z 10062ab1 f i libcpmt:cout.obj
 0001:00061b38       ?seekoff@?$basic_filebuf@DU?$char_traits@D@std@@@std@@MAE?AV?$fpos@U_Mbstatet@@@2@_JHH@Z 10062b38 f i libcpmt:cout.obj
 0001:00061bf9       ?seekoff@?$basic_streambuf@DU?$char_traits@D@std@@@std@@MAE?AV?$fpos@U_Mbstatet@@@2@_JHH@Z 10062bf9 f i libcpmt:cout.obj
 0001:00061c23       ?seekpos@?$basic_filebuf@DU?$char_traits@D@std@@@std@@MAE?AV?$fpos@U_Mbstatet@@@2@V32@H@Z 10062c23 f i libcpmt:cout.obj
 0001:00061ce3       ?seekpos@?$basic_streambuf@DU?$char_traits@D@std@@@std@@MAE?AV?$fpos@U_Mbstatet@@@2@V32@H@Z 10062ce3 f i libcpmt:cout.obj
 0001:00061d0d       ?setbuf@?$basic_filebuf@DU?$char_traits@D@std@@@std@@MAEPAV?$basic_streambuf@DU?$char_traits@D@std@@@2@PAD_J@Z 10062d0d f i libcpmt:cout.obj
 0001:00061d5b       ?setbuf@?$basic_streambuf@DU?$char_traits@D@std@@@std@@MAEPAV12@PAD_J@Z 10062d5b f i libcpmt:cout.obj
 0001:00061d60       ?showmanyc@?$basic_streambuf@DU?$char_traits@D@std@@@std@@MAE_JXZ 10062d60 f i libcpmt:cout.obj
 0001:00061d65       ?sync@?$basic_filebuf@DU?$char_traits@D@std@@@std@@MAEHXZ 10062d65 f i libcpmt:cout.obj
 0001:00061d9d       ?uflow@?$basic_filebuf@DU?$char_traits@D@std@@@std@@MAEHXZ 10062d9d f i libcpmt:cout.obj
 0001:00061f3c       ?uflow@?$basic_streambuf@DU?$char_traits@D@std@@@std@@MAEHXZ 10062f3c f i libcpmt:cout.obj
 0001:00061f6e       ?underflow@?$basic_filebuf@DU?$char_traits@D@std@@@std@@MAEHXZ 10062f6e f i libcpmt:cout.obj
 0001:00061fbc       ?underflow@?$basic_streambuf@DU?$char_traits@D@std@@@std@@MAEHXZ 10062fbc f i libcpmt:cout.obj
 0001:00061fc0       ?what@exception@std@@UBEPBDXZ 10062fc0 f i libcpmt:cout.obj
 0001:00061fcd       ?xsgetn@?$basic_streambuf@DU?$char_traits@D@std@@@std@@MAE_JPAD_J@Z 10062fcd f i libcpmt:cout.obj
 0001:000620c6       ?xsputn@?$basic_streambuf@DU?$char_traits@D@std@@@std@@MAE_JPBD_J@Z 100630c6 f i libcpmt:cout.obj
 0001:00062240       ??0_Locimp@locale@std@@AAE@_N@Z 10063240 f i libcpmt:locale0.obj
 0001:00062283       ??1_Fac_node@std@@QAE@XZ   10063283 f i libcpmt:locale0.obj
 0001:000622e2       ??1_Fac_tidy_reg_t@std@@QAE@XZ 100632e2 f i libcpmt:locale0.obj
 0001:00062309       ??1_Locimp@locale@std@@MAE@XZ 10063309 f i libcpmt:locale0.obj
 0001:00062364       ??4?$_Yarn@D@std@@QAEAAV01@PBD@Z 10063364 f i libcpmt:locale0.obj
 0001:000623b8       ??_E_Locimp@locale@std@@MAEPAXI@Z 100633b8 f i libcpmt:locale0.obj
 0001:000623b8       ??_G_Locimp@locale@std@@MAEPAXI@Z 100633b8 f i libcpmt:locale0.obj
 0001:000623da       ?_Facet_Register@std@@YAXPAV_Facet_base@1@@Z 100633da f   libcpmt:locale0.obj
 0001:00062408       ?_Getgloballocale@locale@std@@CAPAV_Locimp@12@XZ 10063408 f   libcpmt:locale0.obj
 0001:0006240e       ?_Init@locale@std@@CAPAV_Locimp@12@_N@Z 1006340e f   libcpmt:locale0.obj
 0001:0006249c       ?_Locimp_dtor@_Locimp@locale@std@@CAXPAV123@@Z 1006349c f   libcpmt:locale0.obj
 0001:00062511       ?_Locinfo_ctor@_Locinfo@std@@SAXPAV12@PBD@Z 10063511 f   libcpmt:locale0.obj
 0001:0006255c       ?_Locinfo_dtor@_Locinfo@std@@SAXPAV12@@Z 1006355c f   libcpmt:locale0.obj
 0001:0006257e       ?_New_Locimp@_Locimp@locale@std@@CAPAV123@_N@Z 1006357e f   libcpmt:locale0.obj
 0001:000625a3       ?_Setgloballocale@locale@std@@CAXPAX@Z 100635a3 f   libcpmt:locale0.obj
 0001:000625cb       __Deletegloballocale       100635cb f   libcpmt:locale0.obj
 0001:00062630       ??0bad_alloc@std@@QAE@ABV01@@Z 10063630 f i libcpmt:xthrow.obj
 0001:0006264b       ??0bad_alloc@std@@QAE@XZ   1006364b f i libcpmt:xthrow.obj
 0001:00062663       ??0length_error@std@@QAE@ABV01@@Z 10063663 f i libcpmt:xthrow.obj
 0001:0006267e       ??0length_error@std@@QAE@PBD@Z 1006367e f i libcpmt:xthrow.obj
 0001:0006269f       ??0logic_error@std@@QAE@ABV01@@Z 1006369f f i libcpmt:xthrow.obj
 0001:000626ba       ??0out_of_range@std@@QAE@ABV01@@Z 100636ba f i libcpmt:xthrow.obj
 0001:000626d5       ??0out_of_range@std@@QAE@PBD@Z 100636d5 f i libcpmt:xthrow.obj
 0001:000626f6       ?_Xlength_error@std@@YAXPBD@Z 100636f6 f   libcpmt:xthrow.obj
 0001:00062716       ?_Xout_of_range@std@@YAXPBD@Z 10063716 f   libcpmt:xthrow.obj
 0001:00062736       ?_Syserror_map@std@@YAPBDH@Z 10063736 f   libcpmt:syserror.obj
 0001:0006275b       __Getctype                 1006375b f   libcpmt:_tolower.obj
 0001:000627c6       __Tolower                  100637c6 f   libcpmt:_tolower.obj
 0001:000628c0       __Toupper                  100638c0 f   libcpmt:_toupper.obj
 0001:000629ba       __Mtxdst                   100639ba f   libcpmt:xmtx.obj
 0001:000629c8       __Mtxinit                  100639c8 f   libcpmt:xmtx.obj
 0001:000629df       __Mtxlock                  100639df f   libcpmt:xmtx.obj
 0001:000629ed       __Mtxunlock                100639ed f   libcpmt:xmtx.obj
 0001:000629fb       ?_Addstd@ios_base@std@@SAXPAV12@@Z 100639fb f   libcpmt:ios.obj
 0001:00062a4c       ?_Callfns@ios_base@std@@AAEXW4event@12@@Z 10063a4c f i libcpmt:ios.obj
 0001:00062a7e       ?_Ios_base_dtor@ios_base@std@@CAXPAV12@@Z 10063a7e f   libcpmt:ios.obj
 0001:00062abe       ?_Tidy@ios_base@std@@AAEXXZ 10063abe f i libcpmt:ios.obj
 0001:00062b06       ??1_Init_atexit@@QAE@XZ    10063b06 f i libcpmt:iosptrs.obj
 0001:00062b6a       ?_Atexit@@YAXP6AXXZ@Z      10063b6a f   libcpmt:iosptrs.obj
 0001:00062b98       ___crtLCMapStringA         10063b98 f   libcpmt:StlLCMapStringA.obj
 0001:00062d9b       __freea_crt                10063d9b f i libcpmt:StlLCMapStringA.obj
 0001:00063166       ___crtInitializeCriticalSectionEx 10064166 f   libcpmt:winapisupp.obj
 0001:0006319e       _GetTableIndexFromLocaleName 1006419e f   libcpmt:winapinls.obj
 0001:000631ec       ___crtDownlevelLocaleNameToLCID 100641ec f   libcpmt:winapinls.obj
 0001:00063216       ___crtLCMapStringEx        10064216 f   libcpmt:winapinls.obj
 0001:0006326c       ___wcsnicmp_ascii          1006426c f   libcpmt:winapinls.obj
 0001:000632df       @__security_check_cookie@4 100642df f   LIBCMT:_secchk_.obj
 0001:000632f0       ??_V@YAXPAX@Z              100642f0 f   LIBCMT:delete_array.obj
 0001:000633d1       __Init_thread_footer       100643d1 f   LIBCMT:thread_safe_statics.obj
 0001:00063410       __Init_thread_header       10064410 f   LIBCMT:thread_safe_statics.obj
 0001:00063456       __Init_thread_lock         10064456 f   LIBCMT:thread_safe_statics.obj
 0001:00063462       __Init_thread_notify       10064462 f   LIBCMT:thread_safe_statics.obj
 0001:000634a3       __Init_thread_unlock       100644a3 f   LIBCMT:thread_safe_statics.obj
 0001:000634af       __Init_thread_wait         100644af f   LIBCMT:thread_safe_statics.obj
 0001:00063514       ??2@YAPAXI@Z               10064514 f   LIBCMT:new_scalar.obj
 0001:0006358b       ___scrt_acquire_startup_lock 1006458b f   LIBCMT:utility.obj
 0001:000635c0       ___scrt_dllmain_after_initialize_c 100645c0 f   LIBCMT:utility.obj
 0001:000635eb       ___scrt_dllmain_before_initialize_c 100645eb f   LIBCMT:utility.obj
 0001:000635f9       ___scrt_dllmain_crt_thread_attach 100645f9 f   LIBCMT:utility.obj
 0001:00063618       ___scrt_dllmain_crt_thread_detach 10064618 f   LIBCMT:utility.obj
 0001:00063625       ___scrt_dllmain_exception_filter 10064625 f   LIBCMT:utility.obj
 0001:00063658       ___scrt_dllmain_uninitialize_c 10064658 f   LIBCMT:utility.obj
 0001:0006367b       ___scrt_dllmain_uninitialize_critical 1006467b f   LIBCMT:utility.obj
 0001:00063688       ___scrt_initialize_crt     10064688 f   LIBCMT:utility.obj
 0001:000636c1       ___scrt_initialize_onexit_tables 100646c1 f   LIBCMT:utility.obj
 0001:00063758       ___scrt_is_nonwritable_in_current_image 10064758 f   LIBCMT:utility.obj
 0001:000637e2       ___scrt_release_startup_lock 100647e2 f   LIBCMT:utility.obj
 0001:000637ff       ___scrt_uninitialize_crt   100647ff f   LIBCMT:utility.obj
 0001:00063827       __onexit                   10064827 f   LIBCMT:utility.obj
 0001:00063862       _atexit                    10064862 f   LIBCMT:utility.obj
 0001:00063877       ??3@YAXPAX@Z               10064877 f   LIBCMT:delete_scalar.obj
 0001:0006387c       ??3@YAXPAXI@Z              1006487c f   LIBCMT:delete_scalar_size.obj
 0001:0006388a       ___raise_securityfailure   1006488a f   LIBCMT:gs_report.obj
 0001:000638b2       ___report_gsfailure        100648b2 f   LIBCMT:gs_report.obj
 0001:000639ad       ___report_rangecheckfailure 100649ad f   LIBCMT:gs_report.obj
 0001:000639b9       ___report_securityfailure  100649b9 f   LIBCMT:gs_report.obj
 0001:00063a89       ??_U@YAPAXI@Z              10064a89 f   LIBCMT:new_array.obj
 0001:00063d9a       __DllMainCRTStartup@12     10064d9a f   LIBCMT:dll_dllmain.obj
 0001:00063dc0       __alloca_probe             10064dc0 f   LIBCMT:chkstk.obj
 0001:00063dc0       __chkstk                   10064dc0 f   LIBCMT:chkstk.obj
 0001:00063df0       __alloca_probe_16          10064df0 f   LIBCMT:alloca16.obj
 0001:00063e06       __alloca_probe_8           10064e06     LIBCMT:alloca16.obj
 0001:00063e20       __aulldvrm                 10064e20 f   LIBCMT:ulldvrm.obj
 0001:00063ec0       __aullrem                  10064ec0 f   LIBCMT:ullrem.obj
 0001:00063f40       __aulldiv                  10064f40 f   LIBCMT:ulldiv.obj
 0001:00063fb0       __aullshr                  10064fb0 f   LIBCMT:ullshr.obj
 0001:00063fd0       __allmul                   10064fd0 f   LIBCMT:llmul.obj
 0001:00064004       @_guard_check_icall@4      10065004 f i LIBCMT:checkcfg.obj
 0001:0006400a       __EH_epilog3               1006500a f   LIBCMT:ehprolg3.obj
 0001:0006401f       __EH_epilog3_GS            1006501f f   LIBCMT:ehprolg3.obj
 0001:00064030       __EH_prolog3               10065030 f   LIBCMT:ehprolg3.obj
 0001:00064064       __EH_prolog3_GS            10065064 f   LIBCMT:ehprolg3.obj
 0001:0006409b       __EH_prolog3_catch         1006509b f   LIBCMT:ehprolg3.obj
 0001:000640d2       ??_Gtype_info@@UAEPAXI@Z   100650d2 f i LIBCMT:std_type_info_static.obj
 0001:000640d2       ??_Etype_info@@UAEPAXI@Z   100650d2 f i LIBCMT:std_type_info_static.obj
 0001:000640f5       ___scrt_fastfail           100650f5 f   LIBCMT:utility_desktop.obj
 0001:00064210       __crt_debugger_hook        10065210 f   LIBCMT:utility_desktop.obj
 0001:00064218       ??0bad_array_new_length@std@@QAE@ABV01@@Z 10065218 f i LIBCMT:throw_bad_alloc.obj
 0001:00064233       ??0bad_array_new_length@std@@QAE@XZ 10065233 f i LIBCMT:throw_bad_alloc.obj
 0001:0006424b       ??1bad_array_new_length@std@@UAE@XZ 1006524b f i LIBCMT:throw_bad_alloc.obj
 0001:0006424b       ??1bad_alloc@std@@UAE@XZ   1006524b f i libcpmt:xthrow.obj
 0001:0006424b       ??1bad_cast@std@@UAE@XZ    1006524b f i libcpmt:cout.obj
 0001:0006424b       ??1length_error@std@@UAE@XZ 1006524b f i libcpmt:xthrow.obj
 0001:0006424b       ??1out_of_range@std@@UAE@XZ 1006524b f i libcpmt:xthrow.obj
 0001:0006424b       ??1bad_exception@std@@UAE@XZ 1006524b f i libvcruntime:frame.obj
 0001:0006425c       ??_Elength_error@std@@UAEPAXI@Z 1006525c f i libcpmt:xthrow.obj
 0001:0006425c       ??_Gexception@std@@UAEPAXI@Z 1006525c f i libcpmt:cout.obj
 0001:0006425c       ??_Ebad_alloc@std@@UAEPAXI@Z 1006525c f i libcpmt:xthrow.obj
 0001:0006425c       ??_Gbad_array_new_length@std@@UAEPAXI@Z 1006525c f i LIBCMT:throw_bad_alloc.obj
 0001:0006425c       ??_Ebad_cast@std@@UAEPAXI@Z 1006525c f i libcpmt:cout.obj
 0001:0006425c       ??_Glogic_error@std@@UAEPAXI@Z 1006525c f i libcpmt:xthrow.obj
 0001:0006425c       ??_Ebad_exception@std@@UAEPAXI@Z 1006525c f i libvcruntime:frame.obj
 0001:0006425c       ??_Gbad_alloc@std@@UAEPAXI@Z 1006525c f i libcpmt:xthrow.obj
 0001:0006425c       ??_Gbad_cast@std@@UAEPAXI@Z 1006525c f i libcpmt:cout.obj
 0001:0006425c       ??_Glength_error@std@@UAEPAXI@Z 1006525c f i libcpmt:xthrow.obj
 0001:0006425c       ??_Eexception@std@@UAEPAXI@Z 1006525c f i libcpmt:cout.obj
 0001:0006425c       ??_Eout_of_range@std@@UAEPAXI@Z 1006525c f i libcpmt:xthrow.obj
 0001:0006425c       ??_Ebad_array_new_length@std@@UAEPAXI@Z 1006525c f i LIBCMT:throw_bad_alloc.obj
 0001:0006425c       ??_Gout_of_range@std@@UAEPAXI@Z 1006525c f i libcpmt:xthrow.obj
 0001:0006425c       ??_Gbad_exception@std@@UAEPAXI@Z 1006525c f i libvcruntime:frame.obj
 0001:0006425c       ??_Elogic_error@std@@UAEPAXI@Z 1006525c f i libcpmt:xthrow.obj
 0001:00064289       ?_Xbad_alloc@std@@YAXXZ    10065289 f   libcpmt:xthrow.obj
 0001:00064289       ?__scrt_throw_std_bad_alloc@@YAXXZ 10065289 f   LIBCMT:throw_bad_alloc.obj
 0001:000642a6       ?__scrt_throw_std_bad_array_new_length@@YAXXZ 100652a6 f   LIBCMT:throw_bad_alloc.obj
 0001:000642c3       ___isa_available_init      100652c3 f   LIBCMT:_cpu_disp_.obj
 0001:0006445d       ?do_encoding@codecvt_base@std@@MBEHXZ 1006545d f   libcpmt:cout.obj
 0001:0006445d       ?do_max_length@codecvt_base@std@@MBEHXZ 1006545d f   libcpmt:cout.obj
 0001:0006445d       __get_startup_argv_mode    1006545d f   LIBCMT:argv_mode.obj
 0001:00064461       ___scrt_is_ucrt_dll_in_use 10065461 f   LIBCMT:ucrt_detection.obj
 0001:00064470       __SEH_prolog4              10065470 f   LIBCMT:_sehprolg4_.obj
 0001:000644b6       __SEH_epilog4              100654b6 f   LIBCMT:_sehprolg4_.obj
 0001:000644cb       ___security_init_cookie    100654cb f   LIBCMT:gs_support.obj
 0001:00064567       _DllMain@12                10065567 f   LIBCMT:dll_dllmain_stub.obj
 0001:0006456d       ?__scrt_initialize_type_info@@YAXXZ 1006556d f   LIBCMT:tncleanup.obj
 0001:00064579       ?__scrt_uninitialize_type_info@@YAXXZ 10065579 f   LIBCMT:tncleanup.obj
 0001:00064585       ___scrt_initialize_default_local_stdio_options 10065585 f   LIBCMT:default_local_stdio_options.obj
 0001:000645a2       ___scrt_get_dyn_tls_init_callback 100655a2 f   LIBCMT:dyn_tls_init.obj
 0001:000645a8       __RTC_Initialize           100655a8 f   LIBCMT:_initsect_.obj
 0001:000645d3       __RTC_Terminate            100655d3 f   LIBCMT:_initsect_.obj
 0001:00064600       ?_com_issue_error@@YGXJ@Z  10065600 f   comsuppw:comsupp.obj
 0001:00064620       ?ConvertBSTRToString@_com_util@@YGPADPA_W@Z 10065620 f   comsuppw:comutil.obj
 0001:00064740       ?ConvertStringToBSTR@_com_util@@YGPA_WPBD@Z 10065740 f   comsuppw:comutil.obj
 0001:000648e0       ??0_com_error@@QAE@ABV0@@Z 100658e0 f i comsuppw:comraise.obj
 0001:00064920       ??0_com_error@@QAE@JPAUIErrorInfo@@_N@Z 10065920 f i comsuppw:comraise.obj
 0001:00064970       ??1_com_error@@UAE@XZ      10065970 f i comsuppw:comraise.obj
 0001:000649b0       ??_G_com_error@@UAEPAXI@Z  100659b0 f i comsuppw:comraise.obj
 0001:000649b0       ??_E_com_error@@UAEPAXI@Z  100659b0 f i comsuppw:comraise.obj
 0001:00064a00       ?_com_raise_error@@YGXJPAUIErrorInfo@@@Z 10065a00 f   comsuppw:comraise.obj
 0001:00064a30       _memmove                   10065a30 f   libvcruntime:memmove.obj
 0001:00064fa4       __get_purecall_handler     10065fa4 f   libvcruntime:purevirt.obj
 0001:00064fc3       __purecall                 10065fc3 f   libvcruntime:purevirt.obj
 0001:00064fe0       _memchr                    10065fe0 f   libvcruntime:memchr.obj
 0001:00065090       _memcpy                    10066090 f   libvcruntime:memcpy.obj
 0001:00065610       _memset                    10066610 f   libvcruntime:memset.obj
 0001:00065770       _strchr                    10066770 f   libvcruntime:strchr.obj
 0001:000657de       ___from_strstr_to_strchr   100667de     libvcruntime:strchr.obj
 0001:0006589b       _wcsstr                    1006689b f   libvcruntime:wcsstr.obj
 0001:00065b60       __except_handler4          10066b60 f   libvcruntime:_chandler4_.obj
 0001:00065cd0       _strrchr                   10066cd0 f   libvcruntime:strrchr.obj
 0001:00065e10       _strstr                    10066e10 f   libvcruntime:strstr.obj
 0001:00066073       ___DestructExceptionObject 10067073 f   libvcruntime:frame.obj
 0001:00066107       ??0bad_exception@std@@QAE@ABV01@@Z 10067107 f i libvcruntime:frame.obj
 0001:00066122       ??0bad_exception@std@@QAE@XZ 10067122 f i libvcruntime:frame.obj
 0001:00066953       ?_CallMemberFunction2@@YGXQAX00H@Z 10067953 f i libvcruntime:frame.obj
 0001:00066953       ?_CallMemberFunction0@@YGXQAX0@Z 10067953 f i libvcruntime:frame.obj
 0001:00066953       ?_CallMemberFunction1@@YGXQAX00@Z 10067953 f i libvcruntime:frame.obj
 0001:0006695a       ___AdjustPointer           1006795a f   libvcruntime:frame.obj
 0001:0006697f       ___BuildCatchObject        1006797f f   libvcruntime:frame.obj
 0001:00066a0e       ___BuildCatchObjectHelper  10067a0e f   libvcruntime:frame.obj
 0001:00066b3c       ___FrameUnwindFilter       10067b3c f   libvcruntime:frame.obj
 0001:00066b81       ___FrameUnwindToState      10067b81 f   libvcruntime:frame.obj
 0001:00066c49       ___InternalCxxFrameHandler 10067c49 f   libvcruntime:frame.obj
 0001:00066d45       ___TypeMatch               10067d45 f   libvcruntime:frame.obj
 0001:00066dd3       ___std_terminate           10067dd3 f   libvcruntime:frame.obj
 0001:00066dd8       ___std_exception_copy      10067dd8 f   libvcruntime:std_exception.obj
 0001:00066e3b       ___std_exception_destroy   10067e3b f   libvcruntime:std_exception.obj
 0001:00066e5a       __CxxThrowException@8      10067e5a f   libvcruntime:throw.obj
 0001:00066ec8       ?_CallCatchBlock2@@YAPAXPAUEHRegistrationNode@@PBU_s_FuncInfo@@PAXHK@Z 10067ec8 f   libvcruntime:trnsctrl.obj
 0001:00066f28       ?_CallSETranslator@@YAHPAUEHExceptionRecord@@PAUEHRegistrationNode@@PAX2PBU_s_FuncInfo@@H1@Z 10067f28 f   libvcruntime:trnsctrl.obj
 0001:00067005       ?_GetRangeOfTrysToCheck@@YAPBU_s_TryBlockMapEntry@@PBU_s_FuncInfo@@HHPAI1@Z 10068005 f   libvcruntime:trnsctrl.obj
 0001:0006707d       ?_JumpToContinuation@@YGXPAXPAUEHRegistrationNode@@@Z 1006807d f   libvcruntime:trnsctrl.obj
 0001:000670af       ?_UnwindNestedFrames@@YGXPAUEHRegistrationNode@@PAUEHExceptionRecord@@@Z 100680af f   libvcruntime:trnsctrl.obj
 0001:00067104       __CatchGuardHandler        10068104 f   libvcruntime:trnsctrl.obj
 0001:00067135       __CreateFrameInfo          10068135 f   libvcruntime:trnsctrl.obj
 0001:00067159       __FindAndUnlinkFrame       10068159 f   libvcruntime:trnsctrl.obj
 0001:000671a3       __IsExceptionObjectToBeDestroyed 100681a3 f   libvcruntime:trnsctrl.obj
 0001:000671c9       __TranslatorGuardHandler   100681c9 f   libvcruntime:trnsctrl.obj
 0001:00067268       ___CxxFrameHandler3        10068268 f   libvcruntime:trnsctrl.obj
 0001:0006729e       _memcmp                    1006829e f   libvcruntime:_memcmp_.obj
 0001:00068a1e       ??$__crt_fast_encode_pointer@PAP6AXXZ@@YAPAP6AXXZQAP6AXXZ@Z 10069a1e f i LIBCMT:utility.obj
 0001:00068a1e       ??$__crt_fast_encode_pointer@P6GHPAU_RTL_CONDITION_VARIABLE@@PAU_RTL_CRITICAL_SECTION@@K@Z@@YAP6GHPAU_RTL_CONDITION_VARIABLE@@PAU_RTL_CRITICAL_SECTION@@K@ZQ6GH01K@Z@Z 10069a1e f i LIBCMT:thread_safe_statics.obj
 0001:00068a1e       ??$__crt_fast_encode_pointer@P6GXPAU_RTL_CONDITION_VARIABLE@@@Z@@YAP6GXPAU_RTL_CONDITION_VARIABLE@@@ZQ6GX0@Z@Z 10069a1e f i LIBCMT:thread_safe_statics.obj
 0001:00068a1e       ??$__crt_fast_encode_pointer@PAX@@YAPAXQAX@Z 10069a1e f i libvcruntime:winapi_downlevel.obj
 0001:00068b5c       ___vcrt_FlsAlloc           10069b5c f   libvcruntime:winapi_downlevel.obj
 0001:00068b96       ___vcrt_FlsFree            10069b96 f   libvcruntime:winapi_downlevel.obj
 0001:00068bd0       ___vcrt_FlsGetValue        10069bd0 f   libvcruntime:winapi_downlevel.obj
 0001:00068c0a       ___vcrt_FlsSetValue        10069c0a f   libvcruntime:winapi_downlevel.obj
 0001:00068c47       ___vcrt_InitializeCriticalSectionEx 10069c47 f   libvcruntime:winapi_downlevel.obj
 0001:00068c8d       ___vcrt_initialize_winapi_thunks 10069c8d f   libvcruntime:winapi_downlevel.obj
 0001:00068cc7       ___vcrt_uninitialize_winapi_thunks 10069cc7 f   libvcruntime:winapi_downlevel.obj
 0001:00068cf9       ___vcrt_initialize         10069cf9 f   libvcruntime:initialization.obj
 0001:00068d22       ___vcrt_thread_attach      10069d22 f   libvcruntime:initialization.obj
 0001:00068d2d       ___vcrt_thread_detach      10069d2d f   libvcruntime:initialization.obj
 0001:00068d38       ___vcrt_uninitialize       10069d38 f   libvcruntime:initialization.obj
 0001:00068d57       ___vcrt_uninitialize_critical 10069d57 f   libvcruntime:initialization.obj
 0001:00068d5f       ___std_type_info_compare   10069d5f f   libvcruntime:std_type_info.obj
 0001:00068d9b       ___std_type_info_destroy_list 10069d9b f   libvcruntime:std_type_info.obj
 0001:00068dbe       ___vcrt_initialize_pure_virtual_call_handler 10069dbe f   libvcruntime:purevirt_data.obj
 0001:00068de0       __local_unwind4            10069de0 f   libvcruntime:_exsup4_.obj
 0001:00068eb6       __seh_longjmp_unwind4@4    10069eb6 f   libvcruntime:_exsup4_.obj
 0001:00068ede       @_EH4_CallFilterFunc@8     10069ede f   libvcruntime:_exsup4_.obj
 0001:00068ef5       @_EH4_TransferToHandler@8  10069ef5 f   libvcruntime:_exsup4_.obj
 0001:00068f0e       @_EH4_GlobalUnwind2@8      10069f0e f   libvcruntime:_exsup4_.obj
 0001:00068f27       @_EH4_LocalUnwind@16       10069f27 f   libvcruntime:_exsup4_.obj
 0001:00068f3e       _unexpected                10069f3e f   libvcruntime:unexpected.obj
 0001:00068f5a       ___vcrt_freefls@4          10069f5a f   libvcruntime:per_thread_data.obj
 0001:00068f76       ___vcrt_freeptd            10069f76 f   libvcruntime:per_thread_data.obj
 0001:00068fac       ___vcrt_getptd             10069fac f   libvcruntime:per_thread_data.obj
 0001:00068fba       ___vcrt_getptd_noexit      10069fba f   libvcruntime:per_thread_data.obj
 0001:0006904c       ___vcrt_initialize_ptd     1006a04c f   libvcruntime:per_thread_data.obj
 0001:0006907f       ___vcrt_uninitialize_ptd   1006a07f f   libvcruntime:per_thread_data.obj
 0001:000690a0       __CallSettingFrame@12      1006a0a0 f   libvcruntime:lowhelpr.obj
 0001:000690c7       __NLG_Return               1006a0c7     libvcruntime:lowhelpr.obj
 0001:000690ec       ___vcrt_initialize_locks   1006a0ec f   libvcruntime:locks.obj
 0001:00069128       ___vcrt_uninitialize_locks 1006a128 f   libvcruntime:locks.obj
 0001:00069160       __global_unwind2           1006a160 f   libvcruntime:_exsup_.obj
 0001:000691c5       __local_unwind2            1006a1c5 f   libvcruntime:_exsup_.obj
 0001:00069249       __abnormal_termination     1006a249 f   libvcruntime:_exsup_.obj
 0001:0006926c       __NLG_Notify1              1006a26c f   libvcruntime:_exsup_.obj
 0001:00069275       __NLG_Notify               1006a275 f   libvcruntime:_exsup_.obj
 0001:0006928c       __NLG_Dispatch             1006a28c     libvcruntime:_exsup_.obj
 0001:0006928c       __NLG_Dispatch2            1006a28c     libvcruntime:_exsup_.obj
 0001:00069294       __NLG_Call                 1006a294 f   libvcruntime:_exsup_.obj
 0001:00069296       __NLG_Return2              1006a296     libvcruntime:_exsup_.obj
 0001:00069297       _abort                     1006a297 f   libucrt:abort.obj
 0001:000692da       ___acrt_call_reportfault   1006a2da f   libucrt:invalid_parameter.obj
 0001:00069415       ___acrt_initialize_invalid_parameter_handler 1006a415 f   libucrt:invalid_parameter.obj
 0001:00069429       __invalid_parameter        1006a429 f   libucrt:invalid_parameter.obj
 0001:000694a4       __invalid_parameter_noinfo 1006a4a4 f   libucrt:invalid_parameter.obj
 0001:000694b4       __invalid_parameter_noinfo_noreturn 1006a4b4 f   libucrt:invalid_parameter.obj
 0001:000694d1       __invoke_watson            1006a4d1 f   libucrt:invalid_parameter.obj
 0001:00069504       ??$?RV<lambda_db08b09ef7aa9d4f8620ce68402612bc>@@AAV<lambda_4f2c1eaeead2a5fc776db5b62ea0fb9b>@@V<lambda_3ae262bc35d4ba6a3825c4f6bcaaf95c>@@@?$__crt_seh_guarded_call@H@@QAEH$$QAV<lambda_db08b09ef7aa9d4f8620ce68402612bc>@@AAV<lambda_4f2c1eaeead2a5fc776db5b62ea0fb9b>@@$$QAV<lambda_3ae262bc35d4ba6a3825c4f6bcaaf95c>@@@Z 1006a504 f i libucrt:output.obj
 0001:00069555       ??$__acrt_lock_stream_and_call@V<lambda_4f2c1eaeead2a5fc776db5b62ea0fb9b>@@@@YAHQAU_iobuf@@$$QAV<lambda_4f2c1eaeead2a5fc776db5b62ea0fb9b>@@@Z 1006a555 f i libucrt:output.obj
 0001:000696f9       ??$count@D@formatting_buffer@__crt_stdio_output@@QBEIXZ 1006a6f9 f i libucrt:output.obj
 0001:00069711       ??$ensure_buffer_is_big_enough@D@formatting_buffer@__crt_stdio_output@@QAE_NI@Z 1006a711 f i libucrt:output.obj
 0001:00069797       ??$is_wide_character_specifier@D@__crt_stdio_output@@YA_N_KDW4length_modifier@0@@Z 1006a797 f i libucrt:output.obj
 0001:000697d7       ??$scratch_data@D@formatting_buffer@__crt_stdio_output@@QAEPADXZ 1006a7d7 f i libucrt:output.obj
 0001:000697f5       ??$type_case_integer_parse_into_buffer@I@?$output_processor@DV?$string_output_adapter@D@__crt_stdio_output@@V?$standard_base@DV?$string_output_adapter@D@__crt_stdio_output@@@2@@__crt_stdio_output@@AAEXII_N@Z 1006a7f5 f i libucrt:output.obj
 0001:000697f5       ??$type_case_integer_parse_into_buffer@I@?$output_processor@DV?$stream_output_adapter@D@__crt_stdio_output@@V?$standard_base@DV?$stream_output_adapter@D@__crt_stdio_output@@@2@@__crt_stdio_output@@AAEXII_N@Z 1006a7f5 f i libucrt:output.obj
 0001:0006986a       ??$type_case_integer_parse_into_buffer@_K@?$output_processor@DV?$string_output_adapter@D@__crt_stdio_output@@V?$standard_base@DV?$string_output_adapter@D@__crt_stdio_output@@@2@@__crt_stdio_output@@AAEX_KI_N@Z 1006a86a f i libucrt:output.obj
 0001:0006986a       ??$type_case_integer_parse_into_buffer@_K@?$output_processor@DV?$stream_output_adapter@D@__crt_stdio_output@@V?$standard_base@DV?$stream_output_adapter@D@__crt_stdio_output@@@2@@__crt_stdio_output@@AAEX_KI_N@Z 1006a86a f i libucrt:output.obj
 0001:000698f2       ??$write_multiple_characters@V?$stream_output_adapter@D@__crt_stdio_output@@D@__crt_stdio_output@@YAXABV?$stream_output_adapter@D@0@DHQAH@Z 1006a8f2 f i libucrt:output.obj
 0001:0006991e       ??$write_multiple_characters@V?$string_output_adapter@D@__crt_stdio_output@@D@__crt_stdio_output@@YAXABV?$string_output_adapter@D@0@DHQAH@Z 1006a91e f i libucrt:output.obj
 0001:0006994a       ??0?$common_data@D@__crt_stdio_output@@IAE@XZ 1006a94a f i libucrt:output.obj
 0001:00069991       ??0?$output_adapter_data@DV?$stream_output_adapter@D@__crt_stdio_output@@@__crt_stdio_output@@IAE@ABV?$stream_output_adapter@D@1@_KQBDQAU__crt_locale_pointers@@QAD@Z 1006a991 f i libucrt:output.obj
 0001:00069991       ??0?$output_adapter_data@DV?$string_output_adapter@D@__crt_stdio_output@@@__crt_stdio_output@@IAE@ABV?$string_output_adapter@D@1@_KQBDQAU__crt_locale_pointers@@QAD@Z 1006a991 f i libucrt:output.obj
 0001:000699cd       ??0?$output_processor@DV?$stream_output_adapter@D@__crt_stdio_output@@V?$standard_base@DV?$stream_output_adapter@D@__crt_stdio_output@@@2@@__crt_stdio_output@@QAE@ABV?$stream_output_adapter@D@1@_KQBDQAU__crt_locale_pointers@@QAD@Z 1006a9cd f i libucrt:output.obj
 0001:000699cd       ??0?$output_processor@DV?$string_output_adapter@D@__crt_stdio_output@@V?$standard_base@DV?$string_output_adapter@D@__crt_stdio_output@@@2@@__crt_stdio_output@@QAE@ABV?$string_output_adapter@D@1@_KQBDQAU__crt_locale_pointers@@QAD@Z 1006a9cd f i libucrt:output.obj
 0001:00069a02       ??0_LocaleUpdate@@QAE@QAU__crt_locale_pointers@@@Z 1006aa02 f i libucrt:output.obj
 0001:00069a85       ??1formatting_buffer@__crt_stdio_output@@QAE@XZ 1006aa85 f i libucrt:output.obj
 0001:00069a9f       ??4?$__crt_unique_heap_ptr@DU__crt_internal_free_policy@@@@QAEAAV0@$$QAV0@@Z 1006aa9f f i libucrt:output.obj
 0001:00069b80       ?crop_zeroes@__crt_stdio_output@@YAXPADQAU__crt_locale_pointers@@@Z 1006ab80 f i libucrt:output.obj
 0001:00069bd7       ?find_next_state@?$output_processor@DV?$string_output_adapter@D@__crt_stdio_output@@V?$standard_base@DV?$string_output_adapter@D@__crt_stdio_output@@@2@@__crt_stdio_output@@ABE?AW4state@2@DW432@@Z 1006abd7 f i libucrt:output.obj
 0001:00069bd7       ?find_next_state@?$output_processor@DV?$stream_output_adapter@D@__crt_stdio_output@@V?$standard_base@DV?$stream_output_adapter@D@__crt_stdio_output@@@2@@__crt_stdio_output@@ABE?AW4state@2@DW432@@Z 1006abd7 f i libucrt:output.obj
 0001:00069c09       ?force_decimal_point@__crt_stdio_output@@YAXPADQAU__crt_locale_pointers@@@Z 1006ac09 f i libucrt:output.obj
 0001:00069c65       ?parse_int_from_format_string@?$output_processor@DV?$string_output_adapter@D@__crt_stdio_output@@V?$standard_base@DV?$string_output_adapter@D@__crt_stdio_output@@@2@@__crt_stdio_output@@AAE_NQAH@Z 1006ac65 f i libucrt:output.obj
 0001:00069c65       ?parse_int_from_format_string@?$output_processor@DV?$stream_output_adapter@D@__crt_stdio_output@@V?$standard_base@DV?$stream_output_adapter@D@__crt_stdio_output@@@2@@__crt_stdio_output@@AAE_NQAH@Z 1006ac65 f i libucrt:output.obj
 0001:00069cc1       ?process@?$output_processor@DV?$stream_output_adapter@D@__crt_stdio_output@@V?$standard_base@DV?$stream_output_adapter@D@__crt_stdio_output@@@2@@__crt_stdio_output@@QAEHXZ 1006acc1 f i libucrt:output.obj
 0001:00069ddd       ?process@?$output_processor@DV?$string_output_adapter@D@__crt_stdio_output@@V?$standard_base@DV?$string_output_adapter@D@__crt_stdio_output@@@2@@__crt_stdio_output@@QAEHXZ 1006addd f i libucrt:output.obj
 0001:00069ef9       ?state_case_flag@?$output_processor@DV?$stream_output_adapter@D@__crt_stdio_output@@V?$standard_base@DV?$stream_output_adapter@D@__crt_stdio_output@@@2@@__crt_stdio_output@@AAE_NXZ 1006aef9 f i libucrt:output.obj
 0001:00069ef9       ?state_case_flag@?$output_processor@DV?$string_output_adapter@D@__crt_stdio_output@@V?$standard_base@DV?$string_output_adapter@D@__crt_stdio_output@@@2@@__crt_stdio_output@@AAE_NXZ 1006aef9 f i libucrt:output.obj
 0001:00069f36       ?state_case_normal@?$output_processor@DV?$stream_output_adapter@D@__crt_stdio_output@@V?$standard_base@DV?$stream_output_adapter@D@__crt_stdio_output@@@2@@__crt_stdio_output@@AAE_NXZ 1006af36 f i libucrt:output.obj
 0001:00069f55       ?state_case_normal@?$output_processor@DV?$string_output_adapter@D@__crt_stdio_output@@V?$standard_base@DV?$string_output_adapter@D@__crt_stdio_output@@@2@@__crt_stdio_output@@AAE_NXZ 1006af55 f i libucrt:output.obj
 0001:00069f74       ?state_case_normal_common@?$output_processor@DV?$stream_output_adapter@D@__crt_stdio_output@@V?$standard_base@DV?$stream_output_adapter@D@__crt_stdio_output@@@2@@__crt_stdio_output@@AAE_NXZ 1006af74 f i libucrt:output.obj
 0001:00069f9e       ?state_case_normal_common@?$output_processor@DV?$string_output_adapter@D@__crt_stdio_output@@V?$standard_base@DV?$string_output_adapter@D@__crt_stdio_output@@@2@@__crt_stdio_output@@AAE_NXZ 1006af9e f i libucrt:output.obj
 0001:00069fc8       ?state_case_normal_tchar@?$output_processor@DV?$stream_output_adapter@D@__crt_stdio_output@@V?$standard_base@DV?$stream_output_adapter@D@__crt_stdio_output@@@2@@__crt_stdio_output@@AAE_ND@Z 1006afc8 f i libucrt:output.obj
 0001:0006a029       ?state_case_normal_tchar@?$output_processor@DV?$string_output_adapter@D@__crt_stdio_output@@V?$standard_base@DV?$string_output_adapter@D@__crt_stdio_output@@@2@@__crt_stdio_output@@AAE_ND@Z 1006b029 f i libucrt:output.obj
 0001:0006a08a       ?state_case_precision@?$output_processor@DV?$stream_output_adapter@D@__crt_stdio_output@@V?$standard_base@DV?$stream_output_adapter@D@__crt_stdio_output@@@2@@__crt_stdio_output@@AAE_NXZ 1006b08a f i libucrt:output.obj
 0001:0006a08a       ?state_case_precision@?$output_processor@DV?$string_output_adapter@D@__crt_stdio_output@@V?$standard_base@DV?$string_output_adapter@D@__crt_stdio_output@@@2@@__crt_stdio_output@@AAE_NXZ 1006b08a f i libucrt:output.obj
 0001:0006a0b2       ?state_case_size@?$output_processor@DV?$stream_output_adapter@D@__crt_stdio_output@@V?$standard_base@DV?$stream_output_adapter@D@__crt_stdio_output@@@2@@__crt_stdio_output@@AAE_NXZ 1006b0b2 f i libucrt:output.obj
 0001:0006a21b       ?state_case_size@?$output_processor@DV?$string_output_adapter@D@__crt_stdio_output@@V?$standard_base@DV?$string_output_adapter@D@__crt_stdio_output@@@2@@__crt_stdio_output@@AAE_NXZ 1006b21b f i libucrt:output.obj
 0001:0006a384       ?state_case_type@?$output_processor@DV?$stream_output_adapter@D@__crt_stdio_output@@V?$standard_base@DV?$stream_output_adapter@D@__crt_stdio_output@@@2@@__crt_stdio_output@@AAE_NXZ 1006b384 f i libucrt:output.obj
 0001:0006a5b3       ?state_case_type@?$output_processor@DV?$string_output_adapter@D@__crt_stdio_output@@V?$standard_base@DV?$string_output_adapter@D@__crt_stdio_output@@@2@@__crt_stdio_output@@AAE_NXZ 1006b5b3 f i libucrt:output.obj
 0001:0006a7e2       ?state_case_width@?$output_processor@DV?$stream_output_adapter@D@__crt_stdio_output@@V?$standard_base@DV?$stream_output_adapter@D@__crt_stdio_output@@@2@@__crt_stdio_output@@AAE_NXZ 1006b7e2 f i libucrt:output.obj
 0001:0006a7e2       ?state_case_width@?$output_processor@DV?$string_output_adapter@D@__crt_stdio_output@@V?$standard_base@DV?$string_output_adapter@D@__crt_stdio_output@@@2@@__crt_stdio_output@@AAE_NXZ 1006b7e2 f i libucrt:output.obj
 0001:0006a80d       ?to_integer_size@__crt_stdio_output@@YAIW4length_modifier@1@@Z 1006b80d f i libucrt:output.obj
 0001:0006a869       ?type_case_Z@?$output_processor@DV?$stream_output_adapter@D@__crt_stdio_output@@V?$standard_base@DV?$stream_output_adapter@D@__crt_stdio_output@@@2@@__crt_stdio_output@@AAE_NXZ 1006b869 f i libucrt:output.obj
 0001:0006a869       ?type_case_Z@?$output_processor@DV?$string_output_adapter@D@__crt_stdio_output@@V?$standard_base@DV?$string_output_adapter@D@__crt_stdio_output@@@2@@__crt_stdio_output@@AAE_NXZ 1006b869 f i libucrt:output.obj
 0001:0006a8cc       ?type_case_a@?$output_processor@DV?$stream_output_adapter@D@__crt_stdio_output@@V?$standard_base@DV?$stream_output_adapter@D@__crt_stdio_output@@@2@@__crt_stdio_output@@AAE_NXZ 1006b8cc f i libucrt:output.obj
 0001:0006a8cc       ?type_case_a@?$output_processor@DV?$string_output_adapter@D@__crt_stdio_output@@V?$standard_base@DV?$string_output_adapter@D@__crt_stdio_output@@@2@@__crt_stdio_output@@AAE_NXZ 1006b8cc f i libucrt:output.obj
 0001:0006aa26       ?type_case_c_tchar@?$output_processor@DV?$stream_output_adapter@D@__crt_stdio_output@@V?$standard_base@DV?$stream_output_adapter@D@__crt_stdio_output@@@2@@__crt_stdio_output@@AAE_ND@Z 1006ba26 f i libucrt:output.obj
 0001:0006aa26       ?type_case_c_tchar@?$output_processor@DV?$string_output_adapter@D@__crt_stdio_output@@V?$standard_base@DV?$string_output_adapter@D@__crt_stdio_output@@@2@@__crt_stdio_output@@AAE_ND@Z 1006ba26 f i libucrt:output.obj
 0001:0006aab6       ?type_case_integer@?$output_processor@DV?$string_output_adapter@D@__crt_stdio_output@@V?$standard_base@DV?$string_output_adapter@D@__crt_stdio_output@@@2@@__crt_stdio_output@@AAE_NI_N@Z 1006bab6 f i libucrt:output.obj
 0001:0006aab6       ?type_case_integer@?$output_processor@DV?$stream_output_adapter@D@__crt_stdio_output@@V?$standard_base@DV?$stream_output_adapter@D@__crt_stdio_output@@@2@@__crt_stdio_output@@AAE_NI_N@Z 1006bab6 f i libucrt:output.obj
 0001:0006ac00       ?type_case_n@?$output_processor@DV?$string_output_adapter@D@__crt_stdio_output@@V?$standard_base@DV?$string_output_adapter@D@__crt_stdio_output@@@2@@__crt_stdio_output@@AAE_NXZ 1006bc00 f i libucrt:output.obj
 0001:0006ac00       ?type_case_n@?$output_processor@DV?$stream_output_adapter@D@__crt_stdio_output@@V?$standard_base@DV?$stream_output_adapter@D@__crt_stdio_output@@@2@@__crt_stdio_output@@AAE_NXZ 1006bc00 f i libucrt:output.obj
 0001:0006ac74       ?type_case_o@?$output_processor@DV?$string_output_adapter@D@__crt_stdio_output@@V?$standard_base@DV?$string_output_adapter@D@__crt_stdio_output@@@2@@__crt_stdio_output@@AAE_NXZ 1006bc74 f i libucrt:output.obj
 0001:0006ac74       ?type_case_o@?$output_processor@DV?$stream_output_adapter@D@__crt_stdio_output@@V?$standard_base@DV?$stream_output_adapter@D@__crt_stdio_output@@@2@@__crt_stdio_output@@AAE_NXZ 1006bc74 f i libucrt:output.obj
 0001:0006ac93       ?type_case_p@?$output_processor@DV?$stream_output_adapter@D@__crt_stdio_output@@V?$standard_base@DV?$stream_output_adapter@D@__crt_stdio_output@@@2@@__crt_stdio_output@@AAE_NXZ 1006bc93 f i libucrt:output.obj
 0001:0006ac93       ?type_case_p@?$output_processor@DV?$string_output_adapter@D@__crt_stdio_output@@V?$standard_base@DV?$string_output_adapter@D@__crt_stdio_output@@@2@@__crt_stdio_output@@AAE_NXZ 1006bc93 f i libucrt:output.obj
 0001:0006acab       ?type_case_s@?$output_processor@DV?$stream_output_adapter@D@__crt_stdio_output@@V?$standard_base@DV?$stream_output_adapter@D@__crt_stdio_output@@@2@@__crt_stdio_output@@AAE_NXZ 1006bcab f i libucrt:output.obj
 0001:0006acab       ?type_case_s@?$output_processor@DV?$string_output_adapter@D@__crt_stdio_output@@V?$standard_base@DV?$string_output_adapter@D@__crt_stdio_output@@@2@@__crt_stdio_output@@AAE_NXZ 1006bcab f i libucrt:output.obj
 0001:0006ad1e       ?validate@?$stream_output_adapter@D@__crt_stdio_output@@QBE_NXZ 1006bd1e f i libucrt:output.obj
 0001:0006ad3f       ?validate@?$c_string_character_source@_W@__crt_strtox@@QBE_NXZ 1006bd3f f i libucrt:strtox.obj
 0001:0006ad3f       ?validate@?$string_output_adapter@D@__crt_stdio_output@@QBE_NXZ 1006bd3f f i libucrt:output.obj
 0001:0006ad3f       ?validate@?$c_string_character_source@D@__crt_strtox@@QBE_NXZ 1006bd3f f i libucrt:strtox.obj
 0001:0006ad5a       ?validate_stream_is_ansi_if_required@?$__acrt_stdio_char_traits@D@@SA_NQAU_iobuf@@@Z 1006bd5a f i libucrt:output.obj
 0001:0006addc       ?write_character@?$stream_output_adapter@D@__crt_stdio_output@@QBEXDQAH@Z 1006bddc f i libucrt:output.obj
 0001:0006ae19       ?write_character@?$string_output_adapter@D@__crt_stdio_output@@QBE_NDQAH@Z 1006be19 f i libucrt:output.obj
 0001:0006ae5b       ?write_stored_string_tchar@?$output_processor@DV?$stream_output_adapter@D@__crt_stdio_output@@V?$standard_base@DV?$stream_output_adapter@D@__crt_stdio_output@@@2@@__crt_stdio_output@@AAE_ND@Z 1006be5b f i libucrt:output.obj
 0001:0006af02       ?write_stored_string_tchar@?$output_processor@DV?$string_output_adapter@D@__crt_stdio_output@@V?$standard_base@DV?$string_output_adapter@D@__crt_stdio_output@@@2@@__crt_stdio_output@@AAE_ND@Z 1006bf02 f i libucrt:output.obj
 0001:0006afa9       ?write_string@?$stream_output_adapter@D@__crt_stdio_output@@QBEXQBDHQAH1@Z 1006bfa9 f i libucrt:output.obj
 0001:0006b033       ?write_string@?$string_output_adapter@D@__crt_stdio_output@@QBEXQBDHQAH1@Z 1006c033 f i libucrt:output.obj
 0001:0006b0c6       ___stdio_common_vfprintf   1006c0c6 f   libucrt:output.obj
 0001:0006b13d       ___stdio_common_vsprintf   1006c13d f   libucrt:output.obj
 0001:0006b1e0       __time64                   1006c1e0 f   libucrt:time.obj
 0001:0006b222       _free                      1006c222 f   libucrt:free.obj
 0001:0006b230       _strncpy                   1006c230 f   libucrt:strncpy.obj
 0001:0006b354       __chvalidchk_l             1006c354 f i libucrt:_ctype.obj
 0001:0006b37e       __isalnum_l                1006c37e f i libucrt:_ctype.obj
 0001:0006b3b9       __ischartype_l             1006c3b9 f i libucrt:_ctype.obj
 0001:0006b3ec       __isdigit_l                1006c3ec f i libucrt:_ctype.obj
 0001:0006b424       __islower_l                1006c424 f i libucrt:_ctype.obj
 0001:0006b45c       __isspace_l                1006c45c f i libucrt:_ctype.obj
 0001:0006b494       __isupper_l                1006c494 f i libucrt:_ctype.obj
 0001:0006b4cc       __isxdigit_l               1006c4cc f i libucrt:_ctype.obj
 0001:0006b507       _isalnum                   1006c507 f i libucrt:_ctype.obj
 0001:0006b536       _isdigit                   1006c536 f i libucrt:_ctype.obj
 0001:0006b563       _islower                   1006c563 f i libucrt:_ctype.obj
 0001:0006b590       _isspace                   1006c590 f i libucrt:_ctype.obj
 0001:0006b5bd       _isupper                   1006c5bd f i libucrt:_ctype.obj
 0001:0006b5ea       _isxdigit                  1006c5ea f i libucrt:_ctype.obj
 0001:0006b619       _malloc                    1006c619 f   libucrt:malloc.obj
 0001:0006b624       ___acrt_initialize_stdio   1006c624 f   libucrt:_file.obj
 0001:0006b6ec       ___acrt_iob_func           1006c6ec f   libucrt:_file.obj
 0001:0006b6fc       ___acrt_uninitialize_stdio 1006c6fc f   libucrt:_file.obj
 0001:0006b748       __get_stream_buffer_pointers 1006c748 f   libucrt:_file.obj
 0001:0006b78e       __lock_file                1006c78e f   libucrt:_file.obj
 0001:0006b7a2       __unlock_file              1006c7a2 f   libucrt:_file.obj
 0001:0006b7b6       ___ascii_stricmp           1006c7b6 f   libucrt:stricmp.obj
 0001:0006b7f1       __stricmp                  1006c7f1 f   libucrt:stricmp.obj
 0001:0006b839       __stricmp_l                1006c839 f   libucrt:stricmp.obj
 0001:0006b8d3       _realloc                   1006c8d3 f   libucrt:realloc.obj
 0001:0006ba60       __wfopen                   1006ca60 f   libucrt:fopen.obj
 0001:0006ba77       _fopen                     1006ca77 f   libucrt:fopen.obj
 0001:0006ba8e       __fclose_nolock            1006ca8e f   libucrt:fclose.obj
 0001:0006bb04       _fclose                    1006cb04 f   libucrt:fclose.obj
 0001:0006bb84       _feof                      1006cb84 f   libucrt:feoferr.obj
 0001:0006bbaf       _ferror                    1006cbaf f   libucrt:feoferr.obj
 0001:0006bbda       ___acrt_stdio_flush_nolock 1006cbda f   libucrt:fflush.obj
 0001:0006bc40       __fflush_nolock            1006cc40 f   libucrt:fflush.obj
 0001:0006bc87       __flushall                 1006cc87 f   libucrt:fflush.obj
 0001:0006bd68       _fflush                    1006cd68 f   libucrt:fflush.obj
 0001:0006be86       _fgets                     1006ce86 f   libucrt:fgets.obj
 0001:0006be91       __fileno                   1006ce91 f   libucrt:fileno.obj
 0001:0006beb7       __fread_nolock_s           1006ceb7 f   libucrt:fread.obj
 0001:0006c083       _fread                     1006d083 f   libucrt:fread.obj
 0001:0006c0a0       _fread_s                   1006d0a0 f   libucrt:fread.obj
 0001:0006c133       ?LongLongSub@@YAJ_J0PA_J@Z 1006d133 f i libucrt:fseek.obj
 0001:0006c3ed       __fseeki64                 1006d3ed f   libucrt:fseek.obj
 0001:0006c408       _fseek                     1006d408 f   libucrt:fseek.obj
 0001:0006c9eb       __ftelli64                 1006d9eb f   libucrt:ftell.obj
 0001:0006c9f6       __ftelli64_nolock          1006d9f6 f   libucrt:ftell.obj
 0001:0006ca01       _ftell                     1006da01 f   libucrt:ftell.obj
 0001:0006ca0c       ??$?RV<lambda_11b4f7b0d3157825a5656a18eba1ae27>@@AAV<lambda_b51c0495177f500e782686251704ae76>@@V<lambda_cf89b47920b5017557bfe891e78aca36>@@@?$__crt_seh_guarded_call@I@@QAEI$$QAV<lambda_11b4f7b0d3157825a5656a18eba1ae27>@@AAV<lambda_b51c0495177f500e782686251704ae76>@@$$QAV<lambda_cf89b47920b5017557bfe891e78aca36>@@@Z 1006da0c f i libucrt:fwrite.obj
 0001:0006ca5d       ??$__acrt_lock_stream_and_call@V<lambda_b51c0495177f500e782686251704ae76>@@@@YAIQAU_iobuf@@$$QAV<lambda_b51c0495177f500e782686251704ae76>@@@Z 1006da5d f i libucrt:fwrite.obj
 0001:0006cacb       __fwrite_nolock            1006dacb f   libucrt:fwrite.obj
 0001:0006cc44       _fwrite                    1006dc44 f   libucrt:fwrite.obj
 0001:0006cc9c       ___acrt_errno_from_os_error 1006dc9c f   libucrt:errno.obj
 0001:0006ccdf       ___acrt_errno_map_os_error 1006dcdf f   libucrt:errno.obj
 0001:0006cd02       ___doserrno                1006dd02 f   libucrt:errno.obj
 0001:0006cd15       __errno                    1006dd15 f   libucrt:errno.obj
 0001:0006cd28       __get_fmode                1006dd28 f   libucrt:setmode.obj
 0001:0006cd54       __setmode                  1006dd54 f   libucrt:setmode.obj
 0001:0006ce62       __setmode_nolock           1006de62 f   libucrt:setmode.obj
 0001:0006d14e       ___acrt_initialize_thread_local_exit_callback 1006e14e f   libucrt:exit.obj
 0001:0006d15d       __cexit                    1006e15d f   libucrt:exit.obj
 0001:0006d16c       __exit                     1006e16c f   libucrt:exit.obj
 0001:0006d182       __is_c_termination_complete 1006e182 f   libucrt:exit.obj
 0001:0006d188       ??$?RV<lambda_a048d3beccc847880fc8490e18b82769>@@AAV<lambda_ec61778202f4f5fc7e7711acc23c3bca>@@V<lambda_f7496a158712204296dd6628a163878e>@@@?$__crt_seh_guarded_call@P6AXH@Z@@QAEP6AXH@Z$$QAV<lambda_a048d3beccc847880fc8490e18b82769>@@AAV<lambda_ec61778202f4f5fc7e7711acc23c3bca>@@$$QAV<lambda_f7496a158712204296dd6628a163878e>@@@Z 1006e188 f i libucrt:signal.obj
 0001:0006d1e2       ??$__acrt_lock_and_call@V<lambda_ec61778202f4f5fc7e7711acc23c3bca>@@@@YAP6AXH@ZW4__acrt_lock_id@@$$QAV<lambda_ec61778202f4f5fc7e7711acc23c3bca>@@@Z 1006e1e2 f i libucrt:signal.obj
 0001:0006d353       ___acrt_get_sigabrt_handler 1006e353 f   libucrt:signal.obj
 0001:0006d36a       ___acrt_initialize_signal_handlers 1006e36a f   libucrt:signal.obj
 0001:0006d3a5       ___fpecode                 1006e3a5 f   libucrt:signal.obj
 0001:0006d3ae       _raise                     1006e3ae f   libucrt:signal.obj
 0001:0006d5b6       _signal                    1006e5b6 f   libucrt:signal.obj
 0001:0006d770       _strcmp                    1006e770 f   libucrt:strcmp.obj
 0001:0006d8e0       _qsort                     1006e8e0 f   libucrt:qsort.obj
 0001:0006dd6a       _getenv                    1006ed6a f   libucrt:getenv.obj
 0001:0006dd75       ??$is_overflow_condition@K@__crt_strtox@@YA_NIK@Z 1006ed75 f i libucrt:strtox.obj
 0001:0006dda8       ??$is_overflow_condition@_K@__crt_strtox@@YA_NI_K@Z 1006eda8 f i libucrt:strtox.obj
 0001:0006ddeb       ??$parse_integer@KV?$c_string_character_source@D@__crt_strtox@@@__crt_strtox@@YAKQAU__crt_locale_pointers@@V?$c_string_character_source@D@0@H_N@Z 1006edeb f i libucrt:strtox.obj
 0001:0006e013       ??$parse_integer@KV?$c_string_character_source@_W@__crt_strtox@@@__crt_strtox@@YAKQAU__crt_locale_pointers@@V?$c_string_character_source@_W@0@H_N@Z 1006f013 f i libucrt:strtox.obj
 0001:0006e6f8       ??$parse_integer@_KV?$c_string_character_source@D@__crt_strtox@@@__crt_strtox@@YA_KQAU__crt_locale_pointers@@V?$c_string_character_source@D@0@H_N@Z 1006f6f8 f i libucrt:strtox.obj
 0001:0006e99e       ?unget@?$c_string_character_source@D@__crt_strtox@@QAEXD@Z 1006f99e f i libucrt:strtox.obj
 0001:0006e9c6       ?unget@?$c_string_character_source@_W@__crt_strtox@@QAEX_W@Z 1006f9c6 f i libucrt:strtox.obj
 0001:0006e9f2       _strtol                    1006f9f2 f   libucrt:strtox.obj
 0001:0006ea1e       _strtoul                   1006fa1e f   libucrt:strtox.obj
 0001:0006ea4a       _strtoull                  1006fa4a f   libucrt:strtox.obj
 0001:0006ea76       __strnicmp                 1006fa76 f   libucrt:strnicmp.obj
 0001:0006eae2       __strnicmp_l               1006fae2 f   libucrt:strnicmp.obj
 0001:0006eb99       ??$make_c_string_character_source@_W$$T@__crt_strtox@@YA?AV?$c_string_character_source@_W@0@QB_W$$T@Z 1006fb99 f i libucrt:atox.obj
 0001:0006eb99       ??$make_c_string_character_source@D$$T@__crt_strtox@@YA?AV?$c_string_character_source@D@0@QBD$$T@Z 1006fb99 f i libucrt:atox.obj
 0001:0006eb99       ??$make_c_string_character_source@DPAPAD@__crt_strtox@@YA?AV?$c_string_character_source@D@0@QBDQAPAD@Z 1006fb99 f i libucrt:strtox.obj
 0001:0006ebb4       __wtol                     1006fbb4 f   libucrt:atox.obj
 0001:0006ebde       _atoi                      1006fbde f   libucrt:atox.obj
 0001:0006ec08       ??$assemble_floating_point_ind@N@__crt_strtox@@YAXAAN@Z 1006fc08 f i libucrt:input.obj
 0001:0006ec37       ??$assemble_floating_point_infinity@N@__crt_strtox@@YAX_NAAN@Z 1006fc37 f i libucrt:input.obj
 0001:0006ec76       ??$assemble_floating_point_qnan@N@__crt_strtox@@YAX_NAAN@Z 1006fc76 f i libucrt:input.obj
 0001:0006ecb5       ??$assemble_floating_point_snan@N@__crt_strtox@@YAX_NAAN@Z 1006fcb5 f i libucrt:input.obj
 0001:0006ecf9       ??$assemble_floating_point_value_t@M@__crt_strtox@@YA?AW4SLD_STATUS@@_NH_KAAM@Z 1006fcf9 f i libucrt:input.obj
 0001:0006ed29       ??$assemble_floating_point_value_t@N@__crt_strtox@@YA?AW4SLD_STATUS@@_NH_KAAN@Z 1006fd29 f i libucrt:input.obj
 0001:0006ed88       ??$assemble_floating_point_zero@N@__crt_strtox@@YAX_NAAN@Z 1006fd88 f i libucrt:input.obj
 0001:0006ee86       ??$convert_decimal_string_to_floating_type@M@__crt_strtox@@YA?AW4SLD_STATUS@@ABUfloating_point_string@0@AAM@Z 1006fe86 f i libucrt:input.obj
 0001:0006eea9       ??$convert_decimal_string_to_floating_type@N@__crt_strtox@@YA?AW4SLD_STATUS@@ABUfloating_point_string@0@AAN@Z 1006fea9 f i libucrt:input.obj
 0001:0006eecc       ??$convert_hexadecimal_string_to_floating_type@M@__crt_strtox@@YA?AW4SLD_STATUS@@ABUfloating_point_string@0@AAM@Z 1006fecc f i libucrt:input.obj
 0001:0006eeef       ??$convert_hexadecimal_string_to_floating_type@N@__crt_strtox@@YA?AW4SLD_STATUS@@ABUfloating_point_string@0@AAN@Z 1006feef f i libucrt:input.obj
 0001:0006ef12       ??$make_input_adapter_character_source@V?$string_input_adapter@D@__crt_stdio_input@@@__crt_strtox@@YA?AV?$input_adapter_character_source@V?$string_input_adapter@D@__crt_stdio_input@@@0@QAV?$string_input_adapter@D@__crt_stdio_input@@_KQA_N@Z 1006ff12 f i libucrt:input.obj
 0001:0006ef30       ??$parse_floating_point@V?$input_adapter_character_source@V?$string_input_adapter@D@__crt_stdio_input@@@__crt_strtox@@M@__crt_strtox@@YA?AW4SLD_STATUS@@QAU__crt_locale_pointers@@V?$input_adapter_character_source@V?$string_input_adapter@D@__crt_stdio_input@@@0@QAM@Z 1006ff30 f i libucrt:input.obj
 0001:0006efab       ??$parse_floating_point@V?$input_adapter_character_source@V?$string_input_adapter@D@__crt_stdio_input@@@__crt_strtox@@N@__crt_strtox@@YA?AW4SLD_STATUS@@QAU__crt_locale_pointers@@V?$input_adapter_character_source@V?$string_input_adapter@D@__crt_stdio_input@@@0@QAN@Z 1006ffab f i libucrt:input.obj
 0001:0006f026       ??$parse_floating_point_from_source@V?$input_adapter_character_source@V?$string_input_adapter@D@__crt_stdio_input@@@__crt_strtox@@@__crt_strtox@@YA?AW4floating_point_parse_result@0@QAU__crt_locale_pointers@@AAV?$input_adapter_character_source@V?$string_input_adapter@D@__crt_stdio_input@@@0@AAUfloating_point_string@0@@Z 10070026 f i libucrt:input.obj
 0001:0006f48d       ??$parse_floating_point_possible_infinity@DV?$input_adapter_character_source@V?$string_input_adapter@D@__crt_stdio_input@@@__crt_strtox@@_K@__crt_strtox@@YA?AW4floating_point_parse_result@0@AADAAV?$input_adapter_character_source@V?$string_input_adapter@D@__crt_stdio_input@@@0@_K@Z 1007048d f i libucrt:input.obj
 0001:0006f54e       ??$parse_floating_point_possible_nan@DV?$input_adapter_character_source@V?$string_input_adapter@D@__crt_stdio_input@@@__crt_strtox@@_K@__crt_strtox@@YA?AW4floating_point_parse_result@0@AADAAV?$input_adapter_character_source@V?$string_input_adapter@D@__crt_stdio_input@@@0@_K@Z 1007054e f i libucrt:input.obj
 0001:0006f660       ??$parse_floating_point_possible_nan_is_ind@DV?$input_adapter_character_source@V?$string_input_adapter@D@__crt_stdio_input@@@__crt_strtox@@@__crt_strtox@@YA_NAADAAV?$input_adapter_character_source@V?$string_input_adapter@D@__crt_stdio_input@@@0@@Z 10070660 f i libucrt:input.obj
 0001:0006f69a       ??$parse_floating_point_possible_nan_is_snan@DV?$input_adapter_character_source@V?$string_input_adapter@D@__crt_stdio_input@@@__crt_strtox@@@__crt_strtox@@YA_NAADAAV?$input_adapter_character_source@V?$string_input_adapter@D@__crt_stdio_input@@@0@@Z 1007069a f i libucrt:input.obj
 0001:0006f6d4       ??$parse_floating_point_write_result@M@__crt_strtox@@YA?AW4SLD_STATUS@@W4floating_point_parse_result@0@ABUfloating_point_string@0@QAM@Z 100706d4 f i libucrt:input.obj
 0001:0006f7e4       ??$parse_floating_point_write_result@N@__crt_strtox@@YA?AW4SLD_STATUS@@W4floating_point_parse_result@0@ABUfloating_point_string@0@QAN@Z 100707e4 f i libucrt:input.obj
 0001:0006f8e8       ??$parse_integer@_KV?$input_adapter_character_source@V?$string_input_adapter@D@__crt_stdio_input@@@__crt_strtox@@@__crt_strtox@@YA_KQAU__crt_locale_pointers@@V?$input_adapter_character_source@V?$string_input_adapter@D@__crt_stdio_input@@@0@H_N@Z 100708e8 f i libucrt:input.obj
 0001:0006fb99       ??$process_floating_point_specifier_t@M@?$input_processor@DV?$string_input_adapter@D@__crt_stdio_input@@@__crt_stdio_input@@AAE_NXZ 10070b99 f i libucrt:input.obj
 0001:0006fc01       ??$process_floating_point_specifier_t@N@?$input_processor@DV?$string_input_adapter@D@__crt_stdio_input@@@__crt_stdio_input@@AAE_NXZ 10070c01 f i libucrt:input.obj
 0001:0006fc69       ??$process_string_specifier_tchar@D@?$input_processor@DV?$string_input_adapter@D@__crt_stdio_input@@@__crt_stdio_input@@AAE_NW4conversion_mode@1@D@Z 10070c69 f i libucrt:input.obj
 0001:0006fdcb       ??$process_string_specifier_tchar@_W@?$input_processor@DV?$string_input_adapter@D@__crt_stdio_input@@@__crt_stdio_input@@AAE_NW4conversion_mode@1@_W@Z 10070dcb f i libucrt:input.obj
 0001:0006ff37       ??$skip_whitespace@Vstring_input_adapter@__crt_stdio_input@@D@__crt_stdio_input@@YAHAAV?$string_input_adapter@D@0@QAU__crt_locale_pointers@@@Z 10070f37 f i libucrt:input.obj
 0001:0006ff66       ??$write_floating_point@M@?$input_processor@DV?$string_input_adapter@D@__crt_stdio_input@@@__crt_stdio_input@@AAE_NABM@Z 10070f66 f i libucrt:input.obj
 0001:0006ff9d       ??$write_floating_point@N@?$input_processor@DV?$string_input_adapter@D@__crt_stdio_input@@@__crt_stdio_input@@AAE_NABN@Z 10070f9d f i libucrt:input.obj
 0001:0006ffda       ??0?$format_string_parser@D@__crt_stdio_input@@QAE@_KQBE@Z 10070fda f i libucrt:input.obj
 0001:00070024       ??0?$input_adapter_character_source@V?$string_input_adapter@D@__crt_stdio_input@@@__crt_strtox@@QAE@QAV?$string_input_adapter@D@__crt_stdio_input@@_KQA_N@Z 10071024 f i libucrt:input.obj
 0001:00070055       ??0?$input_processor@DV?$string_input_adapter@D@__crt_stdio_input@@@__crt_stdio_input@@QAE@ABV?$string_input_adapter@D@1@_KQBDQAU__crt_locale_pointers@@QAD@Z 10071055 f i libucrt:input.obj
 0001:000700c7       ?advance@?$format_string_parser@D@__crt_stdio_input@@QAE_NXZ 100710c7 f i libucrt:input.obj
 0001:000701e7       ?as_double@floating_point_value@__crt_strtox@@QBEAANXZ 100711e7 f i libucrt:input.obj
 0001:0007020c       ?as_float@floating_point_value@__crt_strtox@@QBEAAMXZ 1007120c f i libucrt:input.obj
 0001:00070231       ?assemble_floating_point_infinity@__crt_strtox@@YAX_NABVfloating_point_value@1@@Z 10071231 f i libucrt:input.obj
 0001:0007026b       ?assemble_floating_point_value@__crt_strtox@@YA?AW4SLD_STATUS@@_KH_N1ABVfloating_point_value@1@@Z 1007126b f i libucrt:input.obj
 0001:000705b7       ?assemble_floating_point_value_from_big_integer@__crt_strtox@@YA?AW4SLD_STATUS@@ABUbig_integer@1@I_N1ABVfloating_point_value@1@@Z 100715b7 f i libucrt:input.obj
 0001:00070745       ?assemble_floating_point_zero@__crt_strtox@@YAX_NABVfloating_point_value@1@@Z 10071745 f i libucrt:input.obj
 0001:00070779       ?convert_decimal_string_to_floating_type_common@__crt_strtox@@YA?AW4SLD_STATUS@@ABUfloating_point_string@1@ABVfloating_point_value@1@@Z 10071779 f i libucrt:input.obj
 0001:0007253c       ?convert_hexadecimal_string_to_floating_type_common@__crt_strtox@@YA?AW4SLD_STATUS@@ABUfloating_point_string@1@ABVfloating_point_value@1@@Z 1007353c f i libucrt:input.obj
 0001:000725e8       ?denormal_mantissa_mask@floating_point_value@__crt_strtox@@QBE_KXZ 100735e8 f i libucrt:input.obj
 0001:00072600       ?divide@__crt_strtox@@YA_KAAUbig_integer@1@ABU21@@Z 10073600 f i libucrt:input.obj
 0001:00072aae       ?get@?$input_adapter_character_source@V?$string_input_adapter@D@__crt_stdio_input@@@__crt_strtox@@QAEDXZ 10073aae f i libucrt:input.obj
 0001:00072ae8       ?get@?$string_input_adapter@D@__crt_stdio_input@@QAEHXZ 10073ae8 f i libucrt:input.obj
 0001:00072afe       ?invert@?$scanset_buffer@E@__crt_stdio_input@@QAEXXZ 10073afe f i libucrt:input.obj
 0001:00072b1c       ?is_character_allowed_in_string@?$input_processor@DV?$string_input_adapter@D@__crt_stdio_input@@@__crt_stdio_input@@ABE_NW4conversion_mode@2@H@Z 10073b1c f i libucrt:input.obj
 0001:00072b62       ?length@?$format_string_parser@D@__crt_stdio_input@@QBEIXZ 10073b62 f i libucrt:input.obj
 0001:00072ba3       ?normal_mantissa_mask@floating_point_value@__crt_strtox@@QBE_KXZ 10073ba3 f i libucrt:input.obj
 0001:00072bba       ?process@?$input_processor@DV?$string_input_adapter@D@__crt_stdio_input@@@__crt_stdio_input@@QAEHXZ 10073bba f i libucrt:input.obj
 0001:00072c3f       ?process_character_count_specifier@?$input_processor@DV?$string_input_adapter@D@__crt_stdio_input@@@__crt_stdio_input@@AAE_NXZ 10073c3f f i libucrt:input.obj
 0001:00072c59       ?process_conversion_specifier@?$input_processor@DV?$string_input_adapter@D@__crt_stdio_input@@@__crt_stdio_input@@AAE_NXZ 10073c59 f i libucrt:input.obj
 0001:00072ccd       ?process_floating_point_specifier@?$input_processor@DV?$string_input_adapter@D@__crt_stdio_input@@@__crt_stdio_input@@AAE_NXZ 10073ccd f i libucrt:input.obj
 0001:00072cfd       ?process_integer_specifier@?$input_processor@DV?$string_input_adapter@D@__crt_stdio_input@@@__crt_stdio_input@@AAE_NI_N@Z 10073cfd f i libucrt:input.obj
 0001:00072d63       ?process_literal_character@?$input_processor@DV?$string_input_adapter@D@__crt_stdio_input@@@__crt_stdio_input@@AAE_NXZ 10073d63 f i libucrt:input.obj
 0001:00072d99       ?process_literal_character_tchar@?$input_processor@DV?$string_input_adapter@D@__crt_stdio_input@@@__crt_stdio_input@@AAE_ND@Z 10073d99 f i libucrt:input.obj
 0001:00072def       ?process_state@?$input_processor@DV?$string_input_adapter@D@__crt_stdio_input@@@__crt_stdio_input@@AAE_NXZ 10073def f i libucrt:input.obj
 0001:00072e25       ?process_string_specifier@?$input_processor@DV?$string_input_adapter@D@__crt_stdio_input@@@__crt_stdio_input@@AAE_NW4conversion_mode@2@@Z 10073e25 f i libucrt:input.obj
 0001:00072e6d       ?process_whitespace@?$input_processor@DV?$string_input_adapter@D@__crt_stdio_input@@@__crt_stdio_input@@AAE_NXZ 10073e6d f i libucrt:input.obj
 0001:00072e8a       ?restore_state@?$input_adapter_character_source@V?$string_input_adapter@D@__crt_stdio_input@@@__crt_strtox@@QAE_N_K@Z 10073e8a f i libucrt:input.obj
 0001:00072eaf       ?scan_conversion_specifier@?$format_string_parser@D@__crt_stdio_input@@AAE_NXZ 10073eaf f i libucrt:input.obj
 0001:0007301a       ?scan_optional_field_width@?$format_string_parser@D@__crt_stdio_input@@AAE_NXZ 1007401a f i libucrt:input.obj
 0001:000730b9       ?scan_optional_length_modifier@?$format_string_parser@D@__crt_stdio_input@@AAEXXZ 100740b9 f i libucrt:input.obj
 0001:000731d9       ?scan_optional_literal_character_trail_bytes_tchar@?$format_string_parser@D@__crt_stdio_input@@AAE_ND@Z 100741d9 f i libucrt:input.obj
 0001:0007322e       ?scan_optional_wide_modifier@?$format_string_parser@D@__crt_stdio_input@@AAEXXZ 1007422e f i libucrt:input.obj
 0001:0007324c       ?scan_scanset_range@?$format_string_parser@D@__crt_stdio_input@@AAE_NXZ 1007424c f i libucrt:input.obj
 0001:00073353       ?set@?$scanset_buffer@E@__crt_stdio_input@@QAEXE@Z 10074353 f i libucrt:input.obj
 0001:0007337e       ?set_wide_for_c_s_or_scanset@?$format_string_parser@D@__crt_stdio_input@@AAEXXZ 1007437e f i libucrt:input.obj
 0001:0007339e       ?test@?$scanset_buffer@E@__crt_stdio_input@@QBE_NE@Z 1007439e f i libucrt:input.obj
 0001:000733cf       ?to_floating_point_length@__crt_stdio_input@@YAIW4length_modifier@1@@Z 100743cf f i libucrt:input.obj
 0001:000733f2       ?to_integer_length@__crt_stdio_input@@YAIW4length_modifier@1@@Z 100743f2 f i libucrt:input.obj
 0001:0007344a       ?unget@?$input_adapter_character_source@V?$string_input_adapter@D@__crt_stdio_input@@@__crt_strtox@@QAEXD@Z 1007444a f i libucrt:input.obj
 0001:0007348b       ?unget@?$string_input_adapter@D@__crt_stdio_input@@QAEXH@Z 1007448b f i libucrt:input.obj
 0001:000734aa       ?validate@?$format_string_parser@D@__crt_stdio_input@@QBE_NXZ 100744aa f i libucrt:input.obj
 0001:000734c6       ?validate@?$input_adapter_character_source@V?$string_input_adapter@D@__crt_stdio_input@@@__crt_strtox@@QBE_NXZ 100744c6 f i libucrt:input.obj
 0001:000734e7       ?validate@?$string_input_adapter@D@__crt_stdio_input@@QAE_NXZ 100744e7 f i libucrt:input.obj
 0001:00073509       ?write_character@?$input_processor@DV?$string_input_adapter@D@__crt_stdio_input@@@__crt_stdio_input@@AAE_NQA_WIAAPA_WAAID@Z 10074509 f i libucrt:input.obj
 0001:0007357a       ?write_integer@?$input_processor@DV?$string_input_adapter@D@__crt_stdio_input@@@__crt_stdio_input@@AAE_N_K_N@Z 1007457a f i libucrt:input.obj
 0001:000735f1       ___stdio_common_vsscanf    100745f1 f   libucrt:input.obj
 0001:000737fd       __tolower_l                100747fd f   libucrt:tolower_toupper.obj
 0001:00073817       _tolower                   10074817 f   libucrt:tolower_toupper.obj
 0001:00073850       _strncmp                   10074850 f   libucrt:strncmp.obj
 0001:000738c8       ??$__crt_time_elapsed_leap_years@H@@YAHH@Z 100748c8 f i libucrt:gmtime.obj
 0001:00073902       ??$__crt_time_is_leap_year@H@@YA_NH@Z 10074902 f i libucrt:gmtime.obj
 0001:00073b34       ___getgmtimebuf            10074b34 f   libucrt:gmtime.obj
 0001:00073b72       __gmtime64                 10074b72 f   libucrt:gmtime.obj
 0001:00073b99       ??$?RV<lambda_b0cac3301889906f8da68b04e3d9a7f4>@@AAV<lambda_9a20e10065b92b5193c3597a66cba9d4>@@V<lambda_24b35df97fd4c1fecac72a72d95cc146>@@@?$__crt_seh_guarded_call@H@@QAEH$$QAV<lambda_b0cac3301889906f8da68b04e3d9a7f4>@@AAV<lambda_9a20e10065b92b5193c3597a66cba9d4>@@$$QAV<lambda_24b35df97fd4c1fecac72a72d95cc146>@@@Z 10074b99 f i libucrt:fputs.obj
 0001:00073bea       ??$__acrt_lock_stream_and_call@V<lambda_9a20e10065b92b5193c3597a66cba9d4>@@@@YAHQAU_iobuf@@$$QAV<lambda_9a20e10065b92b5193c3597a66cba9d4>@@@Z 10074bea f i libucrt:fputs.obj
 0001:00073c60       _fputs                     10074c60 f   libucrt:fputs.obj
 0001:00073d3b       __getch                    10074d3b f   libucrt:getch.obj
 0001:00073d81       __getch_nolock             10074d81 f   libucrt:getch.obj
 0001:00073e55       __getextendedkeycode       10074e55 f   libucrt:getch.obj
 0001:00073f08       ___acrt_initialize_locks   10074f08 f   libucrt:locks.obj
 0001:00073f49       ___acrt_lock               10074f49 f   libucrt:locks.obj
 0001:00073f60       ___acrt_uninitialize_locks 10074f60 f   libucrt:locks.obj
 0001:00073f91       ___acrt_unlock             10074f91 f   libucrt:locks.obj
 0001:00073fa8       __lock_locales             10074fa8 f   libucrt:locks.obj
 0001:00073fb1       __unlock_locales           10074fb1 f   libucrt:locks.obj
 0001:00073fba       __fgetc_nolock             10074fba f   libucrt:fgetc.obj
 0001:00073ff6       __getc_nolock              10074ff6 f   libucrt:fgetc.obj
 0001:00074001       _fgetc                     10075001 f   libucrt:fgetc.obj
 0001:00074103       _fgetpos                   10075103 f   libucrt:fgetpos.obj
 0001:0007415e       __fputc_nolock             1007515e f   libucrt:fputc.obj
 0001:00074187       _fputc                     10075187 f   libucrt:fputc.obj
 0001:0007428b       _fsetpos                   1007528b f   libucrt:fsetpos.obj
 0001:000742c6       ??$?RV<lambda_d92cfe8357b99225085016881b624cb0>@@AAV<lambda_b721fa326cdb32351d23dfa67958c160>@@V<lambda_42d75b0848218ec137fa420c8ba9fdf9>@@@?$__crt_seh_guarded_call@H@@QAEH$$QAV<lambda_d92cfe8357b99225085016881b624cb0>@@AAV<lambda_b721fa326cdb32351d23dfa67958c160>@@$$QAV<lambda_42d75b0848218ec137fa420c8ba9fdf9>@@@Z 100752c6 f i libucrt:setvbuf.obj
 0001:00074317       ??$__acrt_lock_stream_and_call@V<lambda_b721fa326cdb32351d23dfa67958c160>@@@@YAHQAU_iobuf@@$$QAV<lambda_b721fa326cdb32351d23dfa67958c160>@@@Z 10075317 f i libucrt:setvbuf.obj
 0001:0007440c       _setvbuf                   1007540c f   libucrt:setvbuf.obj
 0001:00074482       __ungetc_nolock            10075482 f   libucrt:ungetc.obj
 0001:00074571       _ungetc                    10075571 f   libucrt:ungetc.obj
 0001:0007467e       _setlocale                 1007567e f   libucrt:setlocale.obj
 0001:000747db       __calloc_base              100757db f   libucrt:calloc_base.obj
 0001:00074838       ___pctype_func             10075838 f   libucrt:ctype.obj
 0001:0007485e       __wcsdup                   1007585e f   libucrt:wcsdup.obj
 0001:000748bf       ____lc_codepage_func       100758bf f   libucrt:initctype.obj
 0001:000748e6       ____lc_locale_name_func    100758e6 f   libucrt:initctype.obj
 0001:0007490f       ___acrt_locale_initialize_ctype 1007590f f   libucrt:initctype.obj
 0001:00074cad       __malloc_base              10075cad f   libucrt:malloc_base.obj
 0001:00074cfb       __realloc_base             10075cfb f   libucrt:realloc_base.obj
 0001:00074d70       _strcspn                   10075d70 f   libucrt:strcspn.obj
 0001:00074dc0       _pow                       10075dc0 f   libucrt:pow.obj
 0001:00074e00       __CIpow                    10075e00 f   libucrt:pow.obj
 0001:00074e3b       __CIpow_default            10075e3b f   libucrt:pow.obj
 0001:00074e54       __pow_default              10075e54     libucrt:pow.obj
 0001:00075049       ___strncnt                 10076049 f   libucrt:strncnt.obj
 0001:00075065       __free_base                10076065 f   libucrt:free_base.obj
 0001:000750f8       __ismbblead                100760f8 f   libucrt:ismbbyte.obj
 0001:00075110       _wcscpy_s                  10076110 f   libucrt:wcscpy_s.obj
 0001:00075174       _strnlen                   10076174 f   libucrt:strnlen.obj
 0001:0007529b       _wcsnlen                   1007629b f   libucrt:strnlen.obj
 0001:00075452       ___acrt_initialize_new_handler 10076452 f   libucrt:new_handler.obj
 0001:00075466       __callnewh                 10076466 f   libucrt:new_handler.obj
 0001:000754aa       __query_new_handler        100764aa f   libucrt:new_handler.obj
 0001:000754fc       __seh_filter_dll           100764fc f   libucrt:exception_filter.obj
 0001:0007551c       __seh_filter_exe           1007651c f   libucrt:exception_filter.obj
 0001:00075928       ___acrt_allocate_buffer_for_argv 10076928 f   libucrt:argv_parsing.obj
 0001:0007597d       __configure_narrow_argv    1007697d f   libucrt:argv_parsing.obj
 0001:00075b8f       ??$uninitialize@A6AXAAPAPA_W@Z@?$dual_state_global@PAPA_W@__crt_state_management@@QAEXA6AXAAPAPA_W@Z@Z 10076b8f f i libucrt:environment_initialization.obj
 0001:00075b8f       ??$uninitialize@A6AXAAPAPAD@Z@?$dual_state_global@PAPAD@__crt_state_management@@QAEXA6AXAAPAPAD@Z@Z 10076b8f f i libucrt:environment_initialization.obj
 0001:00075c05       ___dcrt_get_or_create_narrow_environment_nolock 10076c05 f   libucrt:environment_initialization.obj
 0001:00075c0a       ___dcrt_uninitialize_environments_nolock 10076c0a f   libucrt:environment_initialization.obj
 0001:00075c41       __initialize_narrow_environment 10076c41 f   libucrt:environment_initialization.obj
 0001:00075c46       ??$?RV<lambda_800076c951b434888f4765a74a194fcc>@@AAV<lambda_4e60a939b0d047cfe11ddc22648dfba9>@@V<lambda_6dbb1268764f43b569ce7b67e331d33a>@@@?$__crt_seh_guarded_call@H@@QAEH$$QAV<lambda_800076c951b434888f4765a74a194fcc>@@AAV<lambda_4e60a939b0d047cfe11ddc22648dfba9>@@$$QAV<lambda_6dbb1268764f43b569ce7b67e331d33a>@@@Z 10076c46 f i libucrt:onexit.obj
 0001:00075c97       ??$?RV<lambda_995298e7d72eb4c2aab26c0585b3abe5>@@AAV<lambda_275893d493268fdec8709772e3fcec0e>@@V<lambda_293819299cbf9a7022e18b56a874bb5c>@@@?$__crt_seh_guarded_call@H@@QAEH$$QAV<lambda_995298e7d72eb4c2aab26c0585b3abe5>@@AAV<lambda_275893d493268fdec8709772e3fcec0e>@@$$QAV<lambda_293819299cbf9a7022e18b56a874bb5c>@@@Z 10076c97 f i libucrt:onexit.obj
 0001:00075ce8       ??$__acrt_lock_and_call@V<lambda_275893d493268fdec8709772e3fcec0e>@@@@YAHW4__acrt_lock_id@@$$QAV<lambda_275893d493268fdec8709772e3fcec0e>@@@Z 10076ce8 f i libucrt:onexit.obj
 0001:00075d10       ??$__acrt_lock_and_call@V<lambda_4e60a939b0d047cfe11ddc22648dfba9>@@@@YAHW4__acrt_lock_id@@$$QAV<lambda_4e60a939b0d047cfe11ddc22648dfba9>@@@Z 10076d10 f i libucrt:onexit.obj
 0001:00075d38       ??$__crt_fast_encode_pointer@P6AXH@Z@@YAP6AXH@ZQ6AXH@Z@Z 10076d38 f i libucrt:signal.obj
 0001:00075d38       ??$__crt_fast_encode_pointer@P6GHPA_WKJ@Z@@YAP6GHPA_WKJ@ZQ6GH0KJ@Z@Z 10076d38 f i libucrt:winapi_thunks.obj
 0001:00075d38       ??$__crt_fast_encode_pointer@P6AHXZ@@YAP6AHXZQ6AHXZ@Z 10076d38 f i libucrt:onexit.obj
 0001:00075fb8       __crt_atexit               10076fb8 f   libucrt:onexit.obj
 0001:00075fce       __execute_onexit_table     10076fce f   libucrt:onexit.obj
 0001:00075feb       __initialize_onexit_table  10076feb f   libucrt:onexit.obj
 0001:00076028       __register_onexit_function 10077028 f   libucrt:onexit.obj
 0001:0007613d       ?do_always_noconv@?$codecvt@DDU_Mbstatet@@@std@@MBE_NXZ 1007713d f   libcpmt:cout.obj
 0001:0007613d       ___acrt_uninitialize_command_line 1007713d f   libucrt:argv_data.obj
 0001:00076140       ___acrt_initialize         10077140 f   libucrt:initialization.obj
 0001:00076152       ___acrt_thread_attach      10077152 f   libucrt:initialization.obj
 0001:0007615d       ___acrt_thread_detach      1007715d f   libucrt:initialization.obj
 0001:00076165       ___acrt_uninitialize       10077165 f   libucrt:initialization.obj
 0001:00076177       ___acrt_uninitialize_critical 10077177 f   libucrt:initialization.obj
 0001:00076189       __initterm                 10077189 f   libucrt:initterm.obj
 0001:000761e5       __initterm_e               100771e5 f   libucrt:initterm.obj
 0001:0007622a       _terminate                 1007722a f   libucrt:terminate.obj
 0001:00076266       _strcpy_s                  10077266 f   libucrt:strcpy_s.obj
 0001:000762c0       ??$?RV<lambda_3518db117f0e7cdb002338c5d3c47b6c>@@AAV<lambda_b2ea41f6bbb362cd97d94c6828d90b61>@@V<lambda_abdedf541bb04549bc734292b4a045d4>@@@?$__crt_seh_guarded_call@X@@QAEX$$QAV<lambda_3518db117f0e7cdb002338c5d3c47b6c>@@AAV<lambda_b2ea41f6bbb362cd97d94c6828d90b61>@@$$QAV<lambda_abdedf541bb04549bc734292b4a045d4>@@@Z 100772c0 f i libucrt:per_thread_data.obj
 0001:00076310       ??$?RV<lambda_51b6e8b1eb166f2a3faf91f424b38130>@@AAV<lambda_6250bd4b2a391816dd638c3bf72b0bcb>@@V<lambda_0b5a4a3e68152e1d9b943535f5f47bed>@@@?$__crt_seh_guarded_call@X@@QAEX$$QAV<lambda_51b6e8b1eb166f2a3faf91f424b38130>@@AAV<lambda_6250bd4b2a391816dd638c3bf72b0bcb>@@$$QAV<lambda_0b5a4a3e68152e1d9b943535f5f47bed>@@@Z 10077310 f i libucrt:per_thread_data.obj
 0001:00076371       ??$?RV<lambda_5b71d36f03204c0beab531769a5b5694>@@AAV<lambda_be2b3da3f62db62e9dad5dc70221a656>@@V<lambda_8f9ce462984622f9bf76b59e2aaaf805>@@@?$__crt_seh_guarded_call@X@@QAEX$$QAV<lambda_5b71d36f03204c0beab531769a5b5694>@@AAV<lambda_be2b3da3f62db62e9dad5dc70221a656>@@$$QAV<lambda_8f9ce462984622f9bf76b59e2aaaf805>@@@Z 10077371 f i libucrt:per_thread_data.obj
 0001:000763bc       ??$?RV<lambda_9df27f884b057bc3edfc946cb5b7cf47>@@AAV<lambda_e69574bed617af4e071282c136b37893>@@V<lambda_cc0d902bcbbeb830f749456577db4721>@@@?$__crt_seh_guarded_call@X@@QAEX$$QAV<lambda_9df27f884b057bc3edfc946cb5b7cf47>@@AAV<lambda_e69574bed617af4e071282c136b37893>@@$$QAV<lambda_cc0d902bcbbeb830f749456577db4721>@@@Z 100773bc f i libucrt:per_thread_data.obj
 0001:00076404       ??$__acrt_lock_and_call@V<lambda_6250bd4b2a391816dd638c3bf72b0bcb>@@@@YAXW4__acrt_lock_id@@$$QAV<lambda_6250bd4b2a391816dd638c3bf72b0bcb>@@@Z 10077404 f i libucrt:per_thread_data.obj
 0001:0007642c       ??$__acrt_lock_and_call@V<lambda_b2ea41f6bbb362cd97d94c6828d90b61>@@@@YAXW4__acrt_lock_id@@$$QAV<lambda_b2ea41f6bbb362cd97d94c6828d90b61>@@@Z 1007742c f i libucrt:per_thread_data.obj
 0001:00076454       ??$__acrt_lock_and_call@V<lambda_be2b3da3f62db62e9dad5dc70221a656>@@@@YAXW4__acrt_lock_id@@$$QAV<lambda_be2b3da3f62db62e9dad5dc70221a656>@@@Z 10077454 f i libucrt:per_thread_data.obj
 0001:0007647c       ??$__acrt_lock_and_call@V<lambda_e69574bed617af4e071282c136b37893>@@@@YAXW4__acrt_lock_id@@$$QAV<lambda_e69574bed617af4e071282c136b37893>@@@Z 1007747c f i libucrt:per_thread_data.obj
 0001:00076632       ___acrt_freeptd            10077632 f   libucrt:per_thread_data.obj
 0001:0007665e       ___acrt_getptd             1007765e f   libucrt:per_thread_data.obj
 0001:000766e2       ___acrt_getptd_noexit      100776e2 f   libucrt:per_thread_data.obj
 0001:00076767       ___acrt_initialize_ptd     10077767 f   libucrt:per_thread_data.obj
 0001:00076793       ___acrt_uninitialize_ptd   10077793 f   libucrt:per_thread_data.obj
 0001:000767ad       __mbtowc_l                 100777ad f   libucrt:mbtowc.obj
 0001:000768a7       _mbtowc                    100778a7 f   libucrt:mbtowc.obj
 0001:000768c1       __wctomb_s_l               100778c1 f   libucrt:wctomb.obj
 0001:000769e2       _wctomb_s                  100779e2 f   libucrt:wctomb.obj
 0001:000769ff       ___acrt_update_locale_info 100779ff f   libucrt:locale_update.obj
 0001:00076a2c       ___acrt_update_multibyte_info 10077a2c f   libucrt:locale_update.obj
 0001:00076a59       ?__acrt_fp_classify@@YA?AW4__acrt_fp_class@@ABN@Z 10077a59 f i libucrt:cvt.obj
 0001:00076ac5       ?__acrt_fp_is_negative@@YA_NABN@Z 10077ac5 f i libucrt:cvt.obj
 0001:00077324       ___acrt_fp_format          10078324 f   libucrt:cvt.obj
 0001:0007746e       __get_printf_count_output  1007846e f   libucrt:printf_count_output.obj
 0001:00077483       ___acrt_stdio_begin_temporary_buffering_nolock 10078483 f   libucrt:_sftbuf.obj
 0001:00077538       ___acrt_stdio_end_temporary_buffering_nolock 10078538 f   libucrt:_sftbuf.obj
 0001:00077571       ??$?RV<lambda_70818de7b02deff9841e8b0962a60ed9>@@AAV<lambda_2af78c5f5901b1372d98f9ab3177dfa6>@@AAV<lambda_f51fe5fd7c79a33db34fc9310f277369>@@@?$__crt_seh_guarded_call@X@@QAEX$$QAV<lambda_70818de7b02deff9841e8b0962a60ed9>@@AAV<lambda_2af78c5f5901b1372d98f9ab3177dfa6>@@AAV<lambda_f51fe5fd7c79a33db34fc9310f277369>@@@Z 10078571 f i libucrt:wsetlocale.obj
 0001:000775ac       ??$?RV<lambda_c76fdea48760d5f9368b465f31df4405>@@AAV<lambda_e378711a6f6581bf7f0efd7cdf97f5d9>@@V<lambda_e927a58b2a85c081d733e8c6192ae2d2>@@@?$__crt_seh_guarded_call@X@@QAEX$$QAV<lambda_c76fdea48760d5f9368b465f31df4405>@@AAV<lambda_e378711a6f6581bf7f0efd7cdf97f5d9>@@$$QAV<lambda_e927a58b2a85c081d733e8c6192ae2d2>@@@Z 100785ac f i libucrt:wsetlocale.obj
 0001:000775ef       ??$__acrt_lock_and_call@V<lambda_e378711a6f6581bf7f0efd7cdf97f5d9>@@@@YAXW4__acrt_lock_id@@$$QAV<lambda_e378711a6f6581bf7f0efd7cdf97f5d9>@@@Z 100785ef f i libucrt:wsetlocale.obj
 0001:00077771       ___acrt_copy_locale_name   10078771 f   libucrt:wsetlocale.obj
 0001:000777d7       ___acrt_set_locale_changed 100787d7 f   libucrt:wsetlocale.obj
 0001:000777e2       ___acrt_uninitialize_locale 100787e2 f   libucrt:wsetlocale.obj
 0001:00077834       ___lc_lctowcs              10078834 f   libucrt:wsetlocale.obj
 0001:000778a4       ___lc_wcstolc              100788a4 f   libucrt:wsetlocale.obj
 0001:00077a02       __expandlocale             10078a02 f   libucrt:wsetlocale.obj
 0001:00077d79       __wcscats                  10078d79 f   libucrt:wsetlocale.obj
 0001:00077dba       __wsetlocale               10078dba f   libucrt:wsetlocale.obj
 0001:000787f0       ___acrt_initialize_lowio   100797f0 f   libucrt:ioinit.obj
 0001:00078846       ___acrt_uninitialize_lowio 10079846 f   libucrt:ioinit.obj
 0001:000788b8       ??$?RV<lambda_9227be29367c048ad7fd93a717dcb1a1>@@AAV<lambda_a463b7b0560cfcaf9b17f27c6ef46564>@@V<lambda_ccea11b5727ccf69be64f5f5d9a08d9f>@@@?$__crt_seh_guarded_call@H@@QAEH$$QAV<lambda_9227be29367c048ad7fd93a717dcb1a1>@@AAV<lambda_a463b7b0560cfcaf9b17f27c6ef46564>@@$$QAV<lambda_ccea11b5727ccf69be64f5f5d9a08d9f>@@@Z 100798b8 f i libucrt:winapi_thunks.obj
 0001:0007893c       ??$__acrt_lock_and_call@V<lambda_a463b7b0560cfcaf9b17f27c6ef46564>@@@@YAHW4__acrt_lock_id@@$$QAV<lambda_a463b7b0560cfcaf9b17f27c6ef46564>@@@Z 1007993c f i libucrt:winapi_thunks.obj
 0001:00078a95       ___acrt_AreFileApisANSI@0  10079a95 f   libucrt:winapi_thunks.obj
 0001:00078ae3       ___acrt_CompareStringEx@36 10079ae3 f   libucrt:winapi_thunks.obj
 0001:00078b57       ___acrt_EnumSystemLocalesEx@16 10079b57 f   libucrt:winapi_thunks.obj
 0001:00078bc4       ___acrt_FlsAlloc@4         10079bc4 f   libucrt:winapi_thunks.obj
 0001:00078c1a       ___acrt_FlsFree@4          10079c1a f   libucrt:winapi_thunks.obj
 0001:00078c70       ___acrt_FlsGetValue@4      10079c70 f   libucrt:winapi_thunks.obj
 0001:00078cc6       ___acrt_FlsSetValue@8      10079cc6 f   libucrt:winapi_thunks.obj
 0001:00078d1f       ___acrt_GetLocaleInfoEx@16 10079d1f f   libucrt:winapi_thunks.obj
 0001:00078d89       ___acrt_GetSystemTimePreciseAsFileTime@4 10079d89 f   libucrt:winapi_thunks.obj
 0001:00078ddf       ___acrt_GetUserDefaultLocaleName@8 10079ddf f   libucrt:winapi_thunks.obj
 0001:00078e46       ___acrt_InitializeCriticalSectionEx@12 10079e46 f   libucrt:winapi_thunks.obj
 0001:00078ea8       ___acrt_IsValidLocaleName@4 10079ea8 f   libucrt:winapi_thunks.obj
 0001:00078f0b       ___acrt_LCIDToLocaleName@16 10079f0b f   libucrt:winapi_thunks.obj
 0001:00078f75       ___acrt_LCMapStringEx@36   10079f75 f   libucrt:winapi_thunks.obj
 0001:00078ffd       ___acrt_LocaleNameToLCID@8 10079ffd f   libucrt:winapi_thunks.obj
 0001:00079059       ___acrt_can_use_vista_locale_apis 1007a059 f   libucrt:winapi_thunks.obj
 0001:00079065       ___acrt_initialize_winapi_thunks 1007a065 f   libucrt:winapi_thunks.obj
 0001:0007908b       ___acrt_is_packaged_app    1007a08b f   libucrt:winapi_thunks.obj
 0001:00079112       ___acrt_uninitialize_winapi_thunks 1007a112 f   libucrt:winapi_thunks.obj
 0001:00079148       __isctype_l                1007a148 f   libucrt:isctype.obj
 0001:0007921a       __fcloseall                1007a21a f   libucrt:closeall.obj
 0001:000792ba       ___acrt_stdio_free_buffer_nolock 1007a2ba f   libucrt:_freebuf.obj
 0001:00079471       __mbstowcs_s_l             1007a471 f   libucrt:mbstowcs.obj
 0001:00079554       _mbstowcs_s                1007a554 f   libucrt:mbstowcs.obj
 0001:00079625       _strncpy_s                 1007a625 f   libucrt:strncpy_s.obj
 0001:00079630       ?__acrt_stdio_allocate_stream@@YA?AV__crt_stdio_stream@@XZ 1007a630 f   libucrt:stream.obj
 0001:0007968f       ?__acrt_stdio_free_stream@@YAXV__crt_stdio_stream@@@Z 1007a68f f   libucrt:stream.obj
 0001:0007978d       ??$__acrt_stdio_parse_mode@D@@YA?AU__acrt_stdio_stream_mode@@QBD@Z 1007a78d f i libucrt:openfile.obj
 0001:000799bf       ??$__acrt_stdio_parse_mode@_W@@YA?AU__acrt_stdio_stream_mode@@QB_W@Z 1007a9bf f i libucrt:openfile.obj
 0001:00079d0d       ?__acrt_stdio_parse_mode_D@@YA_NAAU__acrt_stdio_stream_mode@@@Z 1007ad0d f i libucrt:openfile.obj
 0001:00079d28       ?__acrt_stdio_parse_mode_T@@YA_NAAU__acrt_stdio_stream_mode@@@Z 1007ad28 f i libucrt:openfile.obj
 0001:00079d47       ?__acrt_stdio_parse_mode_b@@YA_NAAU__acrt_stdio_stream_mode@@@Z 1007ad47 f i libucrt:openfile.obj
 0001:00079d67       ?__acrt_stdio_parse_mode_c@@YA_NAAU__acrt_stdio_stream_mode@@AA_N@Z 1007ad67 f i libucrt:openfile.obj
 0001:00079d89       ?__acrt_stdio_parse_mode_n@@YA_NAAU__acrt_stdio_stream_mode@@AA_N@Z 1007ad89 f i libucrt:openfile.obj
 0001:00079dab       ?__acrt_stdio_parse_mode_plus@@YA_NAAU__acrt_stdio_stream_mode@@AA_N@Z 1007adab f i libucrt:openfile.obj
 0001:00079de0       ?__acrt_stdio_parse_mode_t@@YA_NAAU__acrt_stdio_stream_mode@@@Z 1007ade0 f i libucrt:openfile.obj
 0001:00079e00       __openfile                 1007ae00 f   libucrt:openfile.obj
 0001:00079e0b       __wopenfile                1007ae0b f   libucrt:openfile.obj
 0001:00079e16       ??$?RV<lambda_123407a5e2ac06da108355a851863b7a>@@AAV<lambda_2fe9b910cf3cbf4a0ab98a02ba45b3ec>@@V<lambda_ae55bdf541ad94d75914d381c370e64d>@@@?$__crt_seh_guarded_call@H@@QAEH$$QAV<lambda_123407a5e2ac06da108355a851863b7a>@@AAV<lambda_2fe9b910cf3cbf4a0ab98a02ba45b3ec>@@$$QAV<lambda_ae55bdf541ad94d75914d381c370e64d>@@@Z 1007ae16 f i libucrt:close.obj
 0001:00079e98       ??$__acrt_lowio_lock_fh_and_call@V<lambda_2fe9b910cf3cbf4a0ab98a02ba45b3ec>@@@@YAHH$$QAV<lambda_2fe9b910cf3cbf4a0ab98a02ba45b3ec>@@@Z 1007ae98 f i libucrt:close.obj
 0001:00079ec0       __close                    1007aec0 f   libucrt:close.obj
 0001:00079f3f       __close_nolock             1007af3f f   libucrt:close.obj
 0001:00079fdb       ??$?RV<lambda_61cee617f5178ae960314fd4d05640a0>@@AAV<lambda_6978c1fb23f02e42e1d9e99668cc68aa>@@V<lambda_9cd88cf8ad10232537feb2133f08c833>@@@?$__crt_seh_guarded_call@H@@QAEH$$QAV<lambda_61cee617f5178ae960314fd4d05640a0>@@AAV<lambda_6978c1fb23f02e42e1d9e99668cc68aa>@@$$QAV<lambda_9cd88cf8ad10232537feb2133f08c833>@@@Z 1007afdb f i libucrt:commit.obj
 0001:0007a073       ??$__acrt_lowio_lock_fh_and_call@V<lambda_6978c1fb23f02e42e1d9e99668cc68aa>@@@@YAHH$$QAV<lambda_6978c1fb23f02e42e1d9e99668cc68aa>@@@Z 1007b073 f i libucrt:commit.obj
 0001:0007a09b       __commit                   1007b09b f   libucrt:commit.obj
 0001:0007a69a       __write                    1007b69a f   libucrt:write.obj
 0001:0007a785       __write_nolock             1007b785 f   libucrt:write.obj
 0001:0007ae79       __read                     1007be79 f   libucrt:read.obj
 0001:0007af8c       __read_nolock              1007bf8c f   libucrt:read.obj
 0001:0007b4c2       ___acrt_stdio_refill_and_read_narrow_nolock 1007c4c2 f   libucrt:_filbuf.obj
 0001:0007b650       __lseeki64                 1007c650 f   libucrt:lseek.obj
 0001:0007b66b       __lseeki64_nolock          1007c66b f   libucrt:lseek.obj
 0001:0007b863       ___acrt_stdio_flush_and_write_narrow_nolock 1007c863 f   libucrt:_flsbuf.obj
 0001:0007b86e       ___acrt_lowio_create_handle_array 1007c86e f   libucrt:osfinfo.obj
 0001:0007b8e8       ___acrt_lowio_destroy_handle_array 1007c8e8 f   libucrt:osfinfo.obj
 0001:0007b91d       ___acrt_lowio_ensure_fh_exists 1007c91d f   libucrt:osfinfo.obj
 0001:0007b9b5       ___acrt_lowio_lock_fh      1007c9b5 f   libucrt:osfinfo.obj
 0001:0007b9d8       ___acrt_lowio_set_os_handle 1007c9d8 f   libucrt:osfinfo.obj
 0001:0007ba6c       ___acrt_lowio_unlock_fh    1007ca6c f   libucrt:osfinfo.obj
 0001:0007ba8f       __alloc_osfhnd             1007ca8f f   libucrt:osfinfo.obj
 0001:0007bba1       __free_osfhnd              1007cba1 f   libucrt:osfinfo.obj
 0001:0007bc32       __get_osfhandle            1007cc32 f   libucrt:osfinfo.obj
 0001:0007bc9c       ___acrt_initialize_timeset 1007cc9c f   libucrt:timeset.obj
 0001:0007bcd3       __strnicoll                1007ccd3 f   libucrt:strnicol.obj
 0001:0007bcfc       __strnicoll_l              1007ccfc f   libucrt:strnicol.obj
 0001:0007bdc6       _iswctype                  1007cdc6 f   libucrt:iswctype.obj
 0001:0007be30       ___ascii_strnicmp          1007ce30 f   libucrt:_strnicm.obj
 0001:0007be91       _fegetround                1007ce91 f   libucrt:fegetround.obj
 0001:0007be9c       __isleadbyte_l             1007ce9c f i libucrt:_wctype.obj
 0001:0007c0f2       ___acrt_LCMapStringA       1007d0f2 f   libucrt:lcmapstringa.obj
 0001:0007c13d       ___dcrt_lowio_initialize_console_input 1007d13d f   libucrt:initconin.obj
 0001:0007c15c       ___dcrt_terminate_console_input 1007d15c f   libucrt:initconin.obj
 0001:0007c173       ___acrt_stdio_allocate_buffer_nolock 1007d173 f   libucrt:_getbuf.obj
 0001:0007c451       __wcstombs_s_l             1007d451 f   libucrt:wcstombs.obj
 0001:0007c51e       __query_new_mode           1007d51e f   libucrt:new_mode.obj
 0001:0007c524       ___acrt_initialize_heap    1007d524 f   libucrt:heap_handle.obj
 0001:0007c535       ___acrt_uninitialize_heap  1007d535 f   libucrt:heap_handle.obj
 0001:0007c63a       ___acrt_GetLocaleInfoA     1007d63a f   libucrt:getlocaleinfoa.obj
 0001:0007c7ec       ___acrt_GetStringTypeA     1007d7ec f   libucrt:getstringtypea.obj
 0001:0007c909       __errcode                  1007d909 f   libucrt:fpexcept.obj
 0001:0007c93d       __except1                  1007d93d f   libucrt:fpexcept.obj
 0001:0007ca0b       __handle_exc               1007da0b f   libucrt:fpexcept.obj
 0001:0007cbeb       __raise_exc                1007dbeb f   libucrt:fpexcept.obj
 0001:0007cc0e       __raise_exc_ex             1007dc0e f   libucrt:fpexcept.obj
 0001:0007ceff       __set_errno_from_matherr   1007deff f   libucrt:fpexcept.obj
 0001:0007cf2e       __umatherr                 1007df2e f   libucrt:fpexcept.obj
 0001:0007cfd0       __decomp                   1007dfd0 f   libucrt:util.obj
 0001:0007d0a4       __set_exp                  1007e0a4 f   libucrt:util.obj
 0001:0007d0d3       __sptype                   1007e0d3 f   libucrt:util.obj
 0001:0007d131       __clrfp                    1007e131 f   libucrt:fpctrl.obj
 0001:0007d144       __ctrlfp                   1007e144 f   libucrt:fpctrl.obj
 0001:0007d170       __set_statfp               1007e170 f   libucrt:fpctrl.obj
 0001:0007d1cb       __statfp                   1007e1cb f   libucrt:fpctrl.obj
 0001:0007d1dd       __fpclass                  1007e1dd f   libucrt:ieeemisc.obj
 0001:0007d281       ___acrt_initialize_sse2    1007e281 f   libucrt:mathfcns.obj
 0001:0007d290       __CIpow_pentium4           1007e290 f   libucrt:pow_pentium4.obj
 0001:0007d2a9       __pow_pentium4             1007e2a9     libucrt:pow_pentium4.obj
 0001:0007ddc1       __fFEXP                    1007edc1     libucrt:87tran.obj
 0001:0007de18       __rtinfpopse               1007ee18     libucrt:87tran.obj
 0001:0007de1a       __rtinfnpopse              1007ee1a     libucrt:87tran.obj
 0001:0007de2a       __fFLN                     1007ee2a     libucrt:87tran.obj
 0001:0007dedf       __rtinfpop                 1007eedf     libucrt:87tran.obj
 0001:0007dee1       __rtinfnpop                1007eee1     libucrt:87tran.obj
 0001:0007defe       __ffexpm1                  1007eefe     libucrt:87tran.obj
 0001:0007dfb0       __trandisp1                1007efb0 f   libucrt:87disp.obj
 0001:0007e017       __trandisp2                1007f017 f   libucrt:87disp.obj
 0001:0007e0a3       __rttospopde               1007f0a3     libucrt:87disp.obj
 0001:0007e0a8       __rttospop                 1007f0a8     libucrt:87disp.obj
 0001:0007e0aa       __rtnospop                 1007f0aa     libucrt:87disp.obj
 0001:0007e0ac       __rttosnpop                1007f0ac     libucrt:87disp.obj
 0001:0007e0ad       __rtnospopde               1007f0ad     libucrt:87disp.obj
 0001:0007e0b4       __rtzeropop                1007f0b4     libucrt:87disp.obj
 0001:0007e0b6       __rtzeronpop               1007f0b6     libucrt:87disp.obj
 0001:0007e0bb       __rtzerospop               1007f0bb     libucrt:87disp.obj
 0001:0007e0c8       __rtonepop                 1007f0c8     libucrt:87disp.obj
 0001:0007e0ca       __rtonenpop                1007f0ca     libucrt:87disp.obj
 0001:0007e0cf       __tosnan1                  1007f0cf     libucrt:87disp.obj
 0001:0007e0fa       __nosnan2                  1007f0fa     libucrt:87disp.obj
 0001:0007e0fc       __tosnan2                  1007f0fc     libucrt:87disp.obj
 0001:0007e124       __nan2                     1007f124     libucrt:87disp.obj
 0001:0007e163       __rtindfpop                1007f163     libucrt:87disp.obj
 0001:0007e165       __rtindfnpop               1007f165     libucrt:87disp.obj
 0001:0007e176       __rttosnpopde              1007f176     libucrt:87disp.obj
 0001:0007e180       __rtatan2inf               1007f180     libucrt:87disp.obj
 0001:0007e19d       __rtchsifneg               1007f19d     libucrt:87disp.obj
 0001:0007e1b0       __startTwoArgErrorHandling 1007f1b0 f   libucrt:genexcep.obj
 0001:0007e1c7       __startOneArgErrorHandling 1007f1c7 f   libucrt:genexcep.obj
 0001:0007e210       __twoToTOS                 1007f210 f   libucrt:common.obj
 0001:0007e225       __load_CW                  1007f225 f   libucrt:common.obj
 0001:0007e23c       __convertTOStoQNaN         1007f23c f   libucrt:common.obj
 0001:0007e255       __fload_withFB             1007f255 f   libucrt:common.obj
 0001:0007e298       __checkTOS_withFB          1007f298 f   libucrt:common.obj
 0001:0007e2ae       __fast_exit                1007f2ae f   libucrt:common.obj
 0001:0007e2bb       __math_exit                1007f2bb f   libucrt:common.obj
 0001:0007e2e5       __check_overflow_exit      1007f2e5 f   libucrt:common.obj
 0001:0007e2f9       __check_range_exit         1007f2f9 f   libucrt:common.obj
 0001:0007e39c       __d_inttype                1007f39c f   libucrt:powhlp.obj
 0001:0007e406       __powhlp                   1007f406 f   libucrt:powhlp.obj
 0001:0007e531       __wcsicmp                  1007f531 f   libucrt:wcsicmp.obj
 0001:0007e5c6       __wcsicmp_l                1007f5c6 f   libucrt:wcsicmp.obj
 0001:0007ea68       ??1?$argument_list@D@?A0xb0e4b824@@QAE@XZ 1007fa68 f i libucrt:argv_wildcards.obj
 0001:0007ea8d       ?append@?$argument_list@D@?A0xb0e4b824@@QAEHQAD@Z 1007fa8d f i libucrt:argv_wildcards.obj
 0001:0007eac2       ?expand_if_necessary@?$argument_list@D@?A0xb0e4b824@@AAEHXZ 1007fac2 f i libucrt:argv_wildcards.obj
 0001:0007eb49       ___acrt_expand_narrow_argv_wildcards 1007fb49 f   libucrt:argv_wildcards.obj
 0001:0007eb54       ??$?RV<lambda_978dc153c237d78434369da87b74ff60>@@AAV<lambda_ad1ced32f4ac17aa236e5ef05d6b3b7c>@@V<lambda_4a8533e2866a575feecb8298ce776b0d>@@@?$__crt_seh_guarded_call@X@@QAEX$$QAV<lambda_978dc153c237d78434369da87b74ff60>@@AAV<lambda_ad1ced32f4ac17aa236e5ef05d6b3b7c>@@$$QAV<lambda_4a8533e2866a575feecb8298ce776b0d>@@@Z 1007fb54 f i libucrt:mbctype.obj
 0001:0007eb97       ??$__acrt_lock_and_call@V<lambda_ad1ced32f4ac17aa236e5ef05d6b3b7c>@@@@YAXW4__acrt_lock_id@@$$QAV<lambda_ad1ced32f4ac17aa236e5ef05d6b3b7c>@@@Z 1007fb97 f i libucrt:mbctype.obj
 0001:0007f02f       ___acrt_initialize_multibyte 1008002f f   libucrt:mbctype.obj
 0001:0007f04d       ___acrt_update_thread_multibyte_data 1008004d f   libucrt:mbctype.obj
 0001:0007f0ef       __setmbcp_nolock           100800ef f   libucrt:mbctype.obj
 0001:0007f2e0       ___acrt_initialize_command_line 100802e0 f   libucrt:argv_data.obj
 0001:0007f330       ___dcrt_get_narrow_environment_from_os 10080330 f   libucrt:get_environment_from_os.obj
 0001:0007f6f3       ___dcrt_set_variable_in_narrow_environment_nolock 100806f3 f   libucrt:setenv.obj
 0001:0007f6fe       __recalloc                 100806fe f   libucrt:recalloc.obj
 0001:0007f709       __recalloc_base            10080709 f   libucrt:recalloc.obj
 0001:0007f776       ___acrt_execute_initializers 10080776 f   libucrt:shared_initialization.obj
 0001:0007f7f9       ___acrt_execute_uninitializers 100807f9 f   libucrt:shared_initialization.obj
 0001:0007f846       ?initialize@?$dual_state_global@P6AHI@Z@__crt_state_management@@QAEXQ6AHI@Z@Z 10080846 f i libucrt:new_handler.obj
 0001:0007f846       ?initialize@?$dual_state_global@J@__crt_state_management@@QAEXJ@Z 10080846 f i libucrt:timeset.obj
 0001:0007f846       ?initialize@?$dual_state_global@PAU__crt_locale_data@@@__crt_state_management@@QAEXQAU__crt_locale_data@@@Z 10080846 f i libucrt:initialization.obj
 0001:0007f846       ?initialize@?$dual_state_global@H@__crt_state_management@@QAEXH@Z 10080846 f i libucrt:timeset.obj
 0001:0007f846       ?initialize@?$dual_state_global@P6AHPAU_exception@@@Z@__crt_state_management@@QAEXQ6AHPAU_exception@@@Z@Z 10080846 f i libucrt:matherr.obj
 0001:0007f846       ?initialize@?$dual_state_global@PAPAD@__crt_state_management@@QAEXQAPAD@Z 10080846 f i libucrt:environment_initialization.obj
 0001:0007f846       ?initialize@?$dual_state_global@P6AXH@Z@__crt_state_management@@QAEXQ6AXH@Z@Z 10080846 f i libucrt:signal.obj
 0001:0007f846       ?initialize@?$dual_state_global@P6AXPB_W00II@Z@__crt_state_management@@QAEXQ6AXPB_W00II@Z@Z 10080846 f i libucrt:invalid_parameter.obj
 0001:0007f877       ___acrt_has_user_matherr   10080877 f   libucrt:matherr.obj
 0001:0007f890       ___acrt_initialize_user_matherr 10080890 f   libucrt:matherr.obj
 0001:0007f8a4       ___acrt_invoke_user_matherr 100808a4 f   libucrt:matherr.obj
 0001:0007f8ed       ___acrt_add_locale_ref     100808ed f   libucrt:locale_refcounting.obj
 0001:0007f96a       ___acrt_free_locale        1008096a f   libucrt:locale_refcounting.obj
 0001:0007fab4       ___acrt_locale_add_lc_time_reference 10080ab4 f   libucrt:locale_refcounting.obj
 0001:0007fadd       ___acrt_locale_free_lc_time_if_unreferenced 10080add f   libucrt:locale_refcounting.obj
 0001:0007fb0d       ___acrt_locale_release_lc_time_reference 10080b0d f   libucrt:locale_refcounting.obj
 0001:0007fb36       ___acrt_release_locale_ref 10080b36 f   libucrt:locale_refcounting.obj
 0001:0007fbb7       ___acrt_update_thread_locale_data 10080bb7 f   libucrt:locale_refcounting.obj
 0001:0007fc2e       __updatetlocinfoEx_nolock  10080c2e f   libucrt:locale_refcounting.obj
 0001:0007fc7e       ___acrt_fp_strflt_to_string 10080c7e f   libucrt:_fptostr.obj
 0001:0007fd3a       ??0scoped_fp_state_reset@?A0x48fbfdd4@@QAE@XZ 10080d3a f i libucrt:cfout.obj
 0001:0007fd64       ___acrt_fltout             10080d64 f   libucrt:cfout.obj
 0001:00081100       __isatty                   10082100 f   libucrt:isatty.obj
 0001:00081156       ___acrt_locale_free_monetary 10082156 f   libucrt:initmon.obj
 0001:00081254       ___acrt_locale_initialize_monetary 10082254 f   libucrt:initmon.obj
 0001:00081610       ___acrt_locale_free_numeric 10082610 f   libucrt:initnum.obj
 0001:00081679       ___acrt_locale_initialize_numeric 10082679 f   libucrt:initnum.obj
 0001:00081b4e       ___acrt_locale_free_time   10082b4e f   libucrt:inittime.obj
 0001:00081c32       ___acrt_locale_initialize_time 10082c32 f   libucrt:inittime.obj
 0001:00081cb1       _wcscat_s                  10082cb1 f   libucrt:wcscat_s.obj
 0001:00081df3       _wcsncpy_s                 10082df3 f   libucrt:wcsncpy_s.obj
 0001:00081dfe       _wcscspn                   10082dfe f   libucrt:wcscspn.obj
 0001:00081e4e       _wcsncmp                   10082e4e f   libucrt:wcsncmp.obj
 0001:00081e88       _wcspbrk                   10082e88 f   libucrt:wcspbrk.obj
 0001:000825cb       ___acrt_get_qualified_locale 100835cb f   libucrt:get_qualified_locale.obj
 0001:00082f03       ___acrt_get_qualified_locale_downlevel 10083f03 f   libucrt:getqloc_downlevel.obj
 0001:000831c6       ___acrt_DownlevelLCIDToLocaleName 100841c6 f   libucrt:lcidtoname_downlevel.obj
 0001:00083270       ___acrt_DownlevelLocaleNameToLCID 10084270 f   libucrt:lcidtoname_downlevel.obj
 0001:0008329c       __wcsnicmp                 1008429c f   libucrt:wcsnicmp.obj
 0001:00083354       __wcsnicmp_l               10084354 f   libucrt:wcsnicmp.obj
 0001:00083afb       __sopen_nolock             10084afb f   libucrt:open.obj
 0001:00083b4c       __sopen_s                  10084b4c f   libucrt:open.obj
 0001:00083b6c       __wsopen_nolock            10084b6c f   libucrt:open.obj
 0001:00083e95       __wsopen_s                 10084e95 f   libucrt:open.obj
 0001:00083eb5       __putwch_nolock            10084eb5 f   libucrt:putwch.obj
 0001:00083efa       __query_app_type           10084efa f   libucrt:report_runtime_error.obj
 0001:000841a8       ___acrt_CompareStringA     100851a8 f   libucrt:comparestringa.obj
 0001:00084493       __getfpcontrolword         10085493 f   libucrt:_fenvutils.obj
 0001:000844d6       __getfpstatusword          100854d6 f   libucrt:_fenvutils.obj
 0001:0008457e       __setfpcontrolword         1008557e f   libucrt:_fenvutils.obj
 0001:000845fe       __setfpstatusword          100855fe f   libucrt:_fenvutils.obj
 0001:0008467e       ___libm_error_support      1008567e f   libucrt:libm_error.obj
 0001:00084896       __87except                 10085896 f   libucrt:87except.obj
 0001:000849a1       __frnd                     100859a1 f   libucrt:frnd.obj
 0001:000849b7       __towlower_l               100859b7 f   libucrt:towlower.obj
 0001:00084a80       _strpbrk                   10085a80 f   libucrt:strpbrk.obj
 0001:00084ac0       __mbsdec                   10085ac0 f   libucrt:mbsdec.obj
 0001:00084ad7       __mbsdec_l                 10085ad7 f   libucrt:mbsdec.obj
 0001:00084b73       __msize                    10085b73 f   libucrt:msize.obj
 0001:00084ba6       _fegetenv                  10085ba6 f   libucrt:fegetenv.obj
 0001:00084bc3       _fesetenv                  10085bc3 f   libucrt:fesetenv.obj
 0001:00084c0c       _feholdexcept              10085c0c f   libucrt:feholdexcept.obj
 0001:00084c60       _log10                     10085c60 f   libucrt:log10.obj
 0001:00084ca0       __CIlog10                  10085ca0 f   libucrt:log10.obj
 0001:00084cdb       __CIlog10_default          10085cdb f   libucrt:log10.obj
 0001:00084cef       __log10_default            10085cef     libucrt:log10.obj
 0001:00084db0       _ceil                      10085db0 f   libucrt:ceil_pentium4.obj
 0001:00084df0       __ceil_pentium4            10085df0 f   libucrt:ceil_pentium4.obj
 0001:00084fba       __itow_s                   10085fba f   libucrt:xtoa.obj
 0001:00084fef       ___acrt_copy_path_to_wide_string 10085fef f   libucrt:string_utilities.obj
 0001:000850b6       __chsize_nolock            100860b6 f   libucrt:chsize.obj
 0001:00085247       ___dcrt_lowio_initialize_console_output 10086247 f   libucrt:initcon.obj
 0001:00085266       ___dcrt_terminate_console_output 10086266 f   libucrt:initcon.obj
 0001:0008527d       ___acrt_LCMapStringW       1008627d f   libucrt:lcmapstringw.obj
 0001:000852bb       __clearfp                  100862bb f   libucrt:ieee87.obj
 0001:000853a0       __CIlog10_pentium4         100863a0 f   libucrt:log10_pentium4.obj
 0001:000853b8       __log10_pentium4           100863b8     libucrt:log10_pentium4.obj
 0001:00085630       __ceil_default             10086630 f   libucrt:ceil.obj
 0001:000856ea       _IsProcessorFeaturePresent@4 100866ea f   kernel32:KERNEL32.dll
 0001:000856f0       _RtlUnwind@16              100866f0 f   kernel32:KERNEL32.dll
 0001:000856f6       ?DloadAcquireSectionWriteAccess@@YGXXZ 100866f6 f i DelayImp:delayhlp.obj
 0001:00085729       ?DloadGetSRWLockFunctionPointers@@YGEXZ 10086729 f i DelayImp:delayhlp.obj
 0001:000857a4       ?DloadLock@@YGXXZ          100867a4 f i DelayImp:delayhlp.obj
 0001:00085801       ?DloadMakePermanentImageCommit@@YGXPAXK@Z 10086801 f i DelayImp:delayhlp.obj
 0001:00085873       ?DloadObtainSection@@YGPAXPAK0@Z 10086873 f i DelayImp:delayhlp.obj
 0001:000858f6       ?DloadProtectSection@@YGXKPAK@Z 100868f6 f i DelayImp:delayhlp.obj
 0001:00085966       ?DloadReleaseSectionWriteAccess@@YGXXZ 10086966 f i DelayImp:delayhlp.obj
 0001:0008599e       ?DloadUnlock@@YGXXZ        1008699e f i DelayImp:delayhlp.obj
 0001:000859e8       ___delayLoadHelper2@8      100869e8 f   DelayImp:delayhlp.obj
 0001:00085c70       __FindPESection            10086c70 f   LIBCMT:pesect.obj
 0001:00085cc0       __IsNonwritableInCurrentImage 10086cc0 f   LIBCMT:pesect.obj
 0001:00085d80       __ValidateImageBase        10086d80 f   LIBCMT:pesect.obj
 0001:00085dc0       __alldvrm                  10086dc0 f   LIBCMT:lldvrm.obj
 0001:00085ea0       __alldiv                   10086ea0 f   LIBCMT:lldiv.obj
 0001:00085f50       __SEH_prolog4_GS           10086f50 f   LIBCMT:_sehprolg4gs_.obj
 0001:00085f99       __SEH_epilog4_GS           10086f99 f   LIBCMT:_sehprolg4gs_.obj
 0001:00085fb0       __allrem                   10086fb0 f   LIBCMT:llrem.obj
 0001:00086070       __allshl                   10087070 f   LIBCMT:llshl.obj
 0001:00086090       __ftol2_sse                10087090 f   LIBCMT:_ftol2_.obj
 0001:00086099       __ftol2_pentium4           10087099 f   LIBCMT:_ftol2_.obj
 0001:000860ac       __ftol2_sse_excpt          100870ac f   LIBCMT:_ftol2_.obj
 0001:000860d0       __ftol2                    100870d0 f   LIBCMT:_ftol2_.obj
 0001:00086145       _wcschr                    10087145 f   libvcruntime:wcschr.obj
 0001:00086430       ??__F_Static@?1???$_Immortalize@V_Iostream_error_category@std@@@std@@YAAAV_Iostream_error_category@0@XZ@YAXXZ 10087430 f i DeviceQuery.obj
 0002:00000000       __imp__ReportEventA@36     10088000     advapi32:ADVAPI32.dll
 0002:00000004       __imp__RegisterEventSourceA@8 10088004     advapi32:ADVAPI32.dll
 0002:00000008       __imp__DeregisterEventSource@4 10088008     advapi32:ADVAPI32.dll
 0002:0000000c       \177ADVAPI32_NULL_THUNK_DATA 1008800c     advapi32:ADVAPI32.dll
 0002:00000010       __imp__VirtualProtect@16   10088010     kernel32:KERNEL32.dll
 0002:00000014       __imp__GetModuleHandleA@4  10088014     kernel32:KERNEL32.dll
 0002:00000018       __imp__GetCurrentProcess@0 10088018     kernel32:KERNEL32.dll
 0002:0000001c       __imp__SetPriorityClass@8  1008801c     kernel32:KERNEL32.dll
 0002:00000020       __imp__WideCharToMultiByte@32 10088020     kernel32:KERNEL32.dll
 0002:00000024       __imp__GetSystemInfo@4     10088024     kernel32:KERNEL32.dll
 0002:00000028       __imp__CloseHandle@4       10088028     kernel32:KERNEL32.dll
 0002:0000002c       __imp__GetVersionExA@4     1008802c     kernel32:KERNEL32.dll
 0002:00000030       __imp__CreateFileA@28      10088030     kernel32:KERNEL32.dll
 0002:00000034       __imp__VirtualQuery@12     10088034     kernel32:KERNEL32.dll
 0002:00000038       __imp__DeviceIoControl@32  10088038     kernel32:KERNEL32.dll
 0002:0000003c       __imp__GetLastError@0      1008803c     kernel32:KERNEL32.dll
 0002:00000040       __imp__MultiByteToWideChar@24 10088040     kernel32:KERNEL32.dll
 0002:00000044       __imp__GetStdHandle@4      10088044     kernel32:KERNEL32.dll
 0002:00000048       __imp__GetFileType@4       10088048     kernel32:KERNEL32.dll
 0002:0000004c       __imp__WriteFile@20        1008804c     kernel32:KERNEL32.dll
 0002:00000050       __imp__GetCurrentThreadId@0 10088050     kernel32:KERNEL32.dll
 0002:00000054       __imp__GetProcAddress@8    10088054     kernel32:KERNEL32.dll
 0002:00000058       __imp__QueryPerformanceCounter@4 10088058     kernel32:KERNEL32.dll
 0002:0000005c       __imp__GetCurrentProcessId@0 1008805c     kernel32:KERNEL32.dll
 0002:00000060       __imp__GetTickCount@0      10088060     kernel32:KERNEL32.dll
 0002:00000064       __imp__FreeLibrary@4       10088064     kernel32:KERNEL32.dll
 0002:00000068       __imp__GlobalMemoryStatus@4 10088068     kernel32:KERNEL32.dll
 0002:0000006c       __imp__LoadLibraryA@4      1008806c     kernel32:KERNEL32.dll
 0002:00000070       __imp__FlushConsoleInputBuffer@4 10088070     kernel32:KERNEL32.dll
 0002:00000074       __imp__EnterCriticalSection@4 10088074     kernel32:KERNEL32.dll
 0002:00000078       __imp__LeaveCriticalSection@4 10088078     kernel32:KERNEL32.dll
 0002:0000007c       __imp__DeleteCriticalSection@4 1008807c     kernel32:KERNEL32.dll
 0002:00000080       __imp__EncodePointer@4     10088080     kernel32:KERNEL32.dll
 0002:00000084       __imp__DecodePointer@4     10088084     kernel32:KERNEL32.dll
 0002:00000088       __imp__SetLastError@4      10088088     kernel32:KERNEL32.dll
 0002:0000008c       __imp__InitializeCriticalSectionAndSpinCount@8 1008808c     kernel32:KERNEL32.dll
 0002:00000090       __imp__CreateEventW@16     10088090     kernel32:KERNEL32.dll
 0002:00000094       __imp__TlsAlloc@0          10088094     kernel32:KERNEL32.dll
 0002:00000098       __imp__TlsGetValue@4       10088098     kernel32:KERNEL32.dll
 0002:0000009c       __imp__TlsSetValue@8       1008809c     kernel32:KERNEL32.dll
 0002:000000a0       __imp__TlsFree@4           100880a0     kernel32:KERNEL32.dll
 0002:000000a4       __imp__GetSystemTimeAsFileTime@4 100880a4     kernel32:KERNEL32.dll
 0002:000000a8       __imp__GetModuleHandleW@4  100880a8     kernel32:KERNEL32.dll
 0002:000000ac       __imp__CompareStringW@24   100880ac     kernel32:KERNEL32.dll
 0002:000000b0       __imp__LCMapStringW@24     100880b0     kernel32:KERNEL32.dll
 0002:000000b4       __imp__GetLocaleInfoW@16   100880b4     kernel32:KERNEL32.dll
 0002:000000b8       __imp__GetStringTypeW@16   100880b8     kernel32:KERNEL32.dll
 0002:000000bc       __imp__GetCPInfo@8         100880bc     kernel32:KERNEL32.dll
 0002:000000c0       __imp__SetEvent@4          100880c0     kernel32:KERNEL32.dll
 0002:000000c4       __imp__ResetEvent@4        100880c4     kernel32:KERNEL32.dll
 0002:000000c8       __imp__WaitForSingleObjectEx@12 100880c8     kernel32:KERNEL32.dll
 0002:000000cc       __imp__UnhandledExceptionFilter@4 100880cc     kernel32:KERNEL32.dll
 0002:000000d0       __imp__SetUnhandledExceptionFilter@4 100880d0     kernel32:KERNEL32.dll
 0002:000000d4       __imp__TerminateProcess@8  100880d4     kernel32:KERNEL32.dll
 0002:000000d8       __imp__IsProcessorFeaturePresent@4 100880d8     kernel32:KERNEL32.dll
 0002:000000dc       __imp__IsDebuggerPresent@0 100880dc     kernel32:KERNEL32.dll
 0002:000000e0       __imp__GetStartupInfoW@4   100880e0     kernel32:KERNEL32.dll
 0002:000000e4       __imp__InitializeSListHead@4 100880e4     kernel32:KERNEL32.dll
 0002:000000e8       __imp__LocalFree@4         100880e8     kernel32:KERNEL32.dll
 0002:000000ec       __imp__RaiseException@16   100880ec     kernel32:KERNEL32.dll
 0002:000000f0       __imp__RtlUnwind@16        100880f0     kernel32:KERNEL32.dll
 0002:000000f4       __imp__LoadLibraryExW@12   100880f4     kernel32:KERNEL32.dll
 0002:000000f8       __imp__InterlockedFlushSList@4 100880f8     kernel32:KERNEL32.dll
 0002:000000fc       __imp__ReadFile@20         100880fc     kernel32:KERNEL32.dll
 0002:00000100       __imp__ExitProcess@4       10088100     kernel32:KERNEL32.dll
 0002:00000104       __imp__GetModuleHandleExW@12 10088104     kernel32:KERNEL32.dll
 0002:00000108       __imp__SetConsoleCtrlHandler@8 10088108     kernel32:KERNEL32.dll
 0002:0000010c       __imp__GetConsoleMode@8    1008810c     kernel32:KERNEL32.dll
 0002:00000110       __imp__ReadConsoleInputA@16 10088110     kernel32:KERNEL32.dll
 0002:00000114       __imp__SetConsoleMode@8    10088114     kernel32:KERNEL32.dll
 0002:00000118       __imp__HeapAlloc@12        10088118     kernel32:KERNEL32.dll
 0002:0000011c       __imp__HeapReAlloc@16      1008811c     kernel32:KERNEL32.dll
 0002:00000120       __imp__HeapFree@12         10088120     kernel32:KERNEL32.dll
 0002:00000124       __imp__GetModuleFileNameA@12 10088124     kernel32:KERNEL32.dll
 0002:00000128       __imp__GetACP@0            10088128     kernel32:KERNEL32.dll
 0002:0000012c       __imp__IsValidLocale@8     1008812c     kernel32:KERNEL32.dll
 0002:00000130       __imp__GetUserDefaultLCID@0 10088130     kernel32:KERNEL32.dll
 0002:00000134       __imp__EnumSystemLocalesW@8 10088134     kernel32:KERNEL32.dll
 0002:00000138       __imp__FlushFileBuffers@4  10088138     kernel32:KERNEL32.dll
 0002:0000013c       __imp__GetConsoleCP@0      1008813c     kernel32:KERNEL32.dll
 0002:00000140       __imp__ReadConsoleW@20     10088140     kernel32:KERNEL32.dll
 0002:00000144       __imp__SetFilePointerEx@20 10088144     kernel32:KERNEL32.dll
 0002:00000148       __imp__SetStdHandle@8      10088148     kernel32:KERNEL32.dll
 0002:0000014c       __imp__CreateFileW@28      1008814c     kernel32:KERNEL32.dll
 0002:00000150       __imp__GetProcessHeap@0    10088150     kernel32:KERNEL32.dll
 0002:00000154       __imp__FindClose@4         10088154     kernel32:KERNEL32.dll
 0002:00000158       __imp__FindFirstFileExA@24 10088158     kernel32:KERNEL32.dll
 0002:0000015c       __imp__FindNextFileA@8     1008815c     kernel32:KERNEL32.dll
 0002:00000160       __imp__IsValidCodePage@4   10088160     kernel32:KERNEL32.dll
 0002:00000164       __imp__GetOEMCP@0          10088164     kernel32:KERNEL32.dll
 0002:00000168       __imp__GetCommandLineA@0   10088168     kernel32:KERNEL32.dll
 0002:0000016c       __imp__GetCommandLineW@0   1008816c     kernel32:KERNEL32.dll
 0002:00000170       __imp__GetEnvironmentStringsW@0 10088170     kernel32:KERNEL32.dll
 0002:00000174       __imp__FreeEnvironmentStringsW@4 10088174     kernel32:KERNEL32.dll
 0002:00000178       __imp__SetEnvironmentVariableA@8 10088178     kernel32:KERNEL32.dll
 0002:0000017c       __imp__WriteConsoleW@20    1008817c     kernel32:KERNEL32.dll
 0002:00000180       __imp__HeapSize@12         10088180     kernel32:KERNEL32.dll
 0002:00000184       __imp__SetEndOfFile@4      10088184     kernel32:KERNEL32.dll
 0002:00000188       __imp__LoadLibraryExA@12   10088188     kernel32:KERNEL32.dll
 0002:0000018c       \177KERNEL32_NULL_THUNK_DATA 1008818c     kernel32:KERNEL32.dll
 0002:00000190       __imp__VariantInit@4       10088190     oleaut32:OLEAUT32.dll
 0002:00000194       __imp__SysFreeString@4     10088194     oleaut32:OLEAUT32.dll
 0002:00000198       __imp__SysAllocString@4    10088198     oleaut32:OLEAUT32.dll
 0002:0000019c       __imp__VariantClear@4      1008819c     oleaut32:OLEAUT32.dll
 0002:000001a0       \177OLEAUT32_NULL_THUNK_DATA 100881a0     oleaut32:OLEAUT32.dll
 0002:000001a4       __imp__GetProcessWindowStation@0 100881a4     user32:USER32.dll
 0002:000001a8       __imp__GetUserObjectInformationW@20 100881a8     user32:USER32.dll
 0002:000001ac       __imp__MessageBoxA@16      100881ac     user32:USER32.dll
 0002:000001b0       __imp__wsprintfA           100881b0     user32:USER32.dll
 0002:000001b4       \177USER32_NULL_THUNK_DATA 100881b4     user32:USER32.dll
 0002:000001b8       __imp__CoCreateInstance@20 100881b8     ole32:ole32.dll
 0002:000001bc       __imp__CoSetProxyBlanket@32 100881bc     ole32:ole32.dll
 0002:000001c0       __imp__CoInitializeSecurity@36 100881c0     ole32:ole32.dll
 0002:000001c4       __imp__CoUninitialize@0    100881c4     ole32:ole32.dll
 0002:000001c8       __imp__CoInitializeEx@8    100881c8     ole32:ole32.dll
 0002:000001cc       \177ole32_NULL_THUNK_DATA  100881cc     ole32:ole32.dll
 0002:000001d0       ___guard_check_icall_fptr  100881d0     LIBCMT:guard_support.obj
 0002:000001d4       ___xc_a                    100881d4     LIBCMT:initializers.obj
 0002:00000200       __register_DeviceQuery_    10088200     DeviceQuery.obj
 0002:00000204       ___xc_z                    10088204     LIBCMT:initializers.obj
 0002:00000208       ___xi_a                    10088208     LIBCMT:initializers.obj
 0002:00000214       ___acrt_stdio_initializer  10088214     libucrt:stdio_initializer.obj
 0002:00000218       ___acrt_timeset_initializer 10088218     libucrt:timeset_initializer.obj
 0002:0000021c       ___acrt_tran_sse2_initializer 1008821c     libucrt:sse2_initializer.obj
 0002:00000220       ___acrt_multibyte_initializer 10088220     libucrt:multibyte_initializer.obj
 0002:00000224       ___xi_z                    10088224     LIBCMT:initializers.obj
 0002:00000228       ___xl_a                    10088228     LIBCMT:tlssup.obj
 0002:0000022c       ___xl_z                    1008822c     LIBCMT:tlssup.obj
 0002:00000230       ___xp_a                    10088230     LIBCMT:initializers.obj
 0002:00000234       ___acrt_locale_terminator  10088234     libucrt:locale_initializer.obj
 0002:00000238       ___dcrt_console_input_terminator 10088238     libucrt:console_input_initializer.obj
 0002:0000023c       ___dcrt_console_output_terminator 1008823c     libucrt:console_output_initializer.obj
 0002:00000240       ___acrt_stdio_terminator   10088240     libucrt:stdio_initializer.obj
 0002:00000244       ___xp_z                    10088244     LIBCMT:initializers.obj
 0002:00000248       ___xt_a                    10088248     LIBCMT:initializers.obj
 0002:0000024c       ___xt_z                    1008824c     LIBCMT:initializers.obj
 0002:00000250       __sz_node_exe              10088250     node:node.exe
 0002:00000260       _BN_version                10088260     libeay32:bn_lib.obj
 0002:000003a8       ??_C@_0BF@OGBNCIDG@?4?2crypto?2bn?2bn_lib?4c?$AA@ 100883a8     libeay32:bn_lib.obj
 0002:000003d4       ??_C@_0BH@HBJNKHOA@?4?2crypto?2bn?2bn_print?4c?$AA@ 100883d4     libeay32:bn_print.obj
 0002:000003ec       ??_C@_01GBGANLPD@0?$AA@    100883ec     libeay32:bn_print.obj
 0002:000003f0       ??_C@_02GMHACPFF@?$CFu?$AA@ 100883f0     libeay32:bn_print.obj
 0002:000003f4       ??_C@_04LJCFADJL@?$CF09u?$AA@ 100883f4     libeay32:bn_print.obj
 0002:000003fc       ??_C@_01JOAMLHOP@?9?$AA@   100883fc     libeay32:bn_print.obj
 0002:00000400       ??_C@_0BI@BHJPKCFE@?4?2crypto?2rsa?2rsa_crpt?4c?$AA@ 10088400     libeay32:rsa_crpt.obj
 0002:00000418       _RSA_version               10088418     libeay32:rsa_lib.obj
 0002:00000440       ??_C@_0BH@MECNDGAA@?4?2crypto?2rsa?2rsa_lib?4c?$AA@ 10088440     libeay32:rsa_lib.obj
 0002:00000458       ??_C@_0BA@JLJAKIKL@unknown?5library?$AA@ 10088458     libeay32:err.obj
 0002:00000468       ??_C@_0P@KJHLNCML@system?5library?$AA@ 10088468     libeay32:err.obj
 0002:00000478       ??_C@_0BA@BALAMMCD@bignum?5routines?$AA@ 10088478     libeay32:err.obj
 0002:00000488       ??_C@_0N@FLFIDGHD@rsa?5routines?$AA@ 10088488     libeay32:err.obj
 0002:00000498       ??_C@_0BI@BELEOFAM@Diffie?9Hellman?5routines?$AA@ 10088498     libeay32:err.obj
 0002:000004b0       ??_C@_0BK@KCBHLAIJ@digital?5envelope?5routines?$AA@ 100884b0     libeay32:err.obj
 0002:000004cc       ??_C@_0BH@GHBGFOKA@memory?5buffer?5routines?$AA@ 100884cc     libeay32:err.obj
 0002:000004e4       ??_C@_0BL@GAJLDLEG@object?5identifier?5routines?$AA@ 100884e4     libeay32:err.obj
 0002:00000500       ??_C@_0N@PPOIEGDJ@PEM?5routines?$AA@ 10088500     libeay32:err.obj
 0002:00000510       ??_C@_0N@EPLKEPHE@dsa?5routines?$AA@ 10088510     libeay32:err.obj
 0002:00000520       ??_C@_0BK@MLDIFNOG@x509?5certificate?5routines?$AA@ 10088520     libeay32:err.obj
 0002:0000053c       ??_C@_0BH@OKMDKJBH@asn1?5encoding?5routines?$AA@ 1008853c     libeay32:err.obj
 0002:00000554       ??_C@_0BM@FNIFPKKP@configuration?5file?5routines?$AA@ 10088554     libeay32:err.obj
 0002:00000570       ??_C@_0BK@GOIAPJCF@common?5libcrypto?5routines?$AA@ 10088570     libeay32:err.obj
 0002:0000058c       ??_C@_0BI@NNCFPCDI@elliptic?5curve?5routines?$AA@ 1008858c     libeay32:err.obj
 0002:000005a4       ??_C@_0N@GAIJLNCL@SSL?5routines?$AA@ 100885a4     libeay32:err.obj
 0002:000005b4       ??_C@_0N@HGNFKBOI@BIO?5routines?$AA@ 100885b4     libeay32:err.obj
 0002:000005c4       ??_C@_0P@FBDCKDAN@PKCS7?5routines?$AA@ 100885c4     libeay32:err.obj
 0002:000005d4       ??_C@_0BB@LKDEPKLM@X509?5V3?5routines?$AA@ 100885d4     libeay32:err.obj
 0002:000005e8       ??_C@_0BA@KPFPMFD@PKCS12?5routines?$AA@ 100885e8     libeay32:err.obj
 0002:000005f8       ??_C@_0BI@GMPKPCPG@random?5number?5generator?$AA@ 100885f8     libeay32:err.obj
 0002:00000610       ??_C@_0BF@BDHLAIEM@DSO?5support?5routines?$AA@ 10088610     libeay32:err.obj
 0002:00000628       ??_C@_0BE@IMHDPIMO@time?5stamp?5routines?$AA@ 10088628     libeay32:err.obj
 0002:0000063c       ??_C@_0BA@MMHCJFKD@engine?5routines?$AA@ 1008863c     libeay32:err.obj
 0002:0000064c       ??_C@_0O@LJIADBLP@OCSP?5routines?$AA@ 1008864c     libeay32:err.obj
 0002:0000065c       ??_C@_0O@MDPFBMCI@FIPS?5routines?$AA@ 1008865c     libeay32:err.obj
 0002:0000066c       ??_C@_0N@MKJBFBO@CMS?5routines?$AA@ 1008866c     libeay32:err.obj
 0002:0000067c       ??_C@_0O@PBJMEGGG@HMAC?5routines?$AA@ 1008867c     libeay32:err.obj
 0002:0000068c       ??_C@_05FFKPLNPJ@fopen?$AA@ 1008868c     libeay32:err.obj
 0002:00000694       ??_C@_07KAIBNCHO@connect?$AA@ 10088694     libeay32:err.obj
 0002:0000069c       ??_C@_0O@NKLJGHIL@getservbyname?$AA@ 1008869c     libeay32:err.obj
 0002:000006ac       ??_C@_06HBELJPBO@socket?$AA@ 100886ac     libeay32:err.obj
 0002:000006b4       ??_C@_0M@PBPOCKDG@ioctlsocket?$AA@ 100886b4     libeay32:err.obj
 0002:000006c0       ??_C@_04NPNJNMMP@bind?$AA@ 100886c0     libeay32:err.obj
 0002:000006c8       ??_C@_06OODDLKLE@listen?$AA@ 100886c8     libeay32:err.obj
 0002:000006d0       ??_C@_06MPKMECK@accept?$AA@ 100886d0     libeay32:err.obj
 0002:000006d8       ??_C@_0L@LNCNEFCG@WSAstartup?$AA@ 100886d8     libeay32:err.obj
 0002:000006e4       ??_C@_07OPAOJOOA@opendir?$AA@ 100886e4     libeay32:err.obj
 0002:000006ec       ??_C@_05FHPOAJDB@fread?$AA@ 100886ec     libeay32:err.obj
 0002:000006f4       ??_C@_06KPOIEIFN@fflush?$AA@ 100886f4     libeay32:err.obj
 0002:000006fc       ??_C@_0L@NFMIFFDK@system?5lib?$AA@ 100886fc     libeay32:err.obj
 0002:00000708       ??_C@_06CEKJLBPI@BN?5lib?$AA@ 10088708     libeay32:err.obj
 0002:00000710       ??_C@_07PLBLGAPL@RSA?5lib?$AA@ 10088710     libeay32:err.obj
 0002:00000718       ??_C@_06JBCAGHNP@DH?5lib?$AA@ 10088718     libeay32:err.obj
 0002:00000720       ??_C@_07BHNHKGFA@EVP?5lib?$AA@ 10088720     libeay32:err.obj
 0002:00000728       ??_C@_07PJHFFEFC@BUF?5lib?$AA@ 10088728     libeay32:err.obj
 0002:00000730       ??_C@_07LHMLCDLI@OBJ?5lib?$AA@ 10088730     libeay32:err.obj
 0002:00000738       ??_C@_07MKPCAOAJ@PEM?5lib?$AA@ 10088738     libeay32:err.obj
 0002:00000740       ??_C@_07EBMPFIFH@DSA?5lib?$AA@ 10088740     libeay32:err.obj
 0002:00000748       ??_C@_08DGLLDICE@X509?5lib?$AA@ 10088748     libeay32:err.obj
 0002:00000754       ??_C@_08HAFIEMCJ@ASN1?5lib?$AA@ 10088754     libeay32:err.obj
 0002:00000760       ??_C@_08GDJNHNLC@CONF?5lib?$AA@ 10088760     libeay32:err.obj
 0002:0000076c       ??_C@_0L@GEIMIIEL@CRYPTO?5lib?$AA@ 1008876c     libeay32:err.obj
 0002:00000778       ??_C@_06FNJAJMKI@EC?5lib?$AA@ 10088778     libeay32:err.obj
 0002:00000780       ??_C@_07ILCPHDLL@SSL?5lib?$AA@ 10088780     libeay32:err.obj
 0002:00000788       ??_C@_07HOAEPDCA@BIO?5lib?$AA@ 10088788     libeay32:err.obj
 0002:00000790       ??_C@_09PFAKBDBP@PKCS7?5lib?$AA@ 10088790     libeay32:err.obj
 0002:0000079c       ??_C@_0L@OHLIEDB@X509V3?5lib?$AA@ 1008879c     libeay32:err.obj
 0002:000007a8       ??_C@_0L@FBHADCPC@PKCS12?5lib?$AA@ 100887a8     libeay32:err.obj
 0002:000007b4       ??_C@_08IAGEJILJ@RAND?5lib?$AA@ 100887b4     libeay32:err.obj
 0002:000007c0       ??_C@_07HLMFDJCH@DSO?5lib?$AA@ 100887c0     libeay32:err.obj
 0002:000007c8       ??_C@_0L@NEGIHAGL@ENGINE?5lib?$AA@ 100887c8     libeay32:err.obj
 0002:000007d4       ??_C@_08BIAIHGB@OCSP?5lib?$AA@ 100887d4     libeay32:err.obj
 0002:000007e0       ??_C@_06JPOPAJEJ@TS?5lib?$AA@ 100887e0     libeay32:err.obj
 0002:000007e8       ??_C@_0BC@JPACPGKL@nested?5asn1?5error?$AA@ 100887e8     libeay32:err.obj
 0002:000007fc       ??_C@_0BH@LJENPHMF@bad?5asn1?5object?5header?$AA@ 100887fc     libeay32:err.obj
 0002:00000814       ??_C@_0BJ@KHBMOGBI@bad?5get?5asn1?5object?5call?$AA@ 10088814     libeay32:err.obj
 0002:00000830       ??_C@_0BL@PKJJDDDF@expecting?5an?5asn1?5sequence?$AA@ 10088830     libeay32:err.obj
 0002:0000084c       ??_C@_0BF@JKEELALH@asn1?5length?5mismatch?$AA@ 1008884c     libeay32:err.obj
 0002:00000864       ??_C@_0BB@LLCBNOLO@missing?5asn1?5eos?$AA@ 10088864     libeay32:err.obj
 0002:00000878       ??_C@_05FAMCFOJB@fatal?$AA@ 10088878     libeay32:err.obj
 0002:00000880       ??_C@_0P@BOLAOBGL@malloc?5failure?$AA@ 10088880     libeay32:err.obj
 0002:00000890       ??_C@_0CG@JFIACAPA@called?5a?5function?5you?5should?5not@ 10088890     libeay32:err.obj
 0002:000008b8       ??_C@_0BI@MMHLKOF@passed?5a?5null?5parameter?$AA@ 100888b8     libeay32:err.obj
 0002:000008d0       ??_C@_0P@LPIEGNHB@internal?5error?$AA@ 100888d0     libeay32:err.obj
 0002:000008e0       ??_C@_0DE@JBNNAKOP@called?5a?5function?5that?5was?5disab@ 100888e0     libeay32:err.obj
 0002:00000940       ??_C@_0BD@CKILGKAI@?4?2crypto?2err?2err?4c?$AA@ 10088940     libeay32:err.obj
 0002:00000954       ??_C@_0BE@CGMKPIME@int_err_get?5?$CIerr?4c?$CJ?$AA@ 10088954     libeay32:err.obj
 0002:00000968       ??_C@_0BH@KBGLDIDO@int_thread_get?5?$CIerr?4c?$CJ?$AA@ 10088968     libeay32:err.obj
 0002:00000980       ??_C@_0N@JAGKAFD@FILE?5pointer?$AA@ 10088980     libeay32:bss_file.obj
 0002:00000990       ??_C@_0BI@EHMCOOOG@?4?2crypto?2bio?2bss_file?4c?$AA@ 10088990     libeay32:bss_file.obj
 0002:000009a8       ??_C@_02HJPKOJGD@?8?$CJ?$AA@ 100889a8     libeay32:bss_file.obj
 0002:000009ac       ??_C@_03IMMLKIF@?8?0?8?$AA@ 100889ac     libeay32:bss_file.obj
 0002:000009b0       ??_C@_07JMDFGFFH@fopen?$CI?8?$AA@ 100889b0     libeay32:bss_file.obj
 0002:000009b8       ??_C@_02DPNLHKJD@a?$CL?$AA@ 100889b8     libeay32:bss_file.obj
 0002:000009bc       ??_C@_01MCMALHOG@a?$AA@    100889bc     libeay32:bss_file.obj
 0002:000009c0       ??_C@_02CBLLGHLK@r?$CL?$AA@ 100889c0     libeay32:bss_file.obj
 0002:000009c4       ??_C@_01NOFIACDB@w?$AA@    100889c4     libeay32:bss_file.obj
 0002:000009c8       ??_C@_01KDCPPGHE@r?$AA@    100889c8     libeay32:bss_file.obj
 0002:000009cc       ??_C@_01OJONOECF@b?$AA@    100889cc     libeay32:bss_file.obj
 0002:000009d0       ??_C@_01PFHFFBPC@t?$AA@    100889d0     libeay32:bss_file.obj
 0002:000009d4       ??_C@_08FAKMNOA@fflush?$CI?$CJ?$AA@ 100889d4     libeay32:bss_file.obj
 0002:000009e0       ??_C@_0BH@MODMECLL@?4?2crypto?2bio?2bio_lib?4c?$AA@ 100889e0     libeay32:bio_lib.obj
 0002:000009f8       ??_C@_01CLKCMJKC@?5?$AA@   100889f8     libeay32:bio_lib.obj
 0002:000009fc       ??_C@_06CBHGEMFM@?$DMNULL?$DO?$AA@ 100889fc     libeay32:b_print.obj
 0002:00000a04       ??_C@_02MDDDDAID@0x?$AA@   10088a04     libeay32:b_print.obj
 0002:00000a08       ??_C@_0BB@JGGOGLEG@0123456789ABCDEF?$AA@ 10088a08     libeay32:b_print.obj
 0002:00000a1c       ??_C@_0BB@JCEFLFJE@0123456789abcdef?$AA@ 10088a1c     libeay32:b_print.obj
 0002:00000a30       ??_C@_0L@FPFMPDDA@0123456789?$AA@ 10088a30     libeay32:b_print.obj
 0002:00000a3c       ??_C@_0BH@PHJMFNI@?4?2crypto?2bio?2b_print?4c?$AA@ 10088a3c     libeay32:b_print.obj
 0002:00000a54       ??_C@_07DKNGGOEP@doapr?$CI?$CJ?$AA@ 10088a54     libeay32:b_print.obj
 0002:00000a60       __real@3fe0000000000000    10088a60     libeay32:b_print.obj
 0002:00000a68       __real@3ff0000000000000    10088a68     libeay32:b_print.obj
 0002:00000a70       __real@4024000000000000    10088a70     libeay32:b_print.obj
 0002:00000a80       __xmm@80000000000000008000000000000000 10088a80     libeay32:b_print.obj
 0002:00000b3c       ??_C@_09OGFJIAEE@?$DM?$DMERROR?$DO?$DO?$AA@ 10088b3c     libeay32:cryptlib.obj
 0002:00000b48       ??_C@_03JIDPIAJI@err?$AA@  10088b48     libeay32:cryptlib.obj
 0002:00000b4c       ??_C@_07OALPHBKG@ex_data?$AA@ 10088b4c     libeay32:cryptlib.obj
 0002:00000b54       ??_C@_04BNGFMDFF@x509?$AA@ 10088b54     libeay32:cryptlib.obj
 0002:00000b5c       ??_C@_09DJEHILFA@x509_info?$AA@ 10088b5c     libeay32:cryptlib.obj
 0002:00000b68       ??_C@_09HNLHIFBP@x509_pkey?$AA@ 10088b68     libeay32:cryptlib.obj
 0002:00000b74       ??_C@_08BJFLLMNA@x509_crl?$AA@ 10088b74     libeay32:cryptlib.obj
 0002:00000b80       ??_C@_08BHPLFFMD@x509_req?$AA@ 10088b80     libeay32:cryptlib.obj
 0002:00000b8c       ??_C@_03EAKOMMFI@dsa?$AA@  10088b8c     libeay32:cryptlib.obj
 0002:00000b90       ??_C@_03DFNMMEBL@rsa?$AA@  10088b90     libeay32:cryptlib.obj
 0002:00000b94       ??_C@_08NBJJIGBN@evp_pkey?$AA@ 10088b94     libeay32:cryptlib.obj
 0002:00000ba0       ??_C@_0L@JCDDFIOK@x509_store?$AA@ 10088ba0     libeay32:cryptlib.obj
 0002:00000bac       ??_C@_07DNHKIAPH@ssl_ctx?$AA@ 10088bac     libeay32:cryptlib.obj
 0002:00000bb4       ??_C@_08INIFBEOB@ssl_cert?$AA@ 10088bb4     libeay32:cryptlib.obj
 0002:00000bc0       ??_C@_0M@OAEAFGMD@ssl_session?$AA@ 10088bc0     libeay32:cryptlib.obj
 0002:00000bcc       ??_C@_0O@LOCLBOHA@ssl_sess_cert?$AA@ 10088bcc     libeay32:cryptlib.obj
 0002:00000bdc       ??_C@_03DIMONNDD@ssl?$AA@  10088bdc     libeay32:cryptlib.obj
 0002:00000be0       ??_C@_0L@NKBFNPDB@ssl_method?$AA@ 10088be0     libeay32:cryptlib.obj
 0002:00000bec       ??_C@_04HKINGDKC@rand?$AA@ 10088bec     libeay32:cryptlib.obj
 0002:00000bf4       ??_C@_05NFNCBLNG@rand2?$AA@ 10088bf4     libeay32:cryptlib.obj
 0002:00000bfc       ??_C@_0N@CLEMOJNL@debug_malloc?$AA@ 10088bfc     libeay32:cryptlib.obj
 0002:00000c0c       ??_C@_03OHAMFFNA@BIO?$AA@  10088c0c     libeay32:cryptlib.obj
 0002:00000c10       ??_C@_0O@BFBCKHPD@gethostbyname?$AA@ 10088c10     libeay32:cryptlib.obj
 0002:00000c20       ??_C@_07OMHHFDME@readdir?$AA@ 10088c20     libeay32:cryptlib.obj
 0002:00000c28       ??_C@_0N@BGAJKBNF@RSA_blinding?$AA@ 10088c28     libeay32:cryptlib.obj
 0002:00000c38       ??_C@_02OCEEKELO@dh?$AA@   10088c38     libeay32:cryptlib.obj
 0002:00000c3c       ??_C@_0O@PMFKBDME@debug_malloc2?$AA@ 10088c3c     libeay32:cryptlib.obj
 0002:00000c4c       ??_C@_03NOCNOBNG@dso?$AA@  10088c4c     libeay32:cryptlib.obj
 0002:00000c50       ??_C@_07HGGNMPAJ@dynlock?$AA@ 10088c50     libeay32:cryptlib.obj
 0002:00000c58       ??_C@_06LOBMEHPF@engine?$AA@ 10088c58     libeay32:cryptlib.obj
 0002:00000c60       ??_C@_02OGLLFMLI@ui?$AA@   10088c60     libeay32:cryptlib.obj
 0002:00000c64       ??_C@_05FGIDCBJD@ecdsa?$AA@ 10088c64     libeay32:cryptlib.obj
 0002:00000c6c       ??_C@_02HCBHEC@ec?$AA@     10088c6c     libeay32:cryptlib.obj
 0002:00000c70       ??_C@_04KDGGCKGB@ecdh?$AA@ 10088c70     libeay32:cryptlib.obj
 0002:00000c78       ??_C@_02LAJDHPIK@bn?$AA@   10088c78     libeay32:cryptlib.obj
 0002:00000c7c       ??_C@_0M@FNJFEIGB@ec_pre_comp?$AA@ 10088c7c     libeay32:cryptlib.obj
 0002:00000c88       ??_C@_05ODGDKDLF@store?$AA@ 10088c88     libeay32:cryptlib.obj
 0002:00000c90       ??_C@_04OLDKMDKP@comp?$AA@ 10088c90     libeay32:cryptlib.obj
 0002:00000c98       ??_C@_04DJGCHAOD@fips?$AA@ 10088c98     libeay32:cryptlib.obj
 0002:00000ca0       ??_C@_05NEEKIFMD@fips2?$AA@ 10088ca0     libeay32:cryptlib.obj
 0002:00000ca8       ??_C@_0BE@MCNNLDKP@?4?2crypto?2cryptlib?4c?$AA@ 10088ca8     libeay32:cryptlib.obj
 0002:00000cbc       ??_C@_0BA@LPBALOME@pointer?5?$CB?$DN?5NULL?$AA@ 10088cbc     libeay32:cryptlib.obj
 0002:00000ccc       ??_C@_0BD@EHKNLPFP@_OPENSSL_isservice?$AA@ 10088ccc     libeay32:cryptlib.obj
 0002:00000ce0       ??_C@_1BG@MLNJHGBB@?$AAS?$AAe?$AAr?$AAv?$AAi?$AAc?$AAe?$AA?9?$AA0?$AAx?$AA?$AA@ 10088ce0     libeay32:cryptlib.obj
 0002:00000cf8       ??_C@_07BDLNEHJF@OpenSSL?$AA@ 10088cf8     libeay32:cryptlib.obj
 0002:00000d00       ??_C@_0P@LIPMGDB@OpenSSL?3?5FATAL?$AA@ 10088d00     libeay32:cryptlib.obj
 0002:00000d10       ??_C@_0DG@JJAMFCAP@?$CFs?$CI?$CFd?$CJ?3?5OpenSSL?5internal?5error?0?5@ 10088d10     libeay32:cryptlib.obj
 0002:00000d48       ??_C@_0BF@LAJPHOCL@?4?2crypto?2bn?2bn_ctx?4c?$AA@ 10088d48     libeay32:bn_ctx.obj
 0002:00000d60       ??_C@_0BF@IHHIKAIF@?4?2crypto?2bn?2bn_add?4c?$AA@ 10088d60     libeay32:bn_add.obj
 0002:00000d80       __xmm@ffffffffffffffffffffffffffffffff 10088d80     libeay32:bn_mul.obj
 0002:00000d90       ??_C@_0BF@ODABJPII@?4?2crypto?2bn?2bn_gcd?4c?$AA@ 10088d90     libeay32:bn_gcd.obj
 0002:00000da8       ??_C@_0BH@CIPLCBLK@?4?2crypto?2bn?2bn_blind?4c?$AA@ 10088da8     libeay32:bn_blind.obj
 0002:00000dc0       ??_C@_0BD@BACHDDOD@?4?2crypto?2ex_data?4c?$AA@ 10088dc0     libeay32:ex_data.obj
 0002:00000dd4       ??_C@_0BI@NFPKAKEA@Eric?5Young?8s?5PKCS?$CD1?5RSA?$AA@ 10088dd4     libeay32:rsa_eay.obj
 0002:00000dec       ??_C@_0BH@FEEKPMJH@?4?2crypto?2rsa?2rsa_eay?4c?$AA@ 10088dec     libeay32:rsa_eay.obj
 0002:00000e08       ??_C@_0BL@BEBELKO@?4?2crypto?2engine?2eng_init?4c?$AA@ 10088e08     libeay32:eng_init.obj
 0002:00000e24       ??_C@_0BD@KJPFNPNE@?4?2crypto?2mem_dbg?4c?$AA@ 10088e24     libeay32:mem_dbg.obj
 0002:00000e38       ??_C@_0BK@IJNDAGCA@?4?2crypto?2buffer?2buf_str?4c?$AA@ 10088e38     libeay32:buf_str.obj
 0002:00000e54       _lh_version                10088e54     libeay32:lhash.obj
 0002:00000e80       ??_C@_0BH@ENNIJDED@?4?2crypto?2lhash?2lhash?4c?$AA@ 10088e80     libeay32:lhash.obj
 0002:00000e98       ??_C@_0BH@MMMCIEC@?4?2crypto?2bn?2bn_shift?4c?$AA@ 10088e98     libeay32:bn_shift.obj
 0002:00000eb0       _STACK_version             10088eb0     libeay32:stack.obj
 0002:00000edc       ??_C@_0BH@GBDCJGGB@?4?2crypto?2stack?2stack?4c?$AA@ 10088edc     libeay32:stack.obj
 0002:00000ef4       ??_C@_0BF@NFDFGKJD@?4?2crypto?2bn?2bn_div?4c?$AA@ 10088ef4     libeay32:bn_div.obj
 0002:00000f0c       ??_C@_0BF@IHGKFBOP@?4?2crypto?2bn?2bn_mod?4c?$AA@ 10088f0c     libeay32:bn_mod.obj
 0002:00000f24       ??_C@_0BG@BDCFJOOA@?4?2crypto?2bn?2bn_rand?4c?$AA@ 10088f24     libeay32:bn_rand.obj
 0002:00000f3c       ??_C@_0BF@GGICFINI@?4?2crypto?2bn?2bn_exp?4c?$AA@ 10088f3c     libeay32:bn_exp.obj
 0002:00000f54       _RAND_version              10088f54     libeay32:md_rand.obj
 0002:00000f80       ??_C@_0BI@MJCOAGKM@?4?2crypto?2rand?2md_rand?4c?$AA@ 10088f80     libeay32:md_rand.obj
 0002:00000f98       ??_C@_0BF@KNMHCCP@?4?4?4?4?4?4?4?4?4?4?4?4?4?4?4?4?4?4?4?4?$AA@ 10088f98     libeay32:md_rand.obj
 0002:00000fb0       ??_C@_0EK@MHBHPLPP@You?5need?5to?5read?5the?5OpenSSL?5FAQ@ 10088fb0     libeay32:md_rand.obj
 0002:00001000       __real@4040000000000000    10089000     libeay32:md_rand.obj
 0002:0000100c       ??_C@_0BG@OIKAEECI@?4?2crypto?2bn?2bn_mont?4c?$AA@ 1008900c     libeay32:bn_mont.obj
 0002:00001024       ??_C@_0BH@BDEBAHMM@?4?2crypto?2rsa?2rsa_pk1?4c?$AA@ 10089024     libeay32:rsa_pk1.obj
 0002:0000103c       ??_C@_0BI@HCBPDHLA@?4?2crypto?2rsa?2rsa_oaep?4c?$AA@ 1008903c     libeay32:rsa_oaep.obj
 0002:00001054       ??_C@_0BH@PMCCHOFO@?4?2crypto?2rsa?2rsa_ssl?4c?$AA@ 10089054     libeay32:rsa_ssl.obj
 0002:0000106c       ??_C@_0BI@POHFMLMI@?4?2crypto?2rsa?2rsa_none?4c?$AA@ 1008906c     libeay32:rsa_none.obj
 0002:00001084       ??_C@_0BI@KEEABKFJ@?4?2crypto?2rsa?2rsa_x931?4c?$AA@ 10089084     libeay32:rsa_x931.obj
 0002:0000109c       ??_C@_0BM@GAEJEOPM@?4?2crypto?2engine?2eng_table?4c?$AA@ 1008909c     libeay32:eng_table.obj
 0002:000010b8       ??_C@_0BK@FPJBMICP@?4?2crypto?2engine?2eng_lib?4c?$AA@ 100890b8     libeay32:eng_lib.obj
 0002:000010d4       ??_C@_08BHHJAAOC@seed?9cbc?$AA@ 100890d4     libeay32:obj_dat.obj
 0002:000010e0       ??_C@_0O@PCHNMHJE@rsaEncryption?$AA@ 100890e0     libeay32:obj_dat.obj
 0002:000010f0       ??_C@_08PNNADHOE@SEED?9OFB?$AA@ 100890f0     libeay32:obj_dat.obj
 0002:000010fc       ??_C@_07JBCLOEPG@RSA?9MD2?$AA@ 100890fc     libeay32:obj_dat.obj
 0002:00001104       ??_C@_08EDLNCGMH@seed?9ofb?$AA@ 10089104     libeay32:obj_dat.obj
 0002:00001110       ??_C@_0BF@ODJKGOJ@md2WithRSAEncryption?$AA@ 10089110     libeay32:obj_dat.obj
 0002:00001128       ??_C@_08LHAGIIFM@SEED?9CFB?$AA@ 10089128     libeay32:obj_dat.obj
 0002:00001134       ??_C@_07NOGKHCDB@RSA?9MD5?$AA@ 10089134     libeay32:obj_dat.obj
 0002:0000113c       ??_C@_08JGLJJHP@seed?9cfb?$AA@ 1008913c     libeay32:obj_dat.obj
 0002:00001148       ??_C@_0BF@EEAHCNKC@md5WithRSAEncryption?$AA@ 10089148     libeay32:obj_dat.obj
 0002:00001160       ??_C@_08CABJBHIC@HMAC?9MD5?$AA@ 10089160     libeay32:obj_dat.obj
 0002:0000116c       ??_C@_0M@LMNGCPDB@PBE?9MD2?9DES?$AA@ 1008916c     libeay32:obj_dat.obj
 0002:00001178       ??_C@_08LPACCAD@hmac?9md5?$AA@ 10089178     libeay32:obj_dat.obj
 0002:00001184       ??_C@_0BF@EEAPBBEF@pbeWithMD2AndDES?9CBC?$AA@ 10089184     libeay32:obj_dat.obj
 0002:0000119c       ??_C@_09DDFKKHO@HMAC?9SHA1?$AA@ 1008919c     libeay32:obj_dat.obj
 0002:000011a8       ??_C@_0M@KBNDBPIJ@PBE?9MD5?9DES?$AA@ 100891a8     libeay32:obj_dat.obj
 0002:000011b4       ??_C@_09KBOMLGBN@hmac?9sha1?$AA@ 100891b4     libeay32:obj_dat.obj
 0002:000011c0       ??_C@_0BF@DAJHPIMK@pbeWithMD5AndDES?9CBC?$AA@ 100891c0     libeay32:obj_dat.obj
 0002:000011d8       ??_C@_0BE@HCNFOMHA@id?9PasswordBasedMAC?$AA@ 100891d8     libeay32:obj_dat.obj
 0002:000011ec       ??_C@_04NGGFHBI@X500?$AA@  100891ec     libeay32:obj_dat.obj
 0002:000011f4       ??_C@_0BD@FANJCJAP@password?5based?5MAC?$AA@ 100891f4     libeay32:obj_dat.obj
 0002:00001208       ??_C@_0BL@NJHHPHOL@directory?5services?5?$CIX?4500?$CJ?$AA@ 10089208     libeay32:obj_dat.obj
 0002:00001224       ??_C@_0O@MEHCKGFD@id?9DHBasedMac?$AA@ 10089224     libeay32:obj_dat.obj
 0002:00001234       ??_C@_04NMKEOMFB@X509?$AA@ 10089234     libeay32:obj_dat.obj
 0002:0000123c       ??_C@_0BJ@CDGIGDFG@Diffie?9Hellman?5based?5MAC?$AA@ 1008923c     libeay32:obj_dat.obj
 0002:00001258       ??_C@_02BMJIHHPP@CN?$AA@   10089258     libeay32:obj_dat.obj
 0002:0000125c       ??_C@_0BD@MGCOMIO@id?9it?9suppLangTags?$AA@ 1008925c     libeay32:obj_dat.obj
 0002:00001270       ??_C@_0L@OILMNBLH@commonName?$AA@ 10089270     libeay32:obj_dat.obj
 0002:0000127c       ??_C@_0N@CKNFLOGG@caRepository?$AA@ 1008927c     libeay32:obj_dat.obj
 0002:0000128c       ??_C@_01GFHCPBMG@C?$AA@    1008928c     libeay32:obj_dat.obj
 0002:00001290       ??_C@_0O@LBCGFGCI@CA?5Repository?$AA@ 10089290     libeay32:obj_dat.obj
 0002:000012a0       ??_C@_0M@NPBHECMC@countryName?$AA@ 100892a0     libeay32:obj_dat.obj
 0002:000012ac       ??_C@_0BL@HEJKLKLL@id?9smime?9ct?9compressedData?$AA@ 100892ac     libeay32:obj_dat.obj
 0002:000012c8       ??_C@_01OCOKONAJ@L?$AA@    100892c8     libeay32:obj_dat.obj
 0002:000012cc       ??_C@_0BI@FNBGJEPL@id?9ct?9asciiTextWithCRLF?$AA@ 100892cc     libeay32:obj_dat.obj
 0002:000012e4       ??_C@_0N@LEDCGGBI@localityName?$AA@ 100892e4     libeay32:obj_dat.obj
 0002:000012f4       ??_C@_0P@MALLFAMO@id?9aes128?9wrap?$AA@ 100892f4     libeay32:obj_dat.obj
 0002:00001304       ??_C@_02LAJDCOFE@ST?$AA@   10089304     libeay32:obj_dat.obj
 0002:00001308       ??_C@_0P@DJKBBDNG@id?9aes192?9wrap?$AA@ 10089308     libeay32:obj_dat.obj
 0002:00001318       ??_C@_0BE@NKDCJFMD@stateOrProvinceName?$AA@ 10089318     libeay32:obj_dat.obj
 0002:0000132c       ??_C@_0P@KDMMBOEP@id?9aes256?9wrap?$AA@ 1008932c     libeay32:obj_dat.obj
 0002:0000133c       ??_C@_01MJMHLOMK@O?$AA@    1008933c     libeay32:obj_dat.obj
 0002:00001340       ??_C@_0BH@GCJALNKM@ecdsa?9with?9Recommended?$AA@ 10089340     libeay32:obj_dat.obj
 0002:00001358       ??_C@_0BB@GBCNPHLL@organizationName?$AA@ 10089358     libeay32:obj_dat.obj
 0002:0000136c       ??_C@_0BF@INFCLNHO@ecdsa?9with?9Specified?$AA@ 1008936c     libeay32:obj_dat.obj
 0002:00001384       ??_C@_02LMLEEFAB@OU?$AA@   10089384     libeay32:obj_dat.obj
 0002:00001388       ??_C@_0BC@PHBIOIGA@ecdsa?9with?9SHA224?$AA@ 10089388     libeay32:obj_dat.obj
 0002:0000139c       ??_C@_0BH@LAMMAAM@organizationalUnitName?$AA@ 1008939c     libeay32:obj_dat.obj
 0002:000013b4       ??_C@_0BC@MAGBJMGH@ecdsa?9with?9SHA256?$AA@ 100893b4     libeay32:obj_dat.obj
 0002:000013c8       ??_C@_03DICHAJGH@RSA?$AA@  100893c8     libeay32:obj_dat.obj
 0002:000013cc       ??_C@_0BC@ECDDAKND@ecdsa?9with?9SHA384?$AA@ 100893cc     libeay32:obj_dat.obj
 0002:000013e0       ??_C@_0BC@DONDMJAG@ecdsa?9with?9SHA512?$AA@ 100893e0     libeay32:obj_dat.obj
 0002:000013f4       ??_C@_05EENODLBB@pkcs7?$AA@ 100893f4     libeay32:obj_dat.obj
 0002:000013fc       ??_C@_0M@KOBPMNIO@hmacWithMD5?$AA@ 100893fc     libeay32:obj_dat.obj
 0002:00001408       ??_C@_0L@BCKMJOMA@pkcs7?9data?$AA@ 10089408     libeay32:obj_dat.obj
 0002:00001414       ??_C@_0P@JCGBABBG@hmacWithSHA224?$AA@ 10089414     libeay32:obj_dat.obj
 0002:00001424       ??_C@_0BB@PEKKHBEJ@pkcs7?9signedData?$AA@ 10089424     libeay32:obj_dat.obj
 0002:00001438       ??_C@_0P@KFBIHFBB@hmacWithSHA256?$AA@ 10089438     libeay32:obj_dat.obj
 0002:00001448       ??_C@_0BE@FAIIHMP@pkcs7?9envelopedData?$AA@ 10089448     libeay32:obj_dat.obj
 0002:0000145c       ??_C@_0P@CHEKODKF@hmacWithSHA384?$AA@ 1008945c     libeay32:obj_dat.obj
 0002:0000146c       ??_C@_0BN@LMEEMCPG@pkcs7?9signedAndEnvelopedData?$AA@ 1008946c     libeay32:obj_dat.obj
 0002:0000148c       ??_C@_0P@FLKKCAHA@hmacWithSHA512?$AA@ 1008948c     libeay32:obj_dat.obj
 0002:0000149c       ??_C@_0BB@CJNFBHDI@pkcs7?9digestData?$AA@ 1008949c     libeay32:obj_dat.obj
 0002:000014b0       ??_C@_0BA@GLCLJGGH@dsa_with_SHA224?$AA@ 100894b0     libeay32:obj_dat.obj
 0002:000014c0       ??_C@_0BE@CAMKAFJN@pkcs7?9encryptedData?$AA@ 100894c0     libeay32:obj_dat.obj
 0002:000014d4       ??_C@_0BA@FMFCOCGA@dsa_with_SHA256?$AA@ 100894d4     libeay32:obj_dat.obj
 0002:000014e4       ??_C@_05CALCPOBF@pkcs3?$AA@ 100894e4     libeay32:obj_dat.obj
 0002:000014ec       ??_C@_09DEGKDAEL@whirlpool?$AA@ 100894ec     libeay32:obj_dat.obj
 0002:000014f8       ??_C@_0P@HCMIBBEB@dhKeyAgreement?$AA@ 100894f8     libeay32:obj_dat.obj
 0002:00001508       ??_C@_09PCHJFNLI@cryptopro?$AA@ 10089508     libeay32:obj_dat.obj
 0002:00001514       ??_C@_07IOCLJBKC@DES?9ECB?$AA@ 10089514     libeay32:obj_dat.obj
 0002:0000151c       ??_C@_09JGBNPHGI@cryptocom?$AA@ 1008951c     libeay32:obj_dat.obj
 0002:00001528       ??_C@_07LCLHACCC@des?9ecb?$AA@ 10089528     libeay32:obj_dat.obj
 0002:00001530       ??_C@_0CE@FCAOBIOC@id?9GostR3411?994?9with?9GostR3410?92@ 10089530     libeay32:obj_dat.obj
 0002:00001554       ??_C@_07KNILAMJF@DES?9CFB?$AA@ 10089554     libeay32:obj_dat.obj
 0002:0000155c       ??_C@_0CH@MPKKPBGC@GOST?5R?534?411?994?5with?5GOST?5R?534?41@ 1008955c     libeay32:obj_dat.obj
 0002:00001584       ??_C@_07JBBHJPBF@des?9cfb?$AA@ 10089584     libeay32:obj_dat.obj
 0002:0000158c       ??_C@_0CC@LCAPGDKC@id?9GostR3411?994?9with?9GostR3410?99@ 1008958c     libeay32:obj_dat.obj
 0002:000015b0       ??_C@_07LDJJJFAI@DES?9CBC?$AA@ 100895b0     libeay32:obj_dat.obj
 0002:000015b8       ??_C@_0CF@PAGBHGOC@GOST?5R?534?411?994?5with?5GOST?5R?534?41@ 100895b8     libeay32:obj_dat.obj
 0002:000015e0       ??_C@_07IPAFAGII@des?9cbc?$AA@ 100895e0     libeay32:obj_dat.obj
 0002:000015e8       ??_C@_09MIOJGGFD@md_gost94?$AA@ 100895e8     libeay32:obj_dat.obj
 0002:000015f4       ??_C@_07MECFBBOA@DES?9EDE?$AA@ 100895f4     libeay32:obj_dat.obj
 0002:000015fc       ??_C@_0BA@KDEBPBMN@GOST?5R?534?411?994?$AA@ 100895fc     libeay32:obj_dat.obj
 0002:0000160c       ??_C@_07PILJICGA@des?9ede?$AA@ 1008960c     libeay32:obj_dat.obj
 0002:00001614       ??_C@_0BE@EBBOKDGI@id?9HMACGostR3411?994?$AA@ 10089614     libeay32:obj_dat.obj
 0002:00001628       ??_C@_08FEKFKCFJ@DES?9EDE3?$AA@ 10089628     libeay32:obj_dat.obj
 0002:00001634       ??_C@_0BD@BHKLGKNG@HMAC?5GOST?534?411?994?$AA@ 10089634     libeay32:obj_dat.obj
 0002:00001648       ??_C@_08LJCBLNOK@des?9ede3?$AA@ 10089648     libeay32:obj_dat.obj
 0002:00001654       ??_C@_08KMPAMBCP@gost2001?$AA@ 10089654     libeay32:obj_dat.obj
 0002:00001660       ??_C@_08MJNEIAD@IDEA?9CBC?$AA@ 10089660     libeay32:obj_dat.obj
 0002:0000166c       ??_C@_0BC@IBNIHBI@GOST?5R?534?410?92001?$AA@ 1008966c     libeay32:obj_dat.obj
 0002:00001680       ??_C@_08LCPAFJCA@idea?9cbc?$AA@ 10089680     libeay32:obj_dat.obj
 0002:0000168c       ??_C@_06BPJPGPFJ@gost94?$AA@ 1008968c     libeay32:obj_dat.obj
 0002:00001694       ??_C@_08BCIPNBJO@IDEA?9CFB?$AA@ 10089694     libeay32:obj_dat.obj
 0002:000016a0       ??_C@_0BA@JOCBNIHN@GOST?5R?534?410?994?$AA@ 100896a0     libeay32:obj_dat.obj
 0002:000016b0       ??_C@_08KMOCMALN@idea?9cfb?$AA@ 100896b0     libeay32:obj_dat.obj
 0002:000016bc       ??_C@_06KLPDHLCD@gost89?$AA@ 100896bc     libeay32:obj_dat.obj
 0002:000016c4       ??_C@_08DBCPEMKJ@IDEA?9ECB?$AA@ 100896c4     libeay32:obj_dat.obj
 0002:000016d0       ??_C@_0O@POKHNLDL@GOST?528147?989?$AA@ 100896d0     libeay32:obj_dat.obj
 0002:000016e0       ??_C@_08IPECFNIK@idea?9ecb?$AA@ 100896e0     libeay32:obj_dat.obj
 0002:000016ec       ??_C@_0L@INGOKGPP@gost89?9cnt?$AA@ 100896ec     libeay32:obj_dat.obj
 0002:000016f8       ??_C@_07KJDFEEGB@RC2?9CBC?$AA@ 100896f8     libeay32:obj_dat.obj
 0002:00001700       ??_C@_08JCNEGNFC@gost?9mac?$AA@ 10089700     libeay32:obj_dat.obj
 0002:0000170c       ??_C@_07JCAFNCNH@rc2?9cbc?$AA@ 1008970c     libeay32:obj_dat.obj
 0002:00001714       ??_C@_0BC@BPAGAEJB@GOST?528147?989?5MAC?$AA@ 10089714     libeay32:obj_dat.obj
 0002:00001728       ??_C@_07JEIHEAML@RC2?9ECB?$AA@ 10089728     libeay32:obj_dat.obj
 0002:00001730       ??_C@_0BB@LJIINAAP@prf?9gostr3411?994?$AA@ 10089730     libeay32:obj_dat.obj
 0002:00001744       ??_C@_07KPLHNGHN@rc2?9ecb?$AA@ 10089744     libeay32:obj_dat.obj
 0002:0000174c       ??_C@_0BE@FFELJBNB@GOST?5R?534?411?994?5PRF?$AA@ 1008974c     libeay32:obj_dat.obj
 0002:00001760       ??_C@_07LHCHNNPM@RC2?9CFB?$AA@ 10089760     libeay32:obj_dat.obj
 0002:00001768       ??_C@_0BE@OBKEJCJB@id?9GostR3410?92001DH?$AA@ 10089768     libeay32:obj_dat.obj
 0002:0000177c       ??_C@_07IMBHELEK@rc2?9cfb?$AA@ 1008977c     libeay32:obj_dat.obj
 0002:00001784       ??_C@_0BF@OKPANPLK@GOST?5R?534?410?92001?5DH?$AA@ 10089784     libeay32:obj_dat.obj
 0002:0000179c       ??_C@_07PNPBGCEE@RC2?9OFB?$AA@ 1008979c     libeay32:obj_dat.obj
 0002:000017a4       ??_C@_0BC@CEMDDFNK@id?9GostR3410?994DH?$AA@ 100897a4     libeay32:obj_dat.obj
 0002:000017b8       ??_C@_07MGMBPEPC@rc2?9ofb?$AA@ 100897b8     libeay32:obj_dat.obj
 0002:000017c0       ??_C@_0BD@LGKAOLPL@GOST?5R?534?410?994?5DH?$AA@ 100897c0     libeay32:obj_dat.obj
 0002:000017d4       ??_C@_03JAOICCJD@SHA?$AA@  100897d4     libeay32:obj_dat.obj
 0002:000017d8       ??_C@_0CF@MMKONEIK@id?9Gost28147?989?9CryptoPro?9KeyMes@ 100897d8     libeay32:obj_dat.obj
 0002:00001800       ??_C@_03JNBDOPOP@sha?$AA@  10089800     libeay32:obj_dat.obj
 0002:00001804       ??_C@_0CA@BLJAEGEG@id?9Gost28147?989?9None?9KeyMeshing?$AA@ 10089804     libeay32:obj_dat.obj
 0002:00001824       ??_C@_07CMOFBHAL@RSA?9SHA?$AA@ 10089824     libeay32:obj_dat.obj
 0002:0000182c       ??_C@_0BN@DPLCCDOE@id?9GostR3411?994?9TestParamSet?$AA@ 1008982c     libeay32:obj_dat.obj
 0002:0000184c       ??_C@_0BF@LIDINENF@shaWithRSAEncryption?$AA@ 1008984c     libeay32:obj_dat.obj
 0002:00001864       ??_C@_0CC@DOHJLMBI@id?9GostR3411?994?9CryptoProParamSe@ 10089864     libeay32:obj_dat.obj
 0002:00001888       ??_C@_0M@KHNLAHDP@DES?9EDE?9CBC?$AA@ 10089888     libeay32:obj_dat.obj
 0002:00001894       ??_C@_0BN@GKJFBLMI@id?9Gost28147?989?9TestParamSet?$AA@ 10089894     libeay32:obj_dat.obj
 0002:000018b4       ??_C@_0M@EKLHMDEA@des?9ede?9cbc?$AA@ 100898b4     libeay32:obj_dat.obj
 0002:000018c0       ??_C@_0CF@PFEMLAKN@id?9Gost28147?989?9CryptoPro?9A?9Para@ 100898c0     libeay32:obj_dat.obj
 0002:000018e8       ??_C@_0N@MLDFENGJ@DES?9EDE3?9CBC?$AA@ 100898e8     libeay32:obj_dat.obj
 0002:000018f8       ??_C@_0CF@GMKONGKM@id?9Gost28147?989?9CryptoPro?9B?9Para@ 100898f8     libeay32:obj_dat.obj
 0002:00001920       ??_C@_0N@FPCHEGKG@des?9ede3?9cbc?$AA@ 10089920     libeay32:obj_dat.obj
 0002:00001930       ??_C@_0CF@KNCAAJGM@id?9Gost28147?989?9CryptoPro?9C?9Para@ 10089930     libeay32:obj_dat.obj
 0002:00001958       ??_C@_07OHFNLDCN@DES?9OFB?$AA@ 10089958     libeay32:obj_dat.obj
 0002:00001960       ??_C@_0CF@IEBLBMOP@id?9Gost28147?989?9CryptoPro?9D?9Para@ 10089960     libeay32:obj_dat.obj
 0002:00001988       ??_C@_07NLMBCAKN@des?9ofb?$AA@ 10089988     libeay32:obj_dat.obj
 0002:00001990       ??_C@_0CN@EJBNJDBM@id?9Gost28147?989?9CryptoPro?9Oscar?9@ 10089990     libeay32:obj_dat.obj
 0002:000019c0       ??_C@_08FIFJGOCG@IDEA?9OFB?$AA@ 100899c0     libeay32:obj_dat.obj
 0002:000019cc       ??_C@_0CN@IIJDEMNM@id?9Gost28147?989?9CryptoPro?9Oscar?9@ 100899cc     libeay32:obj_dat.obj
 0002:000019fc       ??_C@_08OGDEHPAF@idea?9ofb?$AA@ 100899fc     libeay32:obj_dat.obj
 0002:00001a08       ??_C@_0CJ@IIADIAJH@id?9Gost28147?989?9CryptoPro?9RIC?91?9@ 10089a08     libeay32:obj_dat.obj
 0002:00001a34       ??_C@_05NKFNBGJP@pkcs9?$AA@ 10089a34     libeay32:obj_dat.obj
 0002:00001a3c       ??_C@_0BN@NAOAJFAF@id?9GostR3410?994?9TestParamSet?$AA@ 10089a3c     libeay32:obj_dat.obj
 0002:00001a5c       ??_C@_0N@IHLBAGEP@emailAddress?$AA@ 10089a5c     libeay32:obj_dat.obj
 0002:00001a6c       ??_C@_0CF@MNFOPPCD@id?9GostR3410?994?9CryptoPro?9A?9Para@ 10089a6c     libeay32:obj_dat.obj
 0002:00001a94       ??_C@_0BB@CJIILOEM@unstructuredName?$AA@ 10089a94     libeay32:obj_dat.obj
 0002:00001aa8       ??_C@_0CF@FELMJJCC@id?9GostR3410?994?9CryptoPro?9B?9Para@ 10089aa8     libeay32:obj_dat.obj
 0002:00001ad0       ??_C@_0M@DOEFOEJD@contentType?$AA@ 10089ad0     libeay32:obj_dat.obj
 0002:00001adc       ??_C@_0CF@JFDCEGOC@id?9GostR3410?994?9CryptoPro?9C?9Para@ 10089adc     libeay32:obj_dat.obj
 0002:00001b04       ??_C@_0O@JDGJDGC@messageDigest?$AA@ 10089b04     libeay32:obj_dat.obj
 0002:00001b14       ??_C@_0CF@LMAJFDGB@id?9GostR3410?994?9CryptoPro?9D?9Para@ 10089b14     libeay32:obj_dat.obj
 0002:00001b3c       ??_C@_0M@IJBJCCMP@signingTime?$AA@ 10089b3c     libeay32:obj_dat.obj
 0002:00001b48       ??_C@_0CI@FLGMGEEM@id?9GostR3410?994?9CryptoPro?9XchA?9P@ 10089b48     libeay32:obj_dat.obj
 0002:00001b70       ??_C@_0BB@IPFGMODP@countersignature?$AA@ 10089b70     libeay32:obj_dat.obj
 0002:00001b84       ??_C@_0CI@MCIOACEN@id?9GostR3410?994?9CryptoPro?9XchB?9P@ 10089b84     libeay32:obj_dat.obj
 0002:00001bac       ??_C@_0BC@OKHONEEM@challengePassword?$AA@ 10089bac     libeay32:obj_dat.obj
 0002:00001bc0       ??_C@_0CI@DAANNIN@id?9GostR3410?994?9CryptoPro?9XchC?9P@ 10089bc0     libeay32:obj_dat.obj
 0002:00001be8       ??_C@_0BE@MACPCAPF@unstructuredAddress?$AA@ 10089be8     libeay32:obj_dat.obj
 0002:00001bfc       ??_C@_0BP@GEEJLPDI@id?9GostR3410?92001?9TestParamSet?$AA@ 10089bfc     libeay32:obj_dat.obj
 0002:00001c1c       ??_C@_0BO@LDCCNBPE@extendedCertificateAttributes?$AA@ 10089c1c     libeay32:obj_dat.obj
 0002:00001c3c       ??_C@_0CH@GDAPDBKP@id?9GostR3410?92001?9CryptoPro?9A?9Pa@ 10089c3c     libeay32:obj_dat.obj
 0002:00001c64       ??_C@_08BDEPHMAF@Netscape?$AA@ 10089c64     libeay32:obj_dat.obj
 0002:00001c70       ??_C@_0CH@PKONFHKO@id?9GostR3410?92001?9CryptoPro?9B?9Pa@ 10089c70     libeay32:obj_dat.obj
 0002:00001c98       ??_C@_0BO@IAIBEBGO@Netscape?5Communications?5Corp?4?$AA@ 10089c98     libeay32:obj_dat.obj
 0002:00001cb8       ??_C@_0CH@DLGDIIGO@id?9GostR3410?92001?9CryptoPro?9C?9Pa@ 10089cb8     libeay32:obj_dat.obj
 0002:00001ce0       ??_C@_09JDCKDNMG@nsCertExt?$AA@ 10089ce0     libeay32:obj_dat.obj
 0002:00001cec       ??_C@_0CK@PKFGBNKE@id?9GostR3410?92001?9CryptoPro?9XchA@ 10089cec     libeay32:obj_dat.obj
 0002:00001d18       ??_C@_0BP@LHPGKGFM@Netscape?5Certificate?5Extension?$AA@ 10089d18     libeay32:obj_dat.obj
 0002:00001d38       ??_C@_0CK@GDLEHLKF@id?9GostR3410?92001?9CryptoPro?9XchB@ 10089d38     libeay32:obj_dat.obj
 0002:00001d64       ??_C@_0L@FIMLGGPA@nsDataType?$AA@ 10089d64     libeay32:obj_dat.obj
 0002:00001d70       ??_C@_0BC@CHIDFKJO@id?9GostR3410?994?9a?$AA@ 10089d70     libeay32:obj_dat.obj
 0002:00001d84       ??_C@_0BD@JJEILMNP@Netscape?5Data?5Type?$AA@ 10089d84     libeay32:obj_dat.obj
 0002:00001d98       ??_C@_0BF@LBGBLILF@id?9GostR3410?994?9aBis?$AA@ 10089d98     libeay32:obj_dat.obj
 0002:00001db0       ??_C@_0M@LJMJJOKC@DES?9EDE?9CFB?$AA@ 10089db0     libeay32:obj_dat.obj
 0002:00001dbc       ??_C@_0BC@MKOAJFN@id?9GostR3410?994?9b?$AA@ 10089dbc     libeay32:obj_dat.obj
 0002:00001dd0       ??_C@_0M@FEKFFKNN@des?9ede?9cfb?$AA@ 10089dd0     libeay32:obj_dat.obj
 0002:00001ddc       ??_C@_0BF@PGMBMCGF@id?9GostR3410?994?9bBis?$AA@ 10089ddc     libeay32:obj_dat.obj
 0002:00001df4       ??_C@_0N@NFCHNEPE@DES?9EDE3?9CFB?$AA@ 10089df4     libeay32:obj_dat.obj
 0002:00001e04       ??_C@_0BD@MEAAKKFJ@id?9Gost28147?989?9cc?$AA@ 10089e04     libeay32:obj_dat.obj
 0002:00001e18       ??_C@_0N@EBDFNPDL@des?9ede3?9cfb?$AA@ 10089e18     libeay32:obj_dat.obj
 0002:00001e28       ??_C@_0CB@KNOPDNHN@GOST?528147?989?5Cryptocom?5ParamSet@ 10089e28     libeay32:obj_dat.obj
 0002:00001e4c       ??_C@_0M@PDBPCBBK@DES?9EDE?9OFB?$AA@ 10089e4c     libeay32:obj_dat.obj
 0002:00001e58       ??_C@_08LCDFMIFG@gost94cc?$AA@ 10089e58     libeay32:obj_dat.obj
 0002:00001e64       ??_C@_0M@BOHDOFGF@des?9ede?9ofb?$AA@ 10089e64     libeay32:obj_dat.obj
 0002:00001e70       ??_C@_0BI@GJIILMEB@GOST?534?410?994?5Cryptocom?$AA@ 10089e70     libeay32:obj_dat.obj
 0002:00001e88       ??_C@_0N@JPPBGLEM@DES?9EDE3?9OFB?$AA@ 10089e88     libeay32:obj_dat.obj
 0002:00001e98       ??_C@_0L@PKDOCLKG@gost2001cc?$AA@ 10089e98     libeay32:obj_dat.obj
 0002:00001ea4       ??_C@_0N@LODGAID@des?9ede3?9ofb?$AA@ 10089ea4     libeay32:obj_dat.obj
 0002:00001eb4       ??_C@_0BK@IGCJADLM@GOST?534?410?92001?5Cryptocom?$AA@ 10089eb4     libeay32:obj_dat.obj
 0002:00001ed0       ??_C@_04KPMLCNGO@SHA1?$AA@ 10089ed0     libeay32:obj_dat.obj
 0002:00001ed8       ??_C@_0CF@FCIKJGLH@id?9GostR3411?994?9with?9GostR3410?99@ 10089ed8     libeay32:obj_dat.obj
 0002:00001f00       ??_C@_04PGHFOLLE@sha1?$AA@ 10089f00     libeay32:obj_dat.obj
 0002:00001f08       ??_C@_0CP@ILDIBBAJ@GOST?5R?534?411?994?5with?5GOST?5R?534?41@ 10089f08     libeay32:obj_dat.obj
 0002:00001f38       ??_C@_08FBKDDLCN@RSA?9SHA1?$AA@ 10089f38     libeay32:obj_dat.obj
 0002:00001f44       ??_C@_0CH@JJNMILDM@id?9GostR3411?994?9with?9GostR3410?92@ 10089f44     libeay32:obj_dat.obj
 0002:00001f6c       ??_C@_0BG@DALFFFBE@sha1WithRSAEncryption?$AA@ 10089f6c     libeay32:obj_dat.obj
 0002:00001f84       ??_C@_0DB@BGOOPLFE@GOST?5R?534?411?994?5with?5GOST?5R?534?41@ 10089f84     libeay32:obj_dat.obj
 0002:00001fb8       ??_C@_07JGDBCPKH@DSA?9SHA?$AA@ 10089fb8     libeay32:obj_dat.obj
 0002:00001fc0       ??_C@_0BO@LBPHKLOM@id?9GostR3410?92001?9ParamSet?9cc?$AA@ 10089fc0     libeay32:obj_dat.obj
 0002:00001fe0       ??_C@_0L@BEHMICBH@dsaWithSHA?$AA@ 10089fe0     libeay32:obj_dat.obj
 0002:00001fec       ??_C@_0CJ@NCCJHEBD@GOST?5R?53410?92001?5Parameter?5Set?5C@ 10089fec     libeay32:obj_dat.obj
 0002:00002018       ??_C@_07PLHLFGGF@DSA?9old?$AA@ 1008a018     libeay32:obj_dat.obj
 0002:00002020       ??_C@_04JCCMGALL@HMAC?$AA@ 1008a020     libeay32:obj_dat.obj
 0002:00002028       ??_C@_0BC@FFHHBCCH@dsaEncryption?9old?$AA@ 1008a028     libeay32:obj_dat.obj
 0002:0000203c       ??_C@_04FOBGICMD@hmac?$AA@ 1008a03c     libeay32:obj_dat.obj
 0002:00002044       ??_C@_0BA@KKPEMNGH@PBE?9SHA1?9RC2?964?$AA@ 1008a044     libeay32:obj_dat.obj
 0002:00002054       ??_C@_0M@LCODBGNO@LocalKeySet?$AA@ 1008a054     libeay32:obj_dat.obj
 0002:00002060       ??_C@_0BG@IBNNJING@pbeWithSHA1AndRC2?9CBC?$AA@ 1008a060     libeay32:obj_dat.obj
 0002:00002078       ??_C@_0BI@FMFOLFMC@Microsoft?5Local?5Key?5set?$AA@ 1008a078     libeay32:obj_dat.obj
 0002:00002090       ??_C@_06KBOEGBGA@PBKDF2?$AA@ 1008a090     libeay32:obj_dat.obj
 0002:00002098       ??_C@_0M@PKNKMHEG@freshestCRL?$AA@ 1008a098     libeay32:obj_dat.obj
 0002:000020a4       ??_C@_0N@ONIKBKNK@DSA?9SHA1?9old?$AA@ 1008a0a4     libeay32:obj_dat.obj
 0002:000020b4       ??_C@_0BE@KEJIKEFG@X509v3?5Freshest?5CRL?$AA@ 1008a0b4     libeay32:obj_dat.obj
 0002:000020c8       ??_C@_0BA@DDLLDHEM@dsaWithSHA1?9old?$AA@ 1008a0c8     libeay32:obj_dat.obj
 0002:000020d8       ??_C@_0BK@BMFCOPIC@id?9on?9permanentIdentifier?$AA@ 1008a0d8     libeay32:obj_dat.obj
 0002:000020f4       ??_C@_0L@IICLKDNB@nsCertType?$AA@ 1008a0f4     libeay32:obj_dat.obj
 0002:00002100       ??_C@_0BF@DGGAJJCO@Permanent?5Identifier?$AA@ 1008a100     libeay32:obj_dat.obj
 0002:00002118       ??_C@_0BD@NFPBEMEE@Netscape?5Cert?5Type?$AA@ 1008a118     libeay32:obj_dat.obj
 0002:0000212c       ??_C@_0M@MCCFGANF@searchGuide?$AA@ 1008a12c     libeay32:obj_dat.obj
 0002:00002138       ??_C@_09OCIGDOMM@nsBaseUrl?$AA@ 1008a138     libeay32:obj_dat.obj
 0002:00002144       ??_C@_0BB@GFJJGHBI@businessCategory?$AA@ 1008a144     libeay32:obj_dat.obj
 0002:00002158       ??_C@_0BC@DIHCABP@Netscape?5Base?5Url?$AA@ 1008a158     libeay32:obj_dat.obj
 0002:0000216c       ??_C@_0O@KABBPKPG@postalAddress?$AA@ 1008a16c     libeay32:obj_dat.obj
 0002:0000217c       ??_C@_0BA@DKPGPAKK@nsRevocationUrl?$AA@ 1008a17c     libeay32:obj_dat.obj
 0002:0000218c       ??_C@_0O@PCCHCGPG@postOfficeBox?$AA@ 1008a18c     libeay32:obj_dat.obj
 0002:0000219c       ??_C@_0BI@BCDINENC@Netscape?5Revocation?5Url?$AA@ 1008a19c     libeay32:obj_dat.obj
 0002:000021b4       ??_C@_0BL@DENBGONK@physicalDeliveryOfficeName?$AA@ 1008a1b4     libeay32:obj_dat.obj
 0002:000021d0       ??_C@_0BC@IKAPCMGG@nsCaRevocationUrl?$AA@ 1008a1d0     libeay32:obj_dat.obj
 0002:000021e4       ??_C@_0BA@NCAGJGBF@telephoneNumber?$AA@ 1008a1e4     libeay32:obj_dat.obj
 0002:000021f4       ??_C@_0BL@EMOMOFDB@Netscape?5CA?5Revocation?5Url?$AA@ 1008a1f4     libeay32:obj_dat.obj
 0002:00002210       ??_C@_0M@MMDMBPMM@telexNumber?$AA@ 1008a210     libeay32:obj_dat.obj
 0002:0000221c       ??_C@_0N@JILHKMLM@nsRenewalUrl?$AA@ 1008a21c     libeay32:obj_dat.obj
 0002:0000222c       ??_C@_0BK@BBNEJJDC@teletexTerminalIdentifier?$AA@ 1008a22c     libeay32:obj_dat.obj
 0002:00002248       ??_C@_0BF@FKENIIHB@Netscape?5Renewal?5Url?$AA@ 1008a248     libeay32:obj_dat.obj
 0002:00002260       ??_C@_0BJ@NDMMBDAB@facsimileTelephoneNumber?$AA@ 1008a260     libeay32:obj_dat.obj
 0002:0000227c       ??_C@_0O@DHDIMJD@nsCaPolicyUrl?$AA@ 1008a27c     libeay32:obj_dat.obj
 0002:0000228c       ??_C@_0M@MOCAHDLJ@x121Address?$AA@ 1008a28c     libeay32:obj_dat.obj
 0002:00002298       ??_C@_0BH@EMEFHLC@Netscape?5CA?5Policy?5Url?$AA@ 1008a298     libeay32:obj_dat.obj
 0002:000022b0       ??_C@_0BI@OAHCBLEE@internationaliSDNNumber?$AA@ 1008a2b0     libeay32:obj_dat.obj
 0002:000022c8       ??_C@_0BA@KNOKNJNE@nsSslServerName?$AA@ 1008a2c8     libeay32:obj_dat.obj
 0002:000022d8       ??_C@_0BC@DLLOJDNE@registeredAddress?$AA@ 1008a2d8     libeay32:obj_dat.obj
 0002:000022ec       ??_C@_0BJ@GMBLEMAL@Netscape?5SSL?5Server?5Name?$AA@ 1008a2ec     libeay32:obj_dat.obj
 0002:00002308       ??_C@_0BF@CMAFNEOO@destinationIndicator?$AA@ 1008a308     libeay32:obj_dat.obj
 0002:00002320       ??_C@_09BALDFHMJ@nsComment?$AA@ 1008a320     libeay32:obj_dat.obj
 0002:0000232c       ??_C@_0BI@MKMMOKIA@preferredDeliveryMethod?$AA@ 1008a32c     libeay32:obj_dat.obj
 0002:00002344       ??_C@_0BB@DCFBGIOA@Netscape?5Comment?$AA@ 1008a344     libeay32:obj_dat.obj
 0002:00002358       ??_C@_0BE@KHACCONJ@presentationAddress?$AA@ 1008a358     libeay32:obj_dat.obj
 0002:0000236c       ??_C@_0P@OCCBBJKK@nsCertSequence?$AA@ 1008a36c     libeay32:obj_dat.obj
 0002:0000237c       ??_C@_0BM@NHJFOGBI@supportedApplicationContext?$AA@ 1008a37c     libeay32:obj_dat.obj
 0002:00002398       ??_C@_0BO@KKKBMKBD@Netscape?5Certificate?5Sequence?$AA@ 1008a398     libeay32:obj_dat.obj
 0002:000023b8       ??_C@_06HDFDANIG@member?$AA@ 1008a3b8     libeay32:obj_dat.obj
 0002:000023c0       ??_C@_08BBKPFFGN@DESX?9CBC?$AA@ 1008a3c0     libeay32:obj_dat.obj
 0002:000023cc       ??_C@_05HEIBENID@owner?$AA@ 1008a3cc     libeay32:obj_dat.obj
 0002:000023d4       ??_C@_08KPMCEEEO@desx?9cbc?$AA@ 1008a3d4     libeay32:obj_dat.obj
 0002:000023e0       ??_C@_0N@NAEJMDPF@roleOccupant?$AA@ 1008a3e0     libeay32:obj_dat.obj
 0002:000023f0       ??_C@_05NDHEMDL@id?9ce?$AA@ 1008a3f0     libeay32:obj_dat.obj
 0002:000023f8       ??_C@_07JJAENDGN@seeAlso?$AA@ 1008a3f8     libeay32:obj_dat.obj
 0002:00002400       ??_C@_0BF@MOEDIMBI@subjectKeyIdentifier?$AA@ 1008a400     libeay32:obj_dat.obj
 0002:00002418       ??_C@_0N@JHMNNHKM@userPassword?$AA@ 1008a418     libeay32:obj_dat.obj
 0002:00002428       ??_C@_0BO@ILPNOINJ@X509v3?5Subject?5Key?5Identifier?$AA@ 1008a428     libeay32:obj_dat.obj
 0002:00002448       ??_C@_0BA@FEECIELF@userCertificate?$AA@ 1008a448     libeay32:obj_dat.obj
 0002:00002458       ??_C@_08BCICBOHF@keyUsage?$AA@ 1008a458     libeay32:obj_dat.obj
 0002:00002464       ??_C@_0O@JJCNKCKK@cACertificate?$AA@ 1008a464     libeay32:obj_dat.obj
 0002:00002474       ??_C@_0BB@BPPOKNBO@X509v3?5Key?5Usage?$AA@ 1008a474     libeay32:obj_dat.obj
 0002:00002488       ??_C@_0BI@EODAEBFG@authorityRevocationList?$AA@ 1008a488     libeay32:obj_dat.obj
 0002:000024a0       ??_C@_0BG@JOIAJOMN@privateKeyUsagePeriod?$AA@ 1008a4a0     libeay32:obj_dat.obj
 0002:000024b8       ??_C@_0BK@IMFDMOND@certificateRevocationList?$AA@ 1008a4b8     libeay32:obj_dat.obj
 0002:000024d4       ??_C@_0CA@CLGHAMIP@X509v3?5Private?5Key?5Usage?5Period?$AA@ 1008a4d4     libeay32:obj_dat.obj
 0002:000024f4       ??_C@_0BF@GAAPBDAE@crossCertificatePair?$AA@ 1008a4f4     libeay32:obj_dat.obj
 0002:0000250c       ??_C@_0P@EOFJHHKD@subjectAltName?$AA@ 1008a50c     libeay32:obj_dat.obj
 0002:0000251c       ??_C@_0BE@NNAGLFEM@enhancedSearchGuide?$AA@ 1008a51c     libeay32:obj_dat.obj
 0002:00002530       ??_C@_0CA@OPCJJLNF@X509v3?5Subject?5Alternative?5Name?$AA@ 1008a530     libeay32:obj_dat.obj
 0002:00002550       ??_C@_0BE@FKAMNJMM@protocolInformation?$AA@ 1008a550     libeay32:obj_dat.obj
 0002:00002564       ??_C@_0O@DLIFHFCD@issuerAltName?$AA@ 1008a564     libeay32:obj_dat.obj
 0002:00002574       ??_C@_0BC@IIJOGNNH@distinguishedName?$AA@ 1008a574     libeay32:obj_dat.obj
 0002:00002588       ??_C@_0BP@FMJCGPCG@X509v3?5Issuer?5Alternative?5Name?$AA@ 1008a588     libeay32:obj_dat.obj
 0002:000025a8       ??_C@_0N@FIGDLDDJ@uniqueMember?$AA@ 1008a5a8     libeay32:obj_dat.obj
 0002:000025b8       ??_C@_0BB@IKNGJCLO@basicConstraints?$AA@ 1008a5b8     libeay32:obj_dat.obj
 0002:000025cc       ??_C@_0BA@EKKIBBF@houseIdentifier?$AA@ 1008a5cc     libeay32:obj_dat.obj
 0002:000025dc       ??_C@_0BJ@FBHDAJML@X509v3?5Basic?5Constraints?$AA@ 1008a5dc     libeay32:obj_dat.obj
 0002:000025f8       ??_C@_0BE@KGOGIPEN@supportedAlgorithms?$AA@ 1008a5f8     libeay32:obj_dat.obj
 0002:0000260c       ??_C@_09JDPHHKMA@crlNumber?$AA@ 1008a60c     libeay32:obj_dat.obj
 0002:00002618       ??_C@_0BE@MNOFELKF@deltaRevocationList?$AA@ 1008a618     libeay32:obj_dat.obj
 0002:0000262c       ??_C@_0BC@PCPNBDDJ@X509v3?5CRL?5Number?$AA@ 1008a62c     libeay32:obj_dat.obj
 0002:00002640       ??_C@_07ILKEFPGB@dmdName?$AA@ 1008a640     libeay32:obj_dat.obj
 0002:00002648       ??_C@_0BE@OLMJNPEP@certificatePolicies?$AA@ 1008a648     libeay32:obj_dat.obj
 0002:0000265c       ??_C@_0BA@NJOHMDIG@id?9alg?9PWRI?9KEK?$AA@ 1008a65c     libeay32:obj_dat.obj
 0002:0000266c       ??_C@_0BM@OOFGKLPK@X509v3?5Certificate?5Policies?$AA@ 1008a66c     libeay32:obj_dat.obj
 0002:00002688       ??_C@_04OFPMFBKK@CMAC?$AA@ 1008a688     libeay32:obj_dat.obj
 0002:00002690       ??_C@_0BH@ICHFALGD@authorityKeyIdentifier?$AA@ 1008a690     libeay32:obj_dat.obj
 0002:000026a8       ??_C@_04CJMGLDNC@cmac?$AA@ 1008a6a8     libeay32:obj_dat.obj
 0002:000026b0       ??_C@_0CA@GODCHEHD@X509v3?5Authority?5Key?5Identifier?$AA@ 1008a6b0     libeay32:obj_dat.obj
 0002:000026d0       ??_C@_0O@LNIKAOOL@id?9aes128?9GCM?$AA@ 1008a6d0     libeay32:obj_dat.obj
 0002:000026e0       ??_C@_06HALMPEKO@BF?9CBC?$AA@ 1008a6e0     libeay32:obj_dat.obj
 0002:000026e8       ??_C@_0M@ODEOFOCG@aes?9128?9gcm?$AA@ 1008a6e8     libeay32:obj_dat.obj
 0002:000026f4       ??_C@_06LFFGAFHI@bf?9cbc?$AA@ 1008a6f4     libeay32:obj_dat.obj
 0002:000026fc       ??_C@_0O@DCOIJJLM@id?9aes128?9CCM?$AA@ 1008a6fc     libeay32:obj_dat.obj
 0002:0000270c       ??_C@_06ENAOPAAE@BF?9ECB?$AA@ 1008a70c     libeay32:obj_dat.obj
 0002:00002714       ??_C@_0M@GMCMMJHB@aes?9128?9ccm?$AA@ 1008a714     libeay32:obj_dat.obj
 0002:00002720       ??_C@_06IIOEABNC@bf?9ecb?$AA@ 1008a720     libeay32:obj_dat.obj
 0002:00002728       ??_C@_0BD@HMJBEGNL@id?9aes128?9wrap?9pad?$AA@ 1008a728     libeay32:obj_dat.obj
 0002:0000273c       ??_C@_06GOKOGNDD@BF?9CFB?$AA@ 1008a73c     libeay32:obj_dat.obj
 0002:00002744       ??_C@_0O@BOBGHJHH@id?9aes192?9GCM?$AA@ 1008a744     libeay32:obj_dat.obj
 0002:00002754       ??_C@_06KLEEJMOF@bf?9cfb?$AA@ 1008a754     libeay32:obj_dat.obj
 0002:0000275c       ??_C@_0M@EANCCJLK@aes?9192?9gcm?$AA@ 1008a75c     libeay32:obj_dat.obj
 0002:00002768       ??_C@_06CEHINCIL@BF?9OFB?$AA@ 1008a768     libeay32:obj_dat.obj
 0002:00002770       ??_C@_0O@JBHEOOCA@id?9aes192?9CCM?$AA@ 1008a770     libeay32:obj_dat.obj
 0002:00002780       ??_C@_06OBJCCDFN@bf?9ofb?$AA@ 1008a780     libeay32:obj_dat.obj
 0002:00002788       ??_C@_0M@MPLALOON@aes?9192?9ccm?$AA@ 1008a788     libeay32:obj_dat.obj
 0002:00002794       ??_C@_04BCGEDMJI@MDC2?$AA@ 1008a794     libeay32:obj_dat.obj
 0002:0000279c       ??_C@_0BD@OPKMLKFB@id?9aes192?9wrap?9pad?$AA@ 1008a79c     libeay32:obj_dat.obj
 0002:000027b0       ??_C@_04ELNKPKEC@mdc2?$AA@ 1008a7b0     libeay32:obj_dat.obj
 0002:000027b8       ??_C@_0O@MMKIFGPG@id?9aes256?9GCM?$AA@ 1008a7b8     libeay32:obj_dat.obj
 0002:000027c8       ??_C@_08OMAMCKNL@RSA?9MDC2?$AA@ 1008a7c8     libeay32:obj_dat.obj
 0002:000027d4       ??_C@_0M@JCGMAGDL@aes?9256?9gcm?$AA@ 1008a7d4     libeay32:obj_dat.obj
 0002:000027e0       ??_C@_0M@HGGNEPNN@mdc2WithRSA?$AA@ 1008a7e0     libeay32:obj_dat.obj
 0002:000027ec       ??_C@_0O@EDMKMBKB@id?9aes256?9CCM?$AA@ 1008a7ec     libeay32:obj_dat.obj
 0002:000027fc       ??_C@_06KFMILCMH@RC4?940?$AA@ 1008a7fc     libeay32:obj_dat.obj
 0002:00002804       ??_C@_0M@BNAOJBGM@aes?9256?9ccm?$AA@ 1008a804     libeay32:obj_dat.obj
 0002:00002810       ??_C@_06GNNJIOGN@rc4?940?$AA@ 1008a810     libeay32:obj_dat.obj
 0002:00002818       ??_C@_0BD@OHLFOIJM@id?9aes256?9wrap?9pad?$AA@ 1008a818     libeay32:obj_dat.obj
 0002:0000282c       ??_C@_0L@ODHPNGGE@RC2?940?9CBC?$AA@ 1008a82c     libeay32:obj_dat.obj
 0002:00002838       ??_C@_0M@GEBEOIJJ@AES?9128?9CTR?$AA@ 1008a838     libeay32:obj_dat.obj
 0002:00002844       ??_C@_0L@CHEFJHBP@rc2?940?9cbc?$AA@ 1008a844     libeay32:obj_dat.obj
 0002:00002850       ??_C@_0M@LIBPHCBK@aes?9128?9ctr?$AA@ 1008a850     libeay32:obj_dat.obj
 0002:0000285c       ??_C@_02BLJBNPCD@GN?$AA@   1008a85c     libeay32:obj_dat.obj
 0002:00002860       ??_C@_0M@MHIIJPAF@AES?9192?9CTR?$AA@ 1008a860     libeay32:obj_dat.obj
 0002:0000286c       ??_C@_09GCBNJLNP@givenName?$AA@ 1008a86c     libeay32:obj_dat.obj
 0002:00002878       ??_C@_0M@BLIDAFIG@aes?9192?9ctr?$AA@ 1008a878     libeay32:obj_dat.obj
 0002:00002884       ??_C@_02LONEIP@SN?$AA@     1008a884     libeay32:obj_dat.obj
 0002:00002888       ??_C@_0M@BFDGLAIE@AES?9256?9CTR?$AA@ 1008a888     libeay32:obj_dat.obj
 0002:00002894       ??_C@_07LNKFHLHI@surname?$AA@ 1008a894     libeay32:obj_dat.obj
 0002:0000289c       ??_C@_0M@MJDNCKAH@aes?9256?9ctr?$AA@ 1008a89c     libeay32:obj_dat.obj
 0002:000028a8       ??_C@_08PAKNLFON@initials?$AA@ 1008a8a8     libeay32:obj_dat.obj
 0002:000028b4       ??_C@_0BE@JENMCLBD@id?9camellia128?9wrap?$AA@ 1008a8b4     libeay32:obj_dat.obj
 0002:000028c8       ??_C@_0BG@CCHGOEBE@crlDistributionPoints?$AA@ 1008a8c8     libeay32:obj_dat.obj
 0002:000028e0       ??_C@_0BE@GNMGGIAL@id?9camellia192?9wrap?$AA@ 1008a8e0     libeay32:obj_dat.obj
 0002:000028f4       ??_C@_0BP@EGHJGANM@X509v3?5CRL?5Distribution?5Points?$AA@ 1008a8f4     libeay32:obj_dat.obj
 0002:00002914       ??_C@_0BE@PHKLGFJC@id?9camellia256?9wrap?$AA@ 1008a914     libeay32:obj_dat.obj
 0002:00002928       ??_C@_0L@NACEPNFC@RSA?9NP?9MD5?$AA@ 1008a928     libeay32:obj_dat.obj
 0002:00002934       ??_C@_0BE@FKFLDMON@anyExtendedKeyUsage?$AA@ 1008a934     libeay32:obj_dat.obj
 0002:00002948       ??_C@_0L@CNDCBNIN@md5WithRSA?$AA@ 1008a948     libeay32:obj_dat.obj
 0002:00002954       ??_C@_0BH@FHBOBBKO@Any?5Extended?5Key?5Usage?$AA@ 1008a954     libeay32:obj_dat.obj
 0002:0000296c       ??_C@_0N@OMOHFKCJ@serialNumber?$AA@ 1008a96c     libeay32:obj_dat.obj
 0002:0000297c       ??_C@_04CNDHACFO@MGF1?$AA@ 1008a97c     libeay32:obj_dat.obj
 0002:00002984       ??_C@_05PHLGJONK@title?$AA@ 1008a984     libeay32:obj_dat.obj
 0002:0000298c       ??_C@_04HEIJMEIE@mgf1?$AA@ 1008a98c     libeay32:obj_dat.obj
 0002:00002994       ??_C@_0M@PPJNHBMP@description?$AA@ 1008a994     libeay32:obj_dat.obj
 0002:000029a0       ??_C@_0L@CPMAKEFG@RSASSA?9PSS?$AA@ 1008a9a0     libeay32:obj_dat.obj
 0002:000029ac       ??_C@_09OACPMKPP@CAST5?9CBC?$AA@ 1008a9ac     libeay32:obj_dat.obj
 0002:000029b8       ??_C@_09FGGKIFKD@rsassaPss?$AA@ 1008a9b8     libeay32:obj_dat.obj
 0002:000029c4       ??_C@_09BGLDNNDK@cast5?9cbc?$AA@ 1008a9c4     libeay32:obj_dat.obj
 0002:000029d0       ??_C@_0M@PKBHAJEG@AES?9128?9XTS?$AA@ 1008a9d0     libeay32:obj_dat.obj
 0002:000029dc       ??_C@_09NNJNMOFF@CAST5?9ECB?$AA@ 1008a9dc     libeay32:obj_dat.obj
 0002:000029e8       ??_C@_0M@CGBMJDMF@aes?9128?9xts?$AA@ 1008a9e8     libeay32:obj_dat.obj
 0002:000029f4       ??_C@_09CLABNJJA@cast5?9ecb?$AA@ 1008a9f4     libeay32:obj_dat.obj
 0002:00002a00       ??_C@_0M@ILDFFBFL@AES?9256?9XTS?$AA@ 1008aa00     libeay32:obj_dat.obj
 0002:00002a0c       ??_C@_09PODNFDGC@CAST5?9CFB?$AA@ 1008aa0c     libeay32:obj_dat.obj
 0002:00002a18       ??_C@_0M@FHDOMLNI@aes?9256?9xts?$AA@ 1008aa18     libeay32:obj_dat.obj
 0002:00002a24       ??_C@_09IKBEEKH@cast5?9cfb?$AA@ 1008aa24     libeay32:obj_dat.obj
 0002:00002a30       ??_C@_0N@MFFPBCGK@RC4?9HMAC?9MD5?$AA@ 1008aa30     libeay32:obj_dat.obj
 0002:00002a40       ??_C@_09LEOLOMNK@CAST5?9OFB?$AA@ 1008aa40     libeay32:obj_dat.obj
 0002:00002a4c       ??_C@_0N@EFPJLHOG@rc4?9hmac?9md5?$AA@ 1008aa4c     libeay32:obj_dat.obj
 0002:00002a5c       ??_C@_09ECHHPLBP@cast5?9ofb?$AA@ 1008aa5c     libeay32:obj_dat.obj
 0002:00002a68       ??_C@_0BG@OKEPPAEE@AES?9128?9CBC?9HMAC?9SHA1?$AA@ 1008aa68     libeay32:obj_dat.obj
 0002:00002a80       ??_C@_0BG@JCFINJGL@pbeWithMD5AndCast5CBC?$AA@ 1008aa80     libeay32:obj_dat.obj
 0002:00002a98       ??_C@_0BG@CLBGODOC@aes?9128?9cbc?9hmac?9sha1?$AA@ 1008aa98     libeay32:obj_dat.obj
 0002:00002ab0       ??_C@_08IOHJAANG@DSA?9SHA1?$AA@ 1008aab0     libeay32:obj_dat.obj
 0002:00002abc       ??_C@_0BG@KLHGFOHC@AES?9192?9CBC?9HMAC?9SHA1?$AA@ 1008aabc     libeay32:obj_dat.obj
 0002:00002ad4       ??_C@_0M@EFJKPOPH@dsaWithSHA1?$AA@ 1008aad4     libeay32:obj_dat.obj
 0002:00002ae0       ??_C@_0BG@GKCPENNE@aes?9192?9cbc?9hmac?9sha1?$AA@ 1008aae0     libeay32:obj_dat.obj
 0002:00002af8       ??_C@_08EMIDHKIH@MD5?9SHA1?$AA@ 1008aaf8     libeay32:obj_dat.obj
 0002:00002b04       ??_C@_0BG@NJKHMG@AES?9256?9CBC?9HMAC?9SHA1?$AA@ 1008ab04     libeay32:obj_dat.obj
 0002:00002b1c       ??_C@_08GOLKFMKI@md5?9sha1?$AA@ 1008ab1c     libeay32:obj_dat.obj
 0002:00002b28       ??_C@_0BG@MBIALEGA@aes?9256?9cbc?9hmac?9sha1?$AA@ 1008ab28     libeay32:obj_dat.obj
 0002:00002b40       ??_C@_0L@EMMEGDKK@RSA?9SHA1?92?$AA@ 1008ab40     libeay32:obj_dat.obj
 0002:00002b4c       ??_C@_0L@NCPDMLAN@RSAES?9OAEP?$AA@ 1008ab4c     libeay32:obj_dat.obj
 0002:00002b58       ??_C@_0M@KECGAPAA@sha1WithRSA?$AA@ 1008ab58     libeay32:obj_dat.obj
 0002:00002b64       ??_C@_09FHIEKOPH@rsaesOaep?$AA@ 1008ab64     libeay32:obj_dat.obj
 0002:00002b70       ??_C@_03ENFFABCE@DSA?$AA@  1008ab70     libeay32:obj_dat.obj
 0002:00002b74       ??_C@_0P@BHMOKJEG@dhpublicnumber?$AA@ 1008ab74     libeay32:obj_dat.obj
 0002:00002b84       ??_C@_0O@GMANLAEO@dsaEncryption?$AA@ 1008ab84     libeay32:obj_dat.obj
 0002:00002b94       ??_C@_08HOHHODNK@X9?442?5DH?$AA@ 1008ab94     libeay32:obj_dat.obj
 0002:00002ba0       ??_C@_09DJDCAKJG@RIPEMD160?$AA@ 1008aba0     libeay32:obj_dat.obj
 0002:00002bac       ??_C@_0BA@CDGJLDLH@brainpoolP160r1?$AA@ 1008abac     libeay32:obj_dat.obj
 0002:00002bbc       ??_C@_09EDIPKBN@ripemd160?$AA@ 1008abbc     libeay32:obj_dat.obj
 0002:00002bc8       ??_C@_0BA@CHOEMPAF@brainpoolP160t1?$AA@ 1008abc8     libeay32:obj_dat.obj
 0002:00002bd8       ??_C@_0O@JPOIHGOH@RSA?9RIPEMD160?$AA@ 1008abd8     libeay32:obj_dat.obj
 0002:00002be8       ??_C@_0BA@LDAOMON@brainpoolP192r1?$AA@ 1008abe8     libeay32:obj_dat.obj
 0002:00002bf8       ??_C@_0BB@DCJDAKFH@ripemd160WithRSA?$AA@ 1008abf8     libeay32:obj_dat.obj
 0002:00002c0c       ??_C@_0BA@PLNJAFP@brainpoolP192t1?$AA@ 1008ac0c     libeay32:obj_dat.obj
 0002:00002c1c       ??_C@_07LEDAHENJ@RC5?9CBC?$AA@ 1008ac1c     libeay32:obj_dat.obj
 0002:00002c24       ??_C@_0BA@NPBPPAIO@brainpoolP224r1?$AA@ 1008ac24     libeay32:obj_dat.obj
 0002:00002c34       ??_C@_07IPAAOCGP@rc5?9cbc?$AA@ 1008ac34     libeay32:obj_dat.obj
 0002:00002c3c       ??_C@_0BA@NLJCIMDM@brainpoolP224t1?$AA@ 1008ac3c     libeay32:obj_dat.obj
 0002:00002c4c       ??_C@_07IJICHAHD@RC5?9ECB?$AA@ 1008ac4c     libeay32:obj_dat.obj
 0002:00002c54       ??_C@_0BA@MHDGOEBF@brainpoolP256r1?$AA@ 1008ac54     libeay32:obj_dat.obj
 0002:00002c64       ??_C@_07LCLCOGMF@rc5?9ecb?$AA@ 1008ac64     libeay32:obj_dat.obj
 0002:00002c6c       ??_C@_0BA@MDLLJIKH@brainpoolP256t1?$AA@ 1008ac6c     libeay32:obj_dat.obj
 0002:00002c7c       ??_C@_07KKCCONEE@RC5?9CFB?$AA@ 1008ac7c     libeay32:obj_dat.obj
 0002:00002c84       ??_C@_0BA@JLCBLEHM@brainpoolP320r1?$AA@ 1008ac84     libeay32:obj_dat.obj
 0002:00002c94       ??_C@_07JBBCHLPC@rc5?9cfb?$AA@ 1008ac94     libeay32:obj_dat.obj
 0002:00002c9c       ??_C@_0BA@JPKMMIMO@brainpoolP320t1?$AA@ 1008ac9c     libeay32:obj_dat.obj
 0002:00002cac       ??_C@_07OAPEFCPM@RC5?9OFB?$AA@ 1008acac     libeay32:obj_dat.obj
 0002:00002cb4       ??_C@_0BA@FOPDDLIK@brainpoolP384r1?$AA@ 1008acb4     libeay32:obj_dat.obj
 0002:00002cc4       ??_C@_07NLMEMEEK@rc5?9ofb?$AA@ 1008acc4     libeay32:obj_dat.obj
 0002:00002ccc       ??_C@_0BA@FKHOEHDI@brainpoolP384t1?$AA@ 1008accc     libeay32:obj_dat.obj
 0002:00002cdc       ??_C@_03ELDBCICO@RLE?$AA@  1008acdc     libeay32:obj_dat.obj
 0002:00002ce0       ??_C@_0BA@KANBOFDK@brainpoolP512r1?$AA@ 1008ace0     libeay32:obj_dat.obj
 0002:00002cf0       ??_C@_0BH@CAEIMNHD@run?5length?5compression?$AA@ 1008acf0     libeay32:obj_dat.obj
 0002:00002d08       ??_C@_0BA@KEFMJJII@brainpoolP512t1?$AA@ 1008ad08     libeay32:obj_dat.obj
 0002:00002d18       ??_C@_04CHLIKDMF@ZLIB?$AA@ 1008ad18     libeay32:obj_dat.obj
 0002:00002d20       ??_C@_0L@CDJFGILH@PSPECIFIED?$AA@ 1008ad20     libeay32:obj_dat.obj
 0002:00002d2c       ??_C@_0BB@KGNEOBKL@zlib?5compression?$AA@ 1008ad2c     libeay32:obj_dat.obj
 0002:00002d40       ??_C@_0L@NKKFNJEH@pSpecified?$AA@ 1008ad40     libeay32:obj_dat.obj
 0002:00002d4c       ??_C@_0BB@DGDLKPHD@extendedKeyUsage?$AA@ 1008ad4c     libeay32:obj_dat.obj
 0002:00002d60       ??_C@_0CC@GCFJNDOJ@dhSinglePass?9stdDH?9sha1kdf?9schem@ 1008ad60     libeay32:obj_dat.obj
 0002:00002d84       ??_C@_0BK@KFMGFBEG@X509v3?5Extended?5Key?5Usage?$AA@ 1008ad84     libeay32:obj_dat.obj
 0002:00002da0       ??_C@_0CE@OPNDOJI@dhSinglePass?9stdDH?9sha224kdf?9sch@ 1008ada0     libeay32:obj_dat.obj
 0002:00002dc4       ??_C@_04EAPCHJAG@PKIX?$AA@ 1008adc4     libeay32:obj_dat.obj
 0002:00002dcc       ??_C@_0CE@JPLFKGFP@dhSinglePass?9stdDH?9sha256kdf?9sch@ 1008adcc     libeay32:obj_dat.obj
 0002:00002df0       ??_C@_05DEJBPLJH@id?9kp?$AA@ 1008adf0     libeay32:obj_dat.obj
 0002:00002df8       ??_C@_0CE@KJKNLJMI@dhSinglePass?9stdDH?9sha384kdf?9sch@ 1008adf8     libeay32:obj_dat.obj
 0002:00002e1c       ??_C@_0L@CINGAJGN@serverAuth?$AA@ 1008ae1c     libeay32:obj_dat.obj
 0002:00002e28       ??_C@_0CE@DJMHFNHG@dhSinglePass?9stdDH?9sha512kdf?9sch@ 1008ae28     libeay32:obj_dat.obj
 0002:00002e4c       ??_C@_0BO@HPFOJNNE@TLS?5Web?5Server?5Authentication?$AA@ 1008ae4c     libeay32:obj_dat.obj
 0002:00002e6c       ??_C@_0CH@DHIHBIGF@dhSinglePass?9cofactorDH?9sha1kdf?9@ 1008ae6c     libeay32:obj_dat.obj
 0002:00002e94       ??_C@_0L@HCMKLLOP@clientAuth?$AA@ 1008ae94     libeay32:obj_dat.obj
 0002:00002ea0       ??_C@_0CJ@JFHNKHDJ@dhSinglePass?9cofactorDH?9sha224kd@ 1008aea0     libeay32:obj_dat.obj
 0002:00002ecc       ??_C@_0BO@FEMCBEOF@TLS?5Web?5Client?5Authentication?$AA@ 1008aecc     libeay32:obj_dat.obj
 0002:00002eec       ??_C@_0CJ@EDFDPPO@dhSinglePass?9cofactorDH?9sha256kd@ 1008aeec     libeay32:obj_dat.obj
 0002:00002f18       ??_C@_0M@OJNCNGJ@codeSigning?$AA@ 1008af18     libeay32:obj_dat.obj
 0002:00002f24       ??_C@_0CJ@DCCNCAGJ@dhSinglePass?9cofactorDH?9sha384kd@ 1008af24     libeay32:obj_dat.obj
 0002:00002f50       ??_C@_0N@CHJHLHFC@Code?5Signing?$AA@ 1008af50     libeay32:obj_dat.obj
 0002:00002f60       ??_C@_0CJ@KCEHMENH@dhSinglePass?9cofactorDH?9sha512kd@ 1008af60     libeay32:obj_dat.obj
 0002:00002f8c       ??_C@_0BA@NPCFDPCO@emailProtection?$AA@ 1008af8c     libeay32:obj_dat.obj
 0002:00002f9c       ??_C@_0L@MFGJJBLE@dh?9std?9kdf?$AA@ 1008af9c     libeay32:obj_dat.obj
 0002:00002fa8       ??_C@_0BC@BLBGFKKG@E?9mail?5Protection?$AA@ 1008afa8     libeay32:obj_dat.obj
 0002:00002fbc       ??_C@_0BA@LJEJAEDG@dh?9cofactor?9kdf?$AA@ 1008afbc     libeay32:obj_dat.obj
 0002:00002fcc       ??_C@_0N@LONEBHPN@timeStamping?$AA@ 1008afcc     libeay32:obj_dat.obj
 0002:00002fdc       ??_C@_0BI@JAKBILLC@AES?9128?9CBC?9HMAC?9SHA256?$AA@ 1008afdc     libeay32:obj_dat.obj
 0002:00002ff4       ??_C@_0O@GMMBLMEE@Time?5Stamping?$AA@ 1008aff4     libeay32:obj_dat.obj
 0002:00003004       ??_C@_0BI@OMECBAFK@aes?9128?9cbc?9hmac?9sha256?$AA@ 1008b004     libeay32:obj_dat.obj
 0002:0000301c       ??_C@_09EMNNPEBE@msCodeInd?$AA@ 1008b01c     libeay32:obj_dat.obj
 0002:00003028       ??_C@_0BI@CINDNFBB@AES?9192?9CBC?9HMAC?9SHA256?$AA@ 1008b028     libeay32:obj_dat.obj
 0002:00003040       ??_C@_0CC@NDDHKAMP@Microsoft?5Individual?5Code?5Signin@ 1008b040     libeay32:obj_dat.obj
 0002:00003064       ??_C@_0BI@FEDAEOPJ@aes?9192?9cbc?9hmac?9sha256?$AA@ 1008b064     libeay32:obj_dat.obj
 0002:0000307c       ??_C@_09PDGAMFAO@msCodeCom?$AA@ 1008b07c     libeay32:obj_dat.obj
 0002:00003088       ??_C@_0BI@GMBLFPLK@AES?9256?9CBC?9HMAC?9SHA256?$AA@ 1008b088     libeay32:obj_dat.obj
 0002:000030a0       ??_C@_0CC@GKFNEBFA@Microsoft?5Commercial?5Code?5Signin@ 1008b0a0     libeay32:obj_dat.obj
 0002:000030c4       ??_C@_0BI@BAPIMEFC@aes?9256?9cbc?9hmac?9sha256?$AA@ 1008b0c4     libeay32:obj_dat.obj
 0002:000030dc       ??_C@_09HGCLLDPK@msCTLSign?$AA@ 1008b0dc     libeay32:obj_dat.obj
 0002:000030e8       ??_C@_0BA@EKNBJPMK@ct_precert_scts?$AA@ 1008b0e8     libeay32:obj_dat.obj
 0002:000030f8       ??_C@_0BN@GNMCHNOI@Microsoft?5Trust?5List?5Signing?$AA@ 1008b0f8     libeay32:obj_dat.obj
 0002:00003118       ??_C@_0BH@MJHOKGCL@CT?5Precertificate?5SCTs?$AA@ 1008b118     libeay32:obj_dat.obj
 0002:00003130       ??_C@_05DDBMPPAI@msSGC?$AA@ 1008b130     libeay32:obj_dat.obj
 0002:00003138       ??_C@_0BC@DHAKLICB@ct_precert_poison?$AA@ 1008b138     libeay32:obj_dat.obj
 0002:0000314c       ??_C@_0BO@FBDDCLK@Microsoft?5Server?5Gated?5Crypto?$AA@ 1008b14c     libeay32:obj_dat.obj
 0002:0000316c       ??_C@_0BJ@OJAHFLBJ@CT?5Precertificate?5Poison?$AA@ 1008b16c     libeay32:obj_dat.obj
 0002:00003188       ??_C@_05NGOIPCN@msEFS?$AA@ 1008b188     libeay32:obj_dat.obj
 0002:00003190       ??_C@_0BC@CGBIKIAJ@ct_precert_signer?$AA@ 1008b190     libeay32:obj_dat.obj
 0002:000031a4       ??_C@_0CA@IJODBCMB@Microsoft?5Encrypted?5File?5System?$AA@ 1008b1a4     libeay32:obj_dat.obj
 0002:000031c4       ??_C@_0BJ@PIBFELDB@CT?5Precertificate?5Signer?$AA@ 1008b1c4     libeay32:obj_dat.obj
 0002:000031e0       ??_C@_05LFIIINKG@nsSGC?$AA@ 1008b1e0     libeay32:obj_dat.obj
 0002:000031e8       ??_C@_0N@GIBNBHKA@ct_cert_scts?$AA@ 1008b1e8     libeay32:obj_dat.obj
 0002:000031f8       ??_C@_0BN@MDNLHLBL@Netscape?5Server?5Gated?5Crypto?$AA@ 1008b1f8     libeay32:obj_dat.obj
 0002:00003218       ??_C@_0BE@OLBHFOCE@CT?5Certificate?5SCTs?$AA@ 1008b218     libeay32:obj_dat.obj
 0002:0000322c       ??_C@_08ECNAKPJJ@deltaCRL?$AA@ 1008b22c     libeay32:obj_dat.obj
 0002:00003238       ??_C@_0O@CEMHPDIN@jurisdictionL?$AA@ 1008b238     libeay32:obj_dat.obj
 0002:00003248       ??_C@_0BL@HLNLPBHP@X509v3?5Delta?5CRL?5Indicator?$AA@ 1008b248     libeay32:obj_dat.obj
 0002:00003264       ??_C@_0BJ@DGGEPBOP@jurisdictionLocalityName?$AA@ 1008b264     libeay32:obj_dat.obj
 0002:00003280       ??_C@_09MCDAGILE@CRLReason?$AA@ 1008b280     libeay32:obj_dat.obj
 0002:0000328c       ??_C@_0P@FKIAEEHD@jurisdictionST?$AA@ 1008b28c     libeay32:obj_dat.obj
 0002:0000329c       ??_C@_0BH@GODIEFKG@X509v3?5CRL?5Reason?5Code?$AA@ 1008b29c     libeay32:obj_dat.obj
 0002:000032b4       ??_C@_0CA@ILILPDLE@jurisdictionStateOrProvinceName?$AA@ 1008b2b4     libeay32:obj_dat.obj
 0002:000032d4       ??_C@_0P@BKEGCOMO@invalidityDate?$AA@ 1008b2d4     libeay32:obj_dat.obj
 0002:000032e4       ??_C@_0O@KDFPOPEC@jurisdictionC?$AA@ 1008b2e4     libeay32:obj_dat.obj
 0002:000032f4       ??_C@_0BA@JDBEMONE@Invalidity?5Date?$AA@ 1008b2f4     libeay32:obj_dat.obj
 0002:00003304       ??_C@_0BI@IBHEHEJE@jurisdictionCountryName?$AA@ 1008b304     libeay32:obj_dat.obj
 0002:0000331c       ??_C@_07DKMNOLMH@SXNetID?$AA@ 1008b31c     libeay32:obj_dat.obj
 0002:0000d110       ??_C@_0BD@PNDCMCDK@Strong?5Extranet?5ID?$AA@ 10095110     libeay32:obj_dat.obj
 0002:0000d124       ??_C@_0BB@ILOABLNL@PBE?9SHA1?9RC4?9128?$AA@ 10095124     libeay32:obj_dat.obj
 0002:0000d138       ??_C@_0BI@LBIFCLPB@pbeWithSHA1And128BitRC4?$AA@ 10095138     libeay32:obj_dat.obj
 0002:0000d150       ??_C@_0BA@ECFMCJKN@PBE?9SHA1?9RC4?940?$AA@ 10095150     libeay32:obj_dat.obj
 0002:0000d160       ??_C@_0BH@OCAEJMIL@pbeWithSHA1And40BitRC4?$AA@ 10095160     libeay32:obj_dat.obj
 0002:0000d178       ??_C@_0O@EDBOMBNM@PBE?9SHA1?93DES?$AA@ 10095178     libeay32:obj_dat.obj
 0002:0000d188       ??_C@_0CB@FCNCEDP@pbeWithSHA1And3?9KeyTripleDES?9CBC@ 10095188     libeay32:obj_dat.obj
 0002:0000d1ac       ??_C@_0O@HOHOOIGM@PBE?9SHA1?92DES?$AA@ 100951ac     libeay32:obj_dat.obj
 0002:0000d1bc       ??_C@_0CB@NCMPKEGH@pbeWithSHA1And2?9KeyTripleDES?9CBC@ 100951bc     libeay32:obj_dat.obj
 0002:0000d1e0       ??_C@_0BB@FNLJPIMG@PBE?9SHA1?9RC2?9128?$AA@ 100951e0     libeay32:obj_dat.obj
 0002:0000d1f4       ??_C@_0BM@DOLDINME@pbeWithSHA1And128BitRC2?9CBC?$AA@ 100951f4     libeay32:obj_dat.obj
 0002:0000d210       ??_C@_0BA@MNBMNMAN@PBE?9SHA1?9RC2?940?$AA@ 10095210     libeay32:obj_dat.obj
 0002:0000d220       ??_C@_0BL@CKNKIMON@pbeWithSHA1And40BitRC2?9CBC?$AA@ 10095220     libeay32:obj_dat.obj
 0002:0000d23c       ??_C@_06BFGNOIAI@keyBag?$AA@ 1009523c     libeay32:obj_dat.obj
 0002:0000d244       ??_C@_0BE@ELJKIANF@pkcs8ShroudedKeyBag?$AA@ 10095244     libeay32:obj_dat.obj
 0002:0000d258       ??_C@_07FDLMCII@certBag?$AA@ 10095258     libeay32:obj_dat.obj
 0002:0000d260       ??_C@_06JAFBIMLO@crlBag?$AA@ 10095260     libeay32:obj_dat.obj
 0002:0000d268       ??_C@_09DELDBPIE@secretBag?$AA@ 10095268     libeay32:obj_dat.obj
 0002:0000d274       ??_C@_0BA@KAKLKBBC@safeContentsBag?$AA@ 10095274     libeay32:obj_dat.obj
 0002:0000d284       ??_C@_0N@BGFMPLCM@friendlyName?$AA@ 10095284     libeay32:obj_dat.obj
 0002:0000d294       ??_C@_0L@BCMHPPAO@localKeyID?$AA@ 10095294     libeay32:obj_dat.obj
 0002:0000d2a0       ??_C@_0BA@EMOFOCJL@x509Certificate?$AA@ 100952a0     libeay32:obj_dat.obj
 0002:0000d2b0       ??_C@_0BA@BFAOBDKH@sdsiCertificate?$AA@ 100952b0     libeay32:obj_dat.obj
 0002:0000d2c0       ??_C@_07KAOEJCFK@x509Crl?$AA@ 100952c0     libeay32:obj_dat.obj
 0002:0000d2c8       ??_C@_05EPMADBBF@PBES2?$AA@ 100952c8     libeay32:obj_dat.obj
 0002:0000d2d0       ??_C@_06DEJMPFNK@PBMAC1?$AA@ 100952d0     libeay32:obj_dat.obj
 0002:0000d2d8       ??_C@_0N@KANOAIP@hmacWithSHA1?$AA@ 100952d8     libeay32:obj_dat.obj
 0002:0000d2e8       ??_C@_09MIPGHKGJ@id?9qt?9cps?$AA@ 100952e8     libeay32:obj_dat.obj
 0002:0000d2f4       ??_C@_0BF@HPKIKKPI@Policy?5Qualifier?5CPS?$AA@ 100952f4     libeay32:obj_dat.obj
 0002:0000d30c       ??_C@_0O@CJFHFAHE@id?9qt?9unotice?$AA@ 1009530c     libeay32:obj_dat.obj
 0002:0000d31c       ??_C@_0BN@KPMBKEE@Policy?5Qualifier?5User?5Notice?$AA@ 1009531c     libeay32:obj_dat.obj
 0002:0000d33c       ??_C@_0L@OPHBIFFL@RC2?964?9CBC?$AA@ 1009533c     libeay32:obj_dat.obj
 0002:0000d348       ??_C@_0L@CLELMECA@rc2?964?9cbc?$AA@ 10095348     libeay32:obj_dat.obj
 0002:0000d354       ??_C@_0L@LCBJGKJG@SMIME?9CAPS?$AA@ 10095354     libeay32:obj_dat.obj
 0002:0000d360       ??_C@_0BE@CEEFMCAI@S?1MIME?5Capabilities?$AA@ 10095360     libeay32:obj_dat.obj
 0002:0000d374       ??_C@_0P@OHJEMJLF@PBE?9MD2?9RC2?964?$AA@ 10095374     libeay32:obj_dat.obj
 0002:0000d384       ??_C@_0BF@FOKDMACM@pbeWithMD2AndRC2?9CBC?$AA@ 10095384     libeay32:obj_dat.obj
 0002:0000d39c       ??_C@_0P@IDPFKEHM@PBE?9MD5?9RC2?964?$AA@ 1009539c     libeay32:obj_dat.obj
 0002:0000d3ac       ??_C@_0BF@CKDLCJKD@pbeWithMD5AndRC2?9CBC?$AA@ 100953ac     libeay32:obj_dat.obj
 0002:0000d3c4       ??_C@_0N@GOPIPBOD@PBE?9SHA1?9DES?$AA@ 100953c4     libeay32:obj_dat.obj
 0002:0000d3d4       ??_C@_0BG@JLHBEJLP@pbeWithSHA1AndDES?9CBC?$AA@ 100953d4     libeay32:obj_dat.obj
 0002:0000d3ec       ??_C@_08HCCJAOPJ@msExtReq?$AA@ 100953ec     libeay32:obj_dat.obj
 0002:0000d3f8       ??_C@_0BM@MEJAMAEO@Microsoft?5Extension?5Request?$AA@ 100953f8     libeay32:obj_dat.obj
 0002:0000d414       ??_C@_06EJACAMDF@extReq?$AA@ 10095414     libeay32:obj_dat.obj
 0002:0000d41c       ??_C@_0BC@GLHEKHCC@Extension?5Request?$AA@ 1009541c     libeay32:obj_dat.obj
 0002:0000d430       ??_C@_04MEMAJGDJ@name?$AA@ 10095430     libeay32:obj_dat.obj
 0002:0000d438       ??_C@_0M@DNNLEIMI@dnQualifier?$AA@ 10095438     libeay32:obj_dat.obj
 0002:0000d444       ??_C@_05BDFHFBBC@id?9pe?$AA@ 10095444     libeay32:obj_dat.obj
 0002:0000d44c       ??_C@_05BHKIKJBE@id?9ad?$AA@ 1009544c     libeay32:obj_dat.obj
 0002:0000d454       ??_C@_0BE@PLCGCINM@authorityInfoAccess?$AA@ 10095454     libeay32:obj_dat.obj
 0002:0000d468       ??_C@_0BN@EILCOJAN@Authority?5Information?5Access?$AA@ 10095468     libeay32:obj_dat.obj
 0002:0000d488       ??_C@_04LOJOPNBE@OCSP?$AA@ 10095488     libeay32:obj_dat.obj
 0002:0000d490       ??_C@_09GFPECPIH@caIssuers?$AA@ 10095490     libeay32:obj_dat.obj
 0002:0000d49c       ??_C@_0L@CABCENFK@CA?5Issuers?$AA@ 1009549c     libeay32:obj_dat.obj
 0002:0000d4a8       ??_C@_0M@HBKJLKNM@OCSPSigning?$AA@ 100954a8     libeay32:obj_dat.obj
 0002:0000d4b4       ??_C@_0N@CPJNIPDD@OCSP?5Signing?$AA@ 100954b4     libeay32:obj_dat.obj
 0002:0000d4c4       ??_C@_03CBLMPEHH@ISO?$AA@  100954c4     libeay32:obj_dat.obj
 0002:0000d4c8       ??_C@_03CMEHDJAL@iso?$AA@  100954c8     libeay32:obj_dat.obj
 0002:0000d4cc       ??_C@_0M@CMICFDOA@member?9body?$AA@ 100954cc     libeay32:obj_dat.obj
 0002:0000d4d8       ??_C@_0BA@BGDAEHGF@ISO?5Member?5Body?$AA@ 100954d8     libeay32:obj_dat.obj
 0002:0000d4e8       ??_C@_06EKAADAMF@ISO?9US?$AA@ 100954e8     libeay32:obj_dat.obj
 0002:0000d4f0       ??_C@_0BD@NMCDOJHL@ISO?5US?5Member?5Body?$AA@ 100954f0     libeay32:obj_dat.obj
 0002:0000d504       ??_C@_05OCCOPOJN@X9?957?$AA@ 10095504     libeay32:obj_dat.obj
 0002:0000d50c       ??_C@_05PAJLFBHD@X9?457?$AA@ 1009550c     libeay32:obj_dat.obj
 0002:0000d514       ??_C@_04CGFPFLFA@X9cm?$AA@ 10095514     libeay32:obj_dat.obj
 0002:0000d51c       ??_C@_0L@DJCLIPOH@X9?457?5CM?5?$DP?$AA@ 1009551c     libeay32:obj_dat.obj
 0002:0000d528       ??_C@_05BCIEJMJH@pkcs1?$AA@ 10095528     libeay32:obj_dat.obj
 0002:0000d530       ??_C@_05HGOIFJJD@pkcs5?$AA@ 10095530     libeay32:obj_dat.obj
 0002:0000d538       ??_C@_05HHBEAKJJ@SMIME?$AA@ 10095538     libeay32:obj_dat.obj
 0002:0000d540       ??_C@_06DFGHEKNE@S?1MIME?$AA@ 10095540     libeay32:obj_dat.obj
 0002:0000d548       ??_C@_0N@GABIEKIN@id?9smime?9mod?$AA@ 10095548     libeay32:obj_dat.obj
 0002:0000d558       ??_C@_0M@EBLDBLEO@id?9smime?9ct?$AA@ 10095558     libeay32:obj_dat.obj
 0002:0000d564       ??_C@_0M@HFICCJDE@id?9smime?9aa?$AA@ 10095564     libeay32:obj_dat.obj
 0002:0000d570       ??_C@_0N@DKFBIKP@id?9smime?9alg?$AA@ 10095570     libeay32:obj_dat.obj
 0002:0000d580       ??_C@_0M@LHBAJBP@id?9smime?9cd?$AA@ 10095580     libeay32:obj_dat.obj
 0002:0000d58c       ??_C@_0N@PABBGIHI@id?9smime?9spq?$AA@ 1009558c     libeay32:obj_dat.obj
 0002:0000d59c       ??_C@_0N@CFBKAPGC@id?9smime?9cti?$AA@ 1009559c     libeay32:obj_dat.obj
 0002:0000d5ac       ??_C@_0BB@PJEIFOOP@id?9smime?9mod?9cms?$AA@ 100955ac     libeay32:obj_dat.obj
 0002:0000d5c0       ??_C@_0BB@MKJLIPEJ@id?9smime?9mod?9ess?$AA@ 100955c0     libeay32:obj_dat.obj
 0002:0000d5d4       ??_C@_0BB@LBBEMNBN@id?9smime?9mod?9oid?$AA@ 100955d4     libeay32:obj_dat.obj
 0002:0000d5e8       ??_C@_0BE@PEENABNJ@id?9smime?9mod?9msg?9v3?$AA@ 100955e8     libeay32:obj_dat.obj
 0002:0000d5fc       ??_C@_0BP@HIDGBPHA@id?9smime?9mod?9ets?9eSignature?988?$AA@ 100955fc     libeay32:obj_dat.obj
 0002:0000d61c       ??_C@_0BP@POGMGJII@id?9smime?9mod?9ets?9eSignature?997?$AA@ 1009561c     libeay32:obj_dat.obj
 0002:0000d63c       ??_C@_0BP@KEHEABPA@id?9smime?9mod?9ets?9eSigPolicy?988?$AA@ 1009563c     libeay32:obj_dat.obj
 0002:0000d65c       ??_C@_0BP@CCCOHHAI@id?9smime?9mod?9ets?9eSigPolicy?997?$AA@ 1009565c     libeay32:obj_dat.obj
 0002:0000d67c       ??_C@_0BE@GCHIHBHA@id?9smime?9ct?9receipt?$AA@ 1009567c     libeay32:obj_dat.obj
 0002:0000d690       ??_C@_0BF@KGEHGOF@id?9smime?9ct?9authData?$AA@ 10095690     libeay32:obj_dat.obj
 0002:0000d6a8       ??_C@_0BI@DBILCLFJ@id?9smime?9ct?9publishCert?$AA@ 100956a8     libeay32:obj_dat.obj
 0002:0000d6c0       ??_C@_0BE@KHNGFDDI@id?9smime?9ct?9TSTInfo?$AA@ 100956c0     libeay32:obj_dat.obj
 0002:0000d6d4       ??_C@_0BE@FKPPBHI@id?9smime?9ct?9TDTInfo?$AA@ 100956d4     libeay32:obj_dat.obj
 0002:0000d6e8       ??_C@_0BI@BGKPNMK@id?9smime?9ct?9contentInfo?$AA@ 100956e8     libeay32:obj_dat.obj
 0002:0000d700       ??_C@_0BM@MFKPCEGN@id?9smime?9ct?9DVCSRequestData?$AA@ 10095700     libeay32:obj_dat.obj
 0002:0000d71c       ??_C@_0BN@POKJLKJJ@id?9smime?9ct?9DVCSResponseData?$AA@ 1009571c     libeay32:obj_dat.obj
 0002:0000d73c       ??_C@_0BL@LMGNMPFD@id?9smime?9aa?9receiptRequest?$AA@ 1009573c     libeay32:obj_dat.obj
 0002:0000d758       ??_C@_0BK@DNJNJILO@id?9smime?9aa?9securityLabel?$AA@ 10095758     libeay32:obj_dat.obj
 0002:0000d774       ??_C@_0BM@OEKGBMLE@id?9smime?9aa?9mlExpandHistory?$AA@ 10095774     libeay32:obj_dat.obj
 0002:0000d790       ??_C@_0BI@EMGPJFHB@id?9smime?9aa?9contentHint?$AA@ 10095790     libeay32:obj_dat.obj
 0002:0000d7a8       ??_C@_0BJ@LJLDKMDH@id?9smime?9aa?9msgSigDigest?$AA@ 100957a8     libeay32:obj_dat.obj
 0002:0000d7c4       ??_C@_0BN@GCCNOJCG@id?9smime?9aa?9encapContentType?$AA@ 100957c4     libeay32:obj_dat.obj
 0002:0000d7e4       ??_C@_0BO@KMJGIAMK@id?9smime?9aa?9contentIdentifier?$AA@ 100957e4     libeay32:obj_dat.obj
 0002:0000d804       ??_C@_0BF@CFNHFPDB@id?9smime?9aa?9macValue?$AA@ 10095804     libeay32:obj_dat.obj
 0002:0000d81c       ??_C@_0BN@NFAAOKEA@id?9smime?9aa?9equivalentLabels?$AA@ 1009581c     libeay32:obj_dat.obj
 0002:0000d83c       ??_C@_0BN@LEFAEFL@id?9smime?9aa?9contentReference?$AA@ 1009583c     libeay32:obj_dat.obj
 0002:0000d85c       ??_C@_0BK@LAPEFMP@id?9smime?9aa?9encrypKeyPref?$AA@ 1009585c     libeay32:obj_dat.obj
 0002:0000d878       ??_C@_0BP@LHGJLGIB@id?9smime?9aa?9signingCertificate?$AA@ 10095878     libeay32:obj_dat.obj
 0002:0000d898       ??_C@_0BO@CEEOANBD@id?9smime?9aa?9smimeEncryptCerts?$AA@ 10095898     libeay32:obj_dat.obj
 0002:0000d8b8       ??_C@_0BL@DHJOIJNE@id?9smime?9aa?9timeStampToken?$AA@ 100958b8     libeay32:obj_dat.obj
 0002:0000d8d4       ??_C@_0BM@GKFMJCFL@id?9smime?9aa?9ets?9sigPolicyId?$AA@ 100958d4     libeay32:obj_dat.obj
 0002:0000d8f0       ??_C@_0BP@OLIFPEIM@id?9smime?9aa?9ets?9commitmentType?$AA@ 100958f0     libeay32:obj_dat.obj
 0002:0000d910       ??_C@_0BP@EODAELPO@id?9smime?9aa?9ets?9signerLocation?$AA@ 10095910     libeay32:obj_dat.obj
 0002:0000d930       ??_C@_0BL@KDJDAGDC@id?9smime?9aa?9ets?9signerAttr?$AA@ 10095930     libeay32:obj_dat.obj
 0002:0000d94c       ??_C@_0BN@JFIFOPBH@id?9smime?9aa?9ets?9otherSigCert?$AA@ 1009594c     libeay32:obj_dat.obj
 0002:0000d96c       ??_C@_0CB@GHKINGOH@id?9smime?9aa?9ets?9contentTimestamp@ 1009596c     libeay32:obj_dat.obj
 0002:0000d990       ??_C@_0CA@NKIOCHLG@id?9smime?9aa?9ets?9CertificateRefs?$AA@ 10095990     libeay32:obj_dat.obj
 0002:0000d9b0       ??_C@_0BP@BCHJHNFO@id?9smime?9aa?9ets?9RevocationRefs?$AA@ 100959b0     libeay32:obj_dat.obj
 0002:0000d9d0       ??_C@_0BL@IFKOLDIG@id?9smime?9aa?9ets?9certValues?$AA@ 100959d0     libeay32:obj_dat.obj
 0002:0000d9ec       ??_C@_0CB@GOCEFPFO@id?9smime?9aa?9ets?9revocationValues@ 100959ec     libeay32:obj_dat.obj
 0002:0000da10       ??_C@_0BN@HGLOGOFI@id?9smime?9aa?9ets?9escTimeStamp?$AA@ 10095a10     libeay32:obj_dat.obj
 0002:0000da30       ??_C@_0CB@CJNBPJE@id?9smime?9aa?9ets?9certCRLTimestamp@ 10095a30     libeay32:obj_dat.obj
 0002:0000da54       ??_C@_0CB@BEMKNJGO@id?9smime?9aa?9ets?9archiveTimeStamp@ 10095a54     libeay32:obj_dat.obj
 0002:0000da78       ??_C@_0BK@HDBIPLFI@id?9smime?9aa?9signatureType?$AA@ 10095a78     libeay32:obj_dat.obj
 0002:0000da94       ??_C@_0BF@KEMAMBKF@id?9smime?9aa?9dvcs?9dvc?$AA@ 10095a94     libeay32:obj_dat.obj
 0002:0000daac       ??_C@_0BK@JNJOCCCB@id?9smime?9alg?9ESDHwith3DES?$AA@ 10095aac     libeay32:obj_dat.obj
 0002:0000dac8       ??_C@_0BJ@FIJMOHBJ@id?9smime?9alg?9ESDHwithRC2?$AA@ 10095ac8     libeay32:obj_dat.obj
 0002:0000dae4       ??_C@_0BG@HHELPNAK@id?9smime?9alg?93DESwrap?$AA@ 10095ae4     libeay32:obj_dat.obj
 0002:0000dafc       ??_C@_0BF@JNCPAJCA@id?9smime?9alg?9RC2wrap?$AA@ 10095afc     libeay32:obj_dat.obj
 0002:0000db14       ??_C@_0BC@COOODKPD@id?9smime?9alg?9ESDH?$AA@ 10095b14     libeay32:obj_dat.obj
 0002:0000db28       ??_C@_0BJ@FOFHEIDB@id?9smime?9alg?9CMS3DESwrap?$AA@ 10095b28     libeay32:obj_dat.obj
 0002:0000db44       ??_C@_0BI@FIFDKKFJ@id?9smime?9alg?9CMSRC2wrap?$AA@ 10095b44     libeay32:obj_dat.obj
 0002:0000db5c       ??_C@_0BB@BMOBKAGE@id?9smime?9cd?9ldap?$AA@ 10095b5c     libeay32:obj_dat.obj
 0002:0000db70       ??_C@_0BJ@IMNKDGEG@id?9smime?9spq?9ets?9sqt?9uri?$AA@ 10095b70     libeay32:obj_dat.obj
 0002:0000db8c       ??_C@_0BN@GPAAHNOH@id?9smime?9spq?9ets?9sqt?9unotice?$AA@ 10095b8c     libeay32:obj_dat.obj
 0002:0000dbac       ??_C@_0BP@BCHFEGHC@id?9smime?9cti?9ets?9proofOfOrigin?$AA@ 10095bac     libeay32:obj_dat.obj
 0002:0000dbcc       ??_C@_0CA@HNGOKBGC@id?9smime?9cti?9ets?9proofOfReceipt?$AA@ 10095bcc     libeay32:obj_dat.obj
 0002:0000dbec       ??_C@_0CB@ICJGPMEP@id?9smime?9cti?9ets?9proofOfDelivery@ 10095bec     libeay32:obj_dat.obj
 0002:0000dc10       ??_C@_0BP@ODCAFFCM@id?9smime?9cti?9ets?9proofOfSender?$AA@ 10095c10     libeay32:obj_dat.obj
 0002:0000dc30       ??_C@_0CB@DDLMHEBC@id?9smime?9cti?9ets?9proofOfApproval@ 10095c30     libeay32:obj_dat.obj
 0002:0000dc54       ??_C@_0CB@MICJDGGH@id?9smime?9cti?9ets?9proofOfCreation@ 10095c54     libeay32:obj_dat.obj
 0002:0000dc78       ??_C@_03HLHMHGOI@MD4?$AA@  10095c78     libeay32:obj_dat.obj
 0002:0000dc7c       ??_C@_03ODADJPDG@md4?$AA@  10095c7c     libeay32:obj_dat.obj
 0002:0000dc80       ??_C@_0M@FNAFBNKE@id?9pkix?9mod?$AA@ 10095c80     libeay32:obj_dat.obj
 0002:0000dc8c       ??_C@_05EBEMBIDF@id?9qt?$AA@ 10095c8c     libeay32:obj_dat.obj
 0002:0000dc94       ??_C@_05FDHJOKPN@id?9it?$AA@ 10095c94     libeay32:obj_dat.obj
 0002:0000dc9c       ??_C@_07OMHOPMIM@id?9pkip?$AA@ 10095c9c     libeay32:obj_dat.obj
 0002:0000dca4       ??_C@_06DOGCNAAM@id?9alg?$AA@ 10095ca4     libeay32:obj_dat.obj
 0002:0000dcac       ??_C@_06PBMFLHLE@id?9cmc?$AA@ 10095cac     libeay32:obj_dat.obj
 0002:0000dcb4       ??_C@_05OHNJGMJE@id?9on?$AA@ 10095cb4     libeay32:obj_dat.obj
 0002:0000dcbc       ??_C@_06IOIOBGMI@id?9pda?$AA@ 10095cbc     libeay32:obj_dat.obj
 0002:0000dcc4       ??_C@_06GDGEDALH@id?9aca?$AA@ 10095cc4     libeay32:obj_dat.obj
 0002:0000dccc       ??_C@_06ELIJBHPL@id?9qcs?$AA@ 10095ccc     libeay32:obj_dat.obj
 0002:0000dcd4       ??_C@_06PONIBOCI@id?9cct?$AA@ 10095cd4     libeay32:obj_dat.obj
 0002:0000dcdc       ??_C@_0BF@HGDNDMHO@id?9pkix1?9explicit?988?$AA@ 10095cdc     libeay32:obj_dat.obj
 0002:0000dcf4       ??_C@_0BF@KMJGBJHG@id?9pkix1?9implicit?988?$AA@ 10095cf4     libeay32:obj_dat.obj
 0002:0000dd0c       ??_C@_0BF@JEALIPIC@id?9pkix1?9explicit?993?$AA@ 10095d0c     libeay32:obj_dat.obj
 0002:0000dd24       ??_C@_0BF@EOKAKKIK@id?9pkix1?9implicit?993?$AA@ 10095d24     libeay32:obj_dat.obj
 0002:0000dd3c       ??_C@_0M@GHFPFJPB@id?9mod?9crmf?$AA@ 10095d3c     libeay32:obj_dat.obj
 0002:0000dd48       ??_C@_0L@KPDLDADF@id?9mod?9cmc?$AA@ 10095d48     libeay32:obj_dat.obj
 0002:0000dd54       ??_C@_0BG@DCGANCKA@id?9mod?9kea?9profile?988?$AA@ 10095d54     libeay32:obj_dat.obj
 0002:0000dd6c       ??_C@_0BG@NAFGGBFM@id?9mod?9kea?9profile?993?$AA@ 10095d6c     libeay32:obj_dat.obj
 0002:0000dd84       ??_C@_0L@MONEHBKH@id?9mod?9cmp?$AA@ 10095d84     libeay32:obj_dat.obj
 0002:0000dd90       ??_C@_0BJ@GENFLKHG@id?9mod?9qualified?9cert?988?$AA@ 10095d90     libeay32:obj_dat.obj
 0002:0000ddac       ??_C@_0BJ@IGODAJIK@id?9mod?9qualified?9cert?993?$AA@ 10095dac     libeay32:obj_dat.obj
 0002:0000ddc8       ??_C@_0BG@EPPFBJNH@id?9mod?9attribute?9cert?$AA@ 10095dc8     libeay32:obj_dat.obj
 0002:0000dde0       ??_C@_0BK@GAJOODEK@id?9mod?9timestamp?9protocol?$AA@ 10095de0     libeay32:obj_dat.obj
 0002:0000ddfc       ??_C@_0M@EACKLPKH@id?9mod?9ocsp?$AA@ 10095dfc     libeay32:obj_dat.obj
 0002:0000de08       ??_C@_0M@GHDGNJKI@id?9mod?9dvcs?$AA@ 10095e08     libeay32:obj_dat.obj
 0002:0000de14       ??_C@_0P@MMOAAMFD@id?9mod?9cmp2000?$AA@ 10095e14     libeay32:obj_dat.obj
 0002:0000de24       ??_C@_0O@MPIIPAHM@biometricInfo?$AA@ 10095e24     libeay32:obj_dat.obj
 0002:0000de34       ??_C@_0P@KFKDECPH@Biometric?5Info?$AA@ 10095e34     libeay32:obj_dat.obj
 0002:0000de44       ??_C@_0N@FPMNLLM@qcStatements?$AA@ 10095e44     libeay32:obj_dat.obj
 0002:0000de54       ??_C@_0P@CIOHPJGC@ac?9auditEntity?$AA@ 10095e54     libeay32:obj_dat.obj
 0002:0000de64       ??_C@_0N@FPEEOJCI@ac?9targeting?$AA@ 10095e64     libeay32:obj_dat.obj
 0002:0000de74       ??_C@_0L@DLGBNBJE@aaControls?$AA@ 10095e74     libeay32:obj_dat.obj
 0002:0000de80       ??_C@_0BB@NNCKCHBC@sbgp?9ipAddrBlock?$AA@ 10095e80     libeay32:obj_dat.obj
 0002:0000de94       ??_C@_0BG@OJEHJDKA@sbgp?9autonomousSysNum?$AA@ 10095e94     libeay32:obj_dat.obj
 0002:0000deac       ??_C@_0BG@JCJJBMAI@sbgp?9routerIdentifier?$AA@ 10095eac     libeay32:obj_dat.obj
 0002:0000dec4       ??_C@_0L@HLNNPJEH@textNotice?$AA@ 10095ec4     libeay32:obj_dat.obj
 0002:0000ded0       ??_C@_0P@MKBFMAPP@ipsecEndSystem?$AA@ 10095ed0     libeay32:obj_dat.obj
 0002:0000dee0       ??_C@_0BB@JEJDAICO@IPSec?5End?5System?$AA@ 10095ee0     libeay32:obj_dat.obj
 0002:0000def4       ??_C@_0M@GMMHFFHI@ipsecTunnel?$AA@ 10095ef4     libeay32:obj_dat.obj
 0002:0000df00       ??_C@_0N@EKDIOGLO@IPSec?5Tunnel?$AA@ 10095f00     libeay32:obj_dat.obj
 0002:0000df10       ??_C@_09GOHJKOFF@ipsecUser?$AA@ 10095f10     libeay32:obj_dat.obj
 0002:0000df1c       ??_C@_0L@DECDDCGF@IPSec?5User?$AA@ 10095f1c     libeay32:obj_dat.obj
 0002:0000df28       ??_C@_04JJICJLBL@DVCS?$AA@ 10095f28     libeay32:obj_dat.obj
 0002:0000df30       ??_C@_04FFLIHJGD@dvcs?$AA@ 10095f30     libeay32:obj_dat.obj
 0002:0000df38       ??_C@_0BE@GJACIPND@id?9it?9caProtEncCert?$AA@ 10095f38     libeay32:obj_dat.obj
 0002:0000df4c       ??_C@_0BH@POCENFBA@id?9it?9signKeyPairTypes?$AA@ 10095f4c     libeay32:obj_dat.obj
 0002:0000df64       ??_C@_0BG@FKIDIODL@id?9it?9encKeyPairTypes?$AA@ 10095f64     libeay32:obj_dat.obj
 0002:0000df7c       ??_C@_0BH@JFBOPDCH@id?9it?9preferredSymmAlg?$AA@ 10095f7c     libeay32:obj_dat.obj
 0002:0000df94       ??_C@_0BG@OAKEHPLC@id?9it?9caKeyUpdateInfo?$AA@ 10095f94     libeay32:obj_dat.obj
 0002:0000dfac       ??_C@_0BB@NHKBGJFG@id?9it?9currentCRL?$AA@ 10095fac     libeay32:obj_dat.obj
 0002:0000dfc0       ??_C@_0BG@BPLKDJPD@id?9it?9unsupportedOIDs?$AA@ 10095fc0     libeay32:obj_dat.obj
 0002:0000dfd8       ??_C@_0BK@MKGCMKGI@id?9it?9subscriptionRequest?$AA@ 10095fd8     libeay32:obj_dat.obj
 0002:0000dff4       ??_C@_0BL@HBPHBFLO@id?9it?9subscriptionResponse?$AA@ 10095ff4     libeay32:obj_dat.obj
 0002:0000e010       ??_C@_0BG@LGJDGAPG@id?9it?9keyPairParamReq?$AA@ 10096010     libeay32:obj_dat.obj
 0002:0000e028       ??_C@_0BG@KPIIFBLH@id?9it?9keyPairParamRep?$AA@ 10096028     libeay32:obj_dat.obj
 0002:0000e040       ??_C@_0BE@FOOOCPMH@id?9it?9revPassphrase?$AA@ 10096040     libeay32:obj_dat.obj
 0002:0000e054       ??_C@_0BG@MKDHCJKF@id?9it?9implicitConfirm?$AA@ 10096054     libeay32:obj_dat.obj
 0002:0000e06c       ??_C@_0BG@KCBHNMIK@id?9it?9confirmWaitTime?$AA@ 1009606c     libeay32:obj_dat.obj
 0002:0000e084       ??_C@_0BF@CLCJJGFI@id?9it?9origPKIMessage?$AA@ 10096084     libeay32:obj_dat.obj
 0002:0000e09c       ??_C@_0L@FDGKGANK@id?9regCtrl?$AA@ 1009609c     libeay32:obj_dat.obj
 0002:0000e0a8       ??_C@_0L@BGHMJHOP@id?9regInfo?$AA@ 100960a8     libeay32:obj_dat.obj
 0002:0000e0b4       ??_C@_0BE@JDMKCIPE@id?9regCtrl?9regToken?$AA@ 100960b4     libeay32:obj_dat.obj
 0002:0000e0c8       ??_C@_0BJ@FBKKLLKP@id?9regCtrl?9authenticator?$AA@ 100960c8     libeay32:obj_dat.obj
 0002:0000e0e4       ??_C@_0BO@GJKPPLPL@id?9regCtrl?9pkiPublicationInfo?$AA@ 100960e4     libeay32:obj_dat.obj
 0002:0000e104       ??_C@_0BN@ONKHMAOP@id?9regCtrl?9pkiArchiveOptions?$AA@ 10096104     libeay32:obj_dat.obj
 0002:0000e124       ??_C@_0BF@GFJPNJIG@id?9regCtrl?9oldCertID?$AA@ 10096124     libeay32:obj_dat.obj
 0002:0000e13c       ??_C@_0BL@GHBPLPHM@id?9regCtrl?9protocolEncrKey?$AA@ 1009613c     libeay32:obj_dat.obj
 0002:0000e158       ??_C@_0BF@FHFGHAHE@id?9regInfo?9utf8Pairs?$AA@ 10096158     libeay32:obj_dat.obj
 0002:0000e170       ??_C@_0BD@EEAPBNJJ@id?9regInfo?9certReq?$AA@ 10096170     libeay32:obj_dat.obj
 0002:0000e184       ??_C@_0N@KIJONBNA@id?9alg?9des40?$AA@ 10096184     libeay32:obj_dat.obj
 0002:0000e194       ??_C@_0BD@LAAJOBHI@id?9alg?9noSignature?$AA@ 10096194     libeay32:obj_dat.obj
 0002:0000e1a8       ??_C@_0BI@KIODNBCM@id?9alg?9dh?9sig?9hmac?9sha1?$AA@ 100961a8     libeay32:obj_dat.obj
 0002:0000e1c0       ??_C@_0O@OBGPPBGA@id?9alg?9dh?9pop?$AA@ 100961c0     libeay32:obj_dat.obj
 0002:0000e1d0       ??_C@_0BC@CMNEPEAI@id?9cmc?9statusInfo?$AA@ 100961d0     libeay32:obj_dat.obj
 0002:0000e1e4       ??_C@_0BG@PPIINOMK@id?9cmc?9identification?$AA@ 100961e4     libeay32:obj_dat.obj
 0002:0000e1fc       ??_C@_0BF@IDAHNDCK@id?9cmc?9identityProof?$AA@ 100961fc     libeay32:obj_dat.obj
 0002:0000e214       ??_C@_0BC@LLJKCHEN@id?9cmc?9dataReturn?$AA@ 10096214     libeay32:obj_dat.obj
 0002:0000e228       ??_C@_0BF@GEJAHBF@id?9cmc?9transactionId?$AA@ 10096228     libeay32:obj_dat.obj
 0002:0000e240       ??_C@_0BD@BCMJDDMP@id?9cmc?9senderNonce?$AA@ 10096240     libeay32:obj_dat.obj
 0002:0000e254       ??_C@_0BG@JLHHNNCH@id?9cmc?9recipientNonce?$AA@ 10096254     libeay32:obj_dat.obj
 0002:0000e26c       ??_C@_0BF@HLOCACJF@id?9cmc?9addExtensions?$AA@ 1009626c     libeay32:obj_dat.obj
 0002:0000e284       ??_C@_0BE@NILMJFN@id?9cmc?9encryptedPOP?$AA@ 10096284     libeay32:obj_dat.obj
 0002:0000e298       ??_C@_0BE@KBIPLENG@id?9cmc?9decryptedPOP?$AA@ 10096298     libeay32:obj_dat.obj
 0002:0000e2ac       ??_C@_0BF@BMODAINP@id?9cmc?9lraPOPWitness?$AA@ 100962ac     libeay32:obj_dat.obj
 0002:0000e2c4       ??_C@_0P@GMDPJKDO@id?9cmc?9getCert?$AA@ 100962c4     libeay32:obj_dat.obj
 0002:0000e2d4       ??_C@_0O@OIGIOBJ@id?9cmc?9getCRL?$AA@ 100962d4     libeay32:obj_dat.obj
 0002:0000e2e4       ??_C@_0BF@BOEAJJNI@id?9cmc?9revokeRequest?$AA@ 100962e4     libeay32:obj_dat.obj
 0002:0000e2fc       ??_C@_0P@PCIOIKNC@id?9cmc?9regInfo?$AA@ 100962fc     libeay32:obj_dat.obj
 0002:0000e30c       ??_C@_0BE@CKMFMMDP@id?9cmc?9responseInfo?$AA@ 1009630c     libeay32:obj_dat.obj
 0002:0000e320       ??_C@_0BE@JKLJLIIH@id?9cmc?9queryPending?$AA@ 10096320     libeay32:obj_dat.obj
 0002:0000e334       ??_C@_0BF@GGLCNKGO@id?9cmc?9popLinkRandom?$AA@ 10096334     libeay32:obj_dat.obj
 0002:0000e34c       ??_C@_0BG@EEIJMDPB@id?9cmc?9popLinkWitness?$AA@ 1009634c     libeay32:obj_dat.obj
 0002:0000e364       ??_C@_0BN@MIGHDJON@id?9cmc?9confirmCertAcceptance?$AA@ 10096364     libeay32:obj_dat.obj
 0002:0000e384       ??_C@_0BD@IGLADCFL@id?9on?9personalData?$AA@ 10096384     libeay32:obj_dat.obj
 0002:0000e398       ??_C@_0BD@BADJMIPF@id?9pda?9dateOfBirth?$AA@ 10096398     libeay32:obj_dat.obj
 0002:0000e3ac       ??_C@_0BE@NIFFDBPJ@id?9pda?9placeOfBirth?$AA@ 100963ac     libeay32:obj_dat.obj
 0002:0000e3c0       ??_C@_0O@JMCFNPFD@id?9pda?9gender?$AA@ 100963c0     libeay32:obj_dat.obj
 0002:0000e3d0       ??_C@_0BM@KMGEGNAB@id?9pda?9countryOfCitizenship?$AA@ 100963d0     libeay32:obj_dat.obj
 0002:0000e3ec       ??_C@_0BK@BJMNIGCJ@id?9pda?9countryOfResidence?$AA@ 100963ec     libeay32:obj_dat.obj
 0002:0000e408       ??_C@_0BK@OFEDAOCA@id?9aca?9authenticationInfo?$AA@ 10096408     libeay32:obj_dat.obj
 0002:0000e424       ??_C@_0BG@GFJCFEAI@id?9aca?9accessIdentity?$AA@ 10096424     libeay32:obj_dat.obj
 0002:0000e43c       ??_C@_0BI@IDHFJBKH@id?9aca?9chargingIdentity?$AA@ 1009643c     libeay32:obj_dat.obj
 0002:0000e454       ??_C@_0N@HOPCGOGP@id?9aca?9group?$AA@ 10096454     libeay32:obj_dat.obj
 0002:0000e464       ??_C@_0M@FBOAJIIJ@id?9aca?9role?$AA@ 10096464     libeay32:obj_dat.obj
 0002:0000e470       ??_C@_0BH@DJONLBHI@id?9qcs?9pkixQCSyntax?9v1?$AA@ 10096470     libeay32:obj_dat.obj
 0002:0000e488       ??_C@_0L@CDHPLMPE@id?9cct?9crs?$AA@ 10096488     libeay32:obj_dat.obj
 0002:0000e494       ??_C@_0P@FNCPPGJO@id?9cct?9PKIData?$AA@ 10096494     libeay32:obj_dat.obj
 0002:0000e4a4       ??_C@_0BD@DDALHPCH@id?9cct?9PKIResponse?$AA@ 100964a4     libeay32:obj_dat.obj
 0002:0000e4b8       ??_C@_0BA@PBBONLHE@ad_timestamping?$AA@ 100964b8     libeay32:obj_dat.obj
 0002:0000e4c8       ??_C@_0BB@NMPPBOGK@AD?5Time?5Stamping?$AA@ 100964c8     libeay32:obj_dat.obj
 0002:0000e4dc       ??_C@_07JCCJJKFE@AD_DVCS?$AA@ 100964dc     libeay32:obj_dat.obj
 0002:0000e4e4       ??_C@_07JCKMJMPC@ad?5dvcs?$AA@ 100964e4     libeay32:obj_dat.obj
 0002:0000e4ec       ??_C@_0BC@KFAFMFFF@basicOCSPResponse?$AA@ 100964ec     libeay32:obj_dat.obj
 0002:0000e500       ??_C@_0BE@ONEEPEOL@Basic?5OCSP?5Response?$AA@ 10096500     libeay32:obj_dat.obj
 0002:0000e514       ??_C@_05OJOPLPHH@Nonce?$AA@ 10096514     libeay32:obj_dat.obj
 0002:0000e51c       ??_C@_0L@NCNDEJFL@OCSP?5Nonce?$AA@ 1009651c     libeay32:obj_dat.obj
 0002:0000e528       ??_C@_05NOENOBME@CrlID?$AA@ 10096528     libeay32:obj_dat.obj
 0002:0000e530       ??_C@_0M@LCLKJALE@OCSP?5CRL?5ID?$AA@ 10096530     libeay32:obj_dat.obj
 0002:0000e53c       ??_C@_0BE@FBPDIHIK@acceptableResponses?$AA@ 1009653c     libeay32:obj_dat.obj
 0002:0000e550       ??_C@_0BK@JKKLNLEI@Acceptable?5OCSP?5Responses?$AA@ 10096550     libeay32:obj_dat.obj
 0002:0000e56c       ??_C@_07MCKMCKHJ@noCheck?$AA@ 1009656c     libeay32:obj_dat.obj
 0002:0000e574       ??_C@_0O@HFOALJCG@OCSP?5No?5Check?$AA@ 10096574     libeay32:obj_dat.obj
 0002:0000e584       ??_C@_0O@FIEDPKGI@archiveCutoff?$AA@ 10096584     libeay32:obj_dat.obj
 0002:0000e594       ??_C@_0BE@JAFPABJB@OCSP?5Archive?5Cutoff?$AA@ 10096594     libeay32:obj_dat.obj
 0002:0000e5a8       ??_C@_0P@LCDAPLHC@serviceLocator?$AA@ 100965a8     libeay32:obj_dat.obj
 0002:0000e5b8       ??_C@_0BF@CEIKAD@OCSP?5Service?5Locator?$AA@ 100965b8     libeay32:obj_dat.obj
 0002:0000e5d0       ??_C@_0P@EGENIBNC@extendedStatus?$AA@ 100965d0     libeay32:obj_dat.obj
 0002:0000e5e0       ??_C@_0BF@MPEDLKDP@Extended?5OCSP?5Status?$AA@ 100965e0     libeay32:obj_dat.obj
 0002:0000e5f8       ??_C@_05HDPIMK@valid?$AA@  100965f8     libeay32:obj_dat.obj
 0002:0000e600       ??_C@_04LNEJFJGI@path?$AA@ 10096600     libeay32:obj_dat.obj
 0002:0000e608       ??_C@_09LNEPAILM@trustRoot?$AA@ 10096608     libeay32:obj_dat.obj
 0002:0000e614       ??_C@_0L@INBPOG@Trust?5Root?$AA@ 10096614     libeay32:obj_dat.obj
 0002:0000e620       ??_C@_09JPNFBOJG@algorithm?$AA@ 10096620     libeay32:obj_dat.obj
 0002:0000e62c       ??_C@_0N@JHANBHGC@rsaSignature?$AA@ 1009662c     libeay32:obj_dat.obj
 0002:0000e63c       ??_C@_0P@NMIAKCBG@X500algorithms?$AA@ 1009663c     libeay32:obj_dat.obj
 0002:0000e64c       ??_C@_0CA@FIOIBJEO@directory?5services?5?9?5algorithms?$AA@ 1009664c     libeay32:obj_dat.obj
 0002:0000e66c       ??_C@_03MNMMELJE@ORG?$AA@  1009666c     libeay32:obj_dat.obj
 0002:0000e670       ??_C@_03MADHIGOI@org?$AA@  10096670     libeay32:obj_dat.obj
 0002:0000e674       ??_C@_03CFBOKPHF@DOD?$AA@  10096674     libeay32:obj_dat.obj
 0002:0000e678       ??_C@_03CIOFGCAJ@dod?$AA@  10096678     libeay32:obj_dat.obj
 0002:0000e67c       ??_C@_04NMPANDAM@IANA?$AA@ 1009667c     libeay32:obj_dat.obj
 0002:0000e684       ??_C@_04BAMKDBHE@iana?$AA@ 10096684     libeay32:obj_dat.obj
 0002:0000e68c       ??_C@_09ELLNFDPM@directory?$AA@ 1009668c     libeay32:obj_dat.obj
 0002:0000e698       ??_C@_09EOAFACM@Directory?$AA@ 10096698     libeay32:obj_dat.obj
 0002:0000e6a4       ??_C@_04PFNCJACF@mgmt?$AA@ 100966a4     libeay32:obj_dat.obj
 0002:0000e6ac       ??_C@_0L@ENAJINDB@Management?$AA@ 100966ac     libeay32:obj_dat.obj
 0002:0000e6b8       ??_C@_0N@OJFGCCKJ@experimental?$AA@ 100966b8     libeay32:obj_dat.obj
 0002:0000e6c8       ??_C@_0N@FKCIGJFM@Experimental?$AA@ 100966c8     libeay32:obj_dat.obj
 0002:0000e6d8       ??_C@_07NMPLPEPB@private?$AA@ 100966d8     libeay32:obj_dat.obj
 0002:0000e6e0       ??_C@_07CFINJGKH@Private?$AA@ 100966e0     libeay32:obj_dat.obj
 0002:0000e6e8       ??_C@_08MBFLHJIB@security?$AA@ 100966e8     libeay32:obj_dat.obj
 0002:0000e6f4       ??_C@_08EDKKPLCC@Security?$AA@ 100966f4     libeay32:obj_dat.obj
 0002:0000e700       ??_C@_06DKHMNHOO@snmpv2?$AA@ 10096700     libeay32:obj_dat.obj
 0002:0000e708       ??_C@_06JDJOGLHO@SNMPv2?$AA@ 10096708     libeay32:obj_dat.obj
 0002:0000e710       ??_C@_04JEGKNAHI@Mail?$AA@ 10096710     libeay32:obj_dat.obj
 0002:0000e718       ??_C@_0M@DMHOKNAD@enterprises?$AA@ 10096718     libeay32:obj_dat.obj
 0002:0000e724       ??_C@_0M@CEEPHGPL@Enterprises?$AA@ 10096724     libeay32:obj_dat.obj
 0002:0000e730       ??_C@_08KAGHKPKK@dcobject?$AA@ 10096730     libeay32:obj_dat.obj
 0002:0000e73c       ??_C@_08GPNKJGDG@dcObject?$AA@ 1009673c     libeay32:obj_dat.obj
 0002:0000e748       ??_C@_02KMHJBPDH@DC?$AA@   10096748     libeay32:obj_dat.obj
 0002:0000e74c       ??_C@_0BA@DMAKFKAH@domainComponent?$AA@ 1009674c     libeay32:obj_dat.obj
 0002:0000e75c       ??_C@_06LKIIGAOE@domain?$AA@ 1009675c     libeay32:obj_dat.obj
 0002:0000e764       ??_C@_06HFDFFJHI@Domain?$AA@ 10096764     libeay32:obj_dat.obj
 0002:0000e76c       ??_C@_04HIBGFPH@NULL?$AA@  1009676c     libeay32:obj_dat.obj
 0002:0000e774       ??_C@_0BJ@BDDNHDDA@selected?9attribute?9types?$AA@ 10096774     libeay32:obj_dat.obj
 0002:0000e790       ??_C@_0BJ@MAOJIBHF@Selected?5Attribute?5Types?$AA@ 10096790     libeay32:obj_dat.obj
 0002:0000e7ac       ??_C@_09ECGCCLFI@clearance?$AA@ 100967ac     libeay32:obj_dat.obj
 0002:0000e7b8       ??_C@_07MHHBEDHA@RSA?9MD4?$AA@ 100967b8     libeay32:obj_dat.obj
 0002:0000e7c0       ??_C@_0BF@JDOFKNPK@md4WithRSAEncryption?$AA@ 100967c0     libeay32:obj_dat.obj
 0002:0000e7d8       ??_C@_0M@BKAIKGEL@ac?9proxying?$AA@ 100967d8     libeay32:obj_dat.obj
 0002:0000e7e4       ??_C@_0BC@IEIBIKBA@subjectInfoAccess?$AA@ 100967e4     libeay32:obj_dat.obj
 0002:0000e7f8       ??_C@_0BL@OMFIOBLF@Subject?5Information?5Access?$AA@ 100967f8     libeay32:obj_dat.obj
 0002:0000e814       ??_C@_0BA@PEFFHNFH@id?9aca?9encAttrs?$AA@ 10096814     libeay32:obj_dat.obj
 0002:0000e824       ??_C@_04IAMNPBLO@role?$AA@ 10096824     libeay32:obj_dat.obj
 0002:0000e82c       ??_C@_0BC@IJLMCBHD@policyConstraints?$AA@ 1009682c     libeay32:obj_dat.obj
 0002:0000e840       ??_C@_0BK@DNMBLGM@X509v3?5Policy?5Constraints?$AA@ 10096840     libeay32:obj_dat.obj
 0002:0000e85c       ??_C@_0BC@JINDJNPM@targetInformation?$AA@ 1009685c     libeay32:obj_dat.obj
 0002:0000e870       ??_C@_0BE@IECCFFCH@X509v3?5AC?5Targeting?$AA@ 10096870     libeay32:obj_dat.obj
 0002:0000e884       ??_C@_0L@ECGDAGCK@noRevAvail?$AA@ 10096884     libeay32:obj_dat.obj
 0002:0000e890       ??_C@_0BP@DEKFNCEH@X509v3?5No?5Revocation?5Available?$AA@ 10096890     libeay32:obj_dat.obj
 0002:0000e8b0       ??_C@_0L@LBMOMFCJ@ansi?9X9?962?$AA@ 100968b0     libeay32:obj_dat.obj
 0002:0000e8bc       ??_C@_0L@HAOKGHPF@ANSI?5X9?462?$AA@ 100968bc     libeay32:obj_dat.obj
 0002:0000e8c8       ??_C@_0M@LGLKIODB@prime?9field?$AA@ 100968c8     libeay32:obj_dat.obj
 0002:0000e8d4       ??_C@_0BJ@HECCMKCN@characteristic?9two?9field?$AA@ 100968d4     libeay32:obj_dat.obj
 0002:0000e8f0       ??_C@_0P@NEOBKIMO@id?9ecPublicKey?$AA@ 100968f0     libeay32:obj_dat.obj
 0002:0000e900       ??_C@_0L@FFFCIFBH@prime192v1?$AA@ 10096900     libeay32:obj_dat.obj
 0002:0000e90c       ??_C@_0L@HOHPNGNE@prime192v2?$AA@ 1009690c     libeay32:obj_dat.obj
 0002:0000e918       ??_C@_0L@GHGEOHJF@prime192v3?$AA@ 10096918     libeay32:obj_dat.obj
 0002:0000e924       ??_C@_0L@EOHHGIBJ@prime239v1?$AA@ 10096924     libeay32:obj_dat.obj
 0002:0000e930       ??_C@_0L@GFFKDLNK@prime239v2?$AA@ 10096930     libeay32:obj_dat.obj
 0002:0000e93c       ??_C@_0L@HMEBAKJL@prime239v3?$AA@ 1009693c     libeay32:obj_dat.obj
 0002:0000e948       ??_C@_0L@JJFEINOP@prime256v1?$AA@ 10096948     libeay32:obj_dat.obj
 0002:0000e954       ??_C@_0BA@DGJNDOPM@ecdsa?9with?9SHA1?$AA@ 10096954     libeay32:obj_dat.obj
 0002:0000e964       ??_C@_07BPKAKPJK@CSPName?$AA@ 10096964     libeay32:obj_dat.obj
 0002:0000e96c       ??_C@_0BD@HDEEGCLB@Microsoft?5CSP?5Name?$AA@ 1009696c     libeay32:obj_dat.obj
 0002:0000e980       ??_C@_0M@BCNEBAOB@AES?9128?9ECB?$AA@ 10096980     libeay32:obj_dat.obj
 0002:0000e98c       ??_C@_0M@MONPIKGC@aes?9128?9ecb?$AA@ 1009698c     libeay32:obj_dat.obj
 0002:0000e998       ??_C@_0M@CPGGBEEL@AES?9128?9CBC?$AA@ 10096998     libeay32:obj_dat.obj
 0002:0000e9a4       ??_C@_0M@PDGNIOMI@aes?9128?9cbc?$AA@ 100969a4     libeay32:obj_dat.obj
 0002:0000e9b0       ??_C@_0M@HLKCDCGO@AES?9128?9OFB?$AA@ 100969b0     libeay32:obj_dat.obj
 0002:0000e9bc       ??_C@_0M@KHKJKION@aes?9128?9ofb?$AA@ 100969bc     libeay32:obj_dat.obj
 0002:0000e9c8       ??_C@_0M@DBHEINNG@AES?9128?9CFB?$AA@ 100969c8     libeay32:obj_dat.obj
 0002:0000e9d4       ??_C@_0M@ONHPBHFF@aes?9128?9cfb?$AA@ 100969d4     libeay32:obj_dat.obj
 0002:0000e9e0       ??_C@_0M@LBEIGHHN@AES?9192?9ECB?$AA@ 100969e0     libeay32:obj_dat.obj
 0002:0000e9ec       ??_C@_0M@GNEDPNPO@aes?9192?9ecb?$AA@ 100969ec     libeay32:obj_dat.obj
 0002:0000e9f8       ??_C@_0M@IMPKGDNH@AES?9192?9CBC?$AA@ 100969f8     libeay32:obj_dat.obj
 0002:0000ea04       ??_C@_0M@FAPBPJFE@aes?9192?9cbc?$AA@ 10096a04     libeay32:obj_dat.obj
 0002:0000ea10       ??_C@_0M@NIDOEFPC@AES?9192?9OFB?$AA@ 10096a10     libeay32:obj_dat.obj
 0002:0000ea1c       ??_C@_0M@EDFNPHB@aes?9192?9ofb?$AA@ 10096a1c     libeay32:obj_dat.obj
 0002:0000ea28       ??_C@_0M@JCOIPKEK@AES?9192?9CFB?$AA@ 10096a28     libeay32:obj_dat.obj
 0002:0000ea34       ??_C@_0M@EOODGAMJ@aes?9192?9cfb?$AA@ 10096a34     libeay32:obj_dat.obj
 0002:0000ea40       ??_C@_0M@GDPGEIPM@AES?9256?9ECB?$AA@ 10096a40     libeay32:obj_dat.obj
 0002:0000ea4c       ??_C@_0M@LPPNNCHP@aes?9256?9ecb?$AA@ 10096a4c     libeay32:obj_dat.obj
 0002:0000ea58       ??_C@_0M@FOEEEMFG@AES?9256?9CBC?$AA@ 10096a58     libeay32:obj_dat.obj
 0002:0000ea64       ??_C@_0M@ICEPNGNF@aes?9256?9cbc?$AA@ 10096a64     libeay32:obj_dat.obj
 0002:0000ea70       ??_C@_0M@KIAGKHD@AES?9256?9OFB?$AA@ 10096a70     libeay32:obj_dat.obj
 0002:0000ea7c       ??_C@_0M@NGILPAPA@aes?9256?9ofb?$AA@ 10096a7c     libeay32:obj_dat.obj
 0002:0000ea88       ??_C@_0M@EAFGNFML@AES?9256?9CFB?$AA@ 10096a88     libeay32:obj_dat.obj
 0002:0000ea94       ??_C@_0M@JMFNEPEI@aes?9256?9cfb?$AA@ 10096a94     libeay32:obj_dat.obj
 0002:0000eaa0       ??_C@_0BE@FKEPLGJO@holdInstructionCode?$AA@ 10096aa0     libeay32:obj_dat.obj
 0002:0000eab4       ??_C@_0BG@LHBPDMAN@Hold?5Instruction?5Code?$AA@ 10096ab4     libeay32:obj_dat.obj
 0002:0000eacc       ??_C@_0BE@KPEIPHPJ@holdInstructionNone?$AA@ 10096acc     libeay32:obj_dat.obj
 0002:0000eae0       ??_C@_0BG@ECBIHNGK@Hold?5Instruction?5None?$AA@ 10096ae0     libeay32:obj_dat.obj
 0002:0000eaf8       ??_C@_0BK@ENEKHHMB@holdInstructionCallIssuer?$AA@ 10096af8     libeay32:obj_dat.obj
 0002:0000eb14       ??_C@_0BN@IJKNPIFC@Hold?5Instruction?5Call?5Issuer?$AA@ 10096b14     libeay32:obj_dat.obj
 0002:0000eb34       ??_C@_0BG@BDAACIJE@holdInstructionReject?$AA@ 10096b34     libeay32:obj_dat.obj
 0002:0000eb4c       ??_C@_0BI@EEABHGCD@Hold?5Instruction?5Reject?$AA@ 10096b4c     libeay32:obj_dat.obj
 0002:0000eb64       ??_C@_04PJOLNDGD@data?$AA@ 10096b64     libeay32:obj_dat.obj
 0002:0000eb6c       ??_C@_03OHCBHMED@pss?$AA@  10096b6c     libeay32:obj_dat.obj
 0002:0000eb70       ??_C@_03BIDCBJP@ucl?$AA@   10096b70     libeay32:obj_dat.obj
 0002:0000eb74       ??_C@_05KIBFDOPF@pilot?$AA@ 10096b74     libeay32:obj_dat.obj
 0002:0000eb7c       ??_C@_0BD@NEGIHOAI@pilotAttributeType?$AA@ 10096b7c     libeay32:obj_dat.obj
 0002:0000eb90       ??_C@_0BF@CDEFHHCF@pilotAttributeSyntax?$AA@ 10096b90     libeay32:obj_dat.obj
 0002:0000eba8       ??_C@_0BB@MJFNAIDM@pilotObjectClass?$AA@ 10096ba8     libeay32:obj_dat.obj
 0002:0000ebbc       ??_C@_0M@DLMEDAFC@pilotGroups?$AA@ 10096bbc     libeay32:obj_dat.obj
 0002:0000ebc8       ??_C@_0BA@KPIIGILK@iA5StringSyntax?$AA@ 10096bc8     libeay32:obj_dat.obj
 0002:0000ebd8       ??_C@_0BK@LELMGJGD@caseIgnoreIA5StringSyntax?$AA@ 10096bd8     libeay32:obj_dat.obj
 0002:0000ebf4       ??_C@_0M@MCCFCPKP@pilotObject?$AA@ 10096bf4     libeay32:obj_dat.obj
 0002:0000ec00       ??_C@_0M@NCGDCEIP@pilotPerson?$AA@ 10096c00     libeay32:obj_dat.obj
 0002:0000ec0c       ??_C@_07PMDLEBNF@account?$AA@ 10096c0c     libeay32:obj_dat.obj
 0002:0000ec14       ??_C@_08JEEDKNPB@document?$AA@ 10096c14     libeay32:obj_dat.obj
 0002:0000ec20       ??_C@_04EKFCMFOP@room?$AA@ 10096c20     libeay32:obj_dat.obj
 0002:0000ec28       ??_C@_0P@OAPEDDHP@documentSeries?$AA@ 10096c28     libeay32:obj_dat.obj
 0002:0000ec38       ??_C@_0BA@KIAIOBLD@rFC822localPart?$AA@ 10096c38     libeay32:obj_dat.obj
 0002:0000ec48       ??_C@_09BOCGGGMK@dNSDomain?$AA@ 10096c48     libeay32:obj_dat.obj
 0002:0000ec54       ??_C@_0BE@OPAPHNCO@domainRelatedObject?$AA@ 10096c54     libeay32:obj_dat.obj
 0002:0000ec68       ??_C@_0BA@LKHIAMBK@friendlyCountry?$AA@ 10096c68     libeay32:obj_dat.obj
 0002:0000ec78       ??_C@_0BF@CONLNHDI@simpleSecurityObject?$AA@ 10096c78     libeay32:obj_dat.obj
 0002:0000ec90       ??_C@_0BC@PLDKCMI@pilotOrganization?$AA@ 10096c90     libeay32:obj_dat.obj
 0002:0000eca4       ??_C@_08MPJGPMC@pilotDSA?$AA@ 10096ca4     libeay32:obj_dat.obj
 0002:0000ecb0       ??_C@_0BE@DDFOMMI@qualityLabelledData?$AA@ 10096cb0     libeay32:obj_dat.obj
 0002:0000ecc4       ??_C@_03MJDGODDN@UID?$AA@  10096cc4     libeay32:obj_dat.obj
 0002:0000ecc8       ??_C@_06LPELCIKE@userId?$AA@ 10096cc8     libeay32:obj_dat.obj
 0002:0000ecd0       ??_C@_0BF@HDIIKJDI@textEncodedORAddress?$AA@ 10096cd0     libeay32:obj_dat.obj
 0002:0000ece8       ??_C@_04FFKLPPHM@mail?$AA@ 10096ce8     libeay32:obj_dat.obj
 0002:0000ecf0       ??_C@_0O@PDNFEOHL@rfc822Mailbox?$AA@ 10096cf0     libeay32:obj_dat.obj
 0002:0000ed00       ??_C@_04NIDJFNBE@info?$AA@ 10096d00     libeay32:obj_dat.obj
 0002:0000ed08       ??_C@_0P@PAMFCEKP@favouriteDrink?$AA@ 10096d08     libeay32:obj_dat.obj
 0002:0000ed18       ??_C@_0L@DGKNANFO@roomNumber?$AA@ 10096d18     libeay32:obj_dat.obj
 0002:0000ed24       ??_C@_05DOIFDPKA@photo?$AA@ 10096d24     libeay32:obj_dat.obj
 0002:0000ed2c       ??_C@_09CCPGMHEM@userClass?$AA@ 10096d2c     libeay32:obj_dat.obj
 0002:0000ed38       ??_C@_04OODOLJMA@host?$AA@ 10096d38     libeay32:obj_dat.obj
 0002:0000ed40       ??_C@_07JPLKDPHP@manager?$AA@ 10096d40     libeay32:obj_dat.obj
 0002:0000ed48       ??_C@_0BD@MEPJGCEO@documentIdentifier?$AA@ 10096d48     libeay32:obj_dat.obj
 0002:0000ed5c       ??_C@_0O@BDIDABAC@documentTitle?$AA@ 10096d5c     libeay32:obj_dat.obj
 0002:0000ed6c       ??_C@_0BA@GHOLKFM@documentVersion?$AA@ 10096d6c     libeay32:obj_dat.obj
 0002:0000ed7c       ??_C@_0P@DABDJKFB@documentAuthor?$AA@ 10096d7c     libeay32:obj_dat.obj
 0002:0000ed8c       ??_C@_0BB@COFKDFJ@documentLocation?$AA@ 10096d8c     libeay32:obj_dat.obj
 0002:0000eda0       ??_C@_0BE@CPLAKLNE@homeTelephoneNumber?$AA@ 10096da0     libeay32:obj_dat.obj
 0002:0000edb4       ??_C@_09EMBFDNKC@secretary?$AA@ 10096db4     libeay32:obj_dat.obj
 0002:0000edc0       ??_C@_0N@CEOKELFP@otherMailbox?$AA@ 10096dc0     libeay32:obj_dat.obj
 0002:0000edd0       ??_C@_0BB@LHLABCIP@lastModifiedTime?$AA@ 10096dd0     libeay32:obj_dat.obj
 0002:0000ede4       ??_C@_0P@ECLEJAJJ@lastModifiedBy?$AA@ 10096de4     libeay32:obj_dat.obj
 0002:0000edf4       ??_C@_07IBNMBOJB@aRecord?$AA@ 10096df4     libeay32:obj_dat.obj
 0002:0000edfc       ??_C@_0BF@MIIMJDJB@pilotAttributeType27?$AA@ 10096dfc     libeay32:obj_dat.obj
 0002:0000ee14       ??_C@_08DFFJPLPD@mXRecord?$AA@ 10096e14     libeay32:obj_dat.obj
 0002:0000ee20       ??_C@_08FBLONLGA@nSRecord?$AA@ 10096e20     libeay32:obj_dat.obj
 0002:0000ee2c       ??_C@_09OCFHDJJF@sOARecord?$AA@ 10096e2c     libeay32:obj_dat.obj
 0002:0000ee38       ??_C@_0M@GHEAGPOE@cNAMERecord?$AA@ 10096e38     libeay32:obj_dat.obj
 0002:0000ee44       ??_C@_0BB@MEFMIBKO@associatedDomain?$AA@ 10096e44     libeay32:obj_dat.obj
 0002:0000ee58       ??_C@_0P@OJOOFNGB@associatedName?$AA@ 10096e58     libeay32:obj_dat.obj
 0002:0000ee68       ??_C@_0BC@NPJKACJF@homePostalAddress?$AA@ 10096e68     libeay32:obj_dat.obj
 0002:0000ee7c       ??_C@_0O@CCHLDBGG@personalTitle?$AA@ 10096e7c     libeay32:obj_dat.obj
 0002:0000ee8c       ??_C@_0BG@DCPABLLG@mobileTelephoneNumber?$AA@ 10096e8c     libeay32:obj_dat.obj
 0002:0000eea4       ??_C@_0BF@JICDDEFM@pagerTelephoneNumber?$AA@ 10096ea4     libeay32:obj_dat.obj
 0002:0000eebc       ??_C@_0BE@MGDAFGCM@friendlyCountryName?$AA@ 10096ebc     libeay32:obj_dat.obj
 0002:0000eed0       ??_C@_0BF@IANLBJMF@organizationalStatus?$AA@ 10096ed0     libeay32:obj_dat.obj
 0002:0000eee8       ??_C@_0N@DGNBNBGJ@janetMailbox?$AA@ 10096ee8     libeay32:obj_dat.obj
 0002:0000eef8       ??_C@_0BF@OFOHKDCI@mailPreferenceOption?$AA@ 10096ef8     libeay32:obj_dat.obj
 0002:0000ef10       ??_C@_0N@POAALOHC@buildingName?$AA@ 10096f10     libeay32:obj_dat.obj
 0002:0000ef20       ??_C@_0L@LMCCHBHL@dSAQuality?$AA@ 10096f20     libeay32:obj_dat.obj
 0002:0000ef2c       ??_C@_0BD@EHDOPADK@singleLevelQuality?$AA@ 10096f2c     libeay32:obj_dat.obj
 0002:0000ef40       ??_C@_0BG@HMOECBMF@subtreeMinimumQuality?$AA@ 10096f40     libeay32:obj_dat.obj
 0002:0000ef58       ??_C@_0BG@FLFPEGPE@subtreeMaximumQuality?$AA@ 10096f58     libeay32:obj_dat.obj
 0002:0000ef70       ??_C@_0BC@CBOFINFC@personalSignature?$AA@ 10096f70     libeay32:obj_dat.obj
 0002:0000ef84       ??_C@_0M@KIABODOB@dITRedirect?$AA@ 10096f84     libeay32:obj_dat.obj
 0002:0000ef90       ??_C@_05KNIAAKIP@audio?$AA@ 10096f90     libeay32:obj_dat.obj
 0002:0000ef98       ??_C@_0BC@KCCHJGGO@documentPublisher?$AA@ 10096f98     libeay32:obj_dat.obj
 0002:0000efac       ??_C@_0BF@EFCCADKK@x500UniqueIdentifier?$AA@ 10096fac     libeay32:obj_dat.obj
 0002:0000efc4       ??_C@_08HLONPBDI@mime?9mhs?$AA@ 10096fc4     libeay32:obj_dat.obj
 0002:0000efd0       ??_C@_08DNBACEKK@MIME?5MHS?$AA@ 10096fd0     libeay32:obj_dat.obj
 0002:0000efdc       ??_C@_0BC@NIFMCBEJ@mime?9mhs?9headings?$AA@ 10096fdc     libeay32:obj_dat.obj
 0002:0000eff0       ??_C@_0BA@MOFCNIEE@mime?9mhs?9bodies?$AA@ 10096ff0     libeay32:obj_dat.obj
 0002:0000f000       ??_C@_0BH@ILCJEHBB@id?9hex?9partial?9message?$AA@ 10097000     libeay32:obj_dat.obj
 0002:0000f018       ??_C@_0BJ@KCNAIDP@id?9hex?9multipart?9message?$AA@ 10097018     libeay32:obj_dat.obj
 0002:0000f034       ??_C@_0BE@DAEHFOO@generationQualifier?$AA@ 10097034     libeay32:obj_dat.obj
 0002:0000f048       ??_C@_09NNMENHIH@pseudonym?$AA@ 10097048     libeay32:obj_dat.obj
 0002:0000f054       ??_C@_06KKEMDFAF@id?9set?$AA@ 10097054     libeay32:obj_dat.obj
 0002:0000f05c       ??_C@_0BP@KEIHJPNF@Secure?5Electronic?5Transactions?$AA@ 1009705c     libeay32:obj_dat.obj
 0002:0000f07c       ??_C@_09EJPBIJJA@set?9ctype?$AA@ 1009707c     libeay32:obj_dat.obj
 0002:0000f088       ??_C@_0O@HJGLMADJ@content?5types?$AA@ 10097088     libeay32:obj_dat.obj
 0002:0000f098       ??_C@_0L@PKPEIEIJ@set?9msgExt?$AA@ 10097098     libeay32:obj_dat.obj
 0002:0000f0a4       ??_C@_0BD@LEIDLLNO@message?5extensions?$AA@ 100970a4     libeay32:obj_dat.obj
 0002:0000f0b8       ??_C@_08OFDIOKIA@set?9attr?$AA@ 100970b8     libeay32:obj_dat.obj
 0002:0000f0c4       ??_C@_0L@LAAAKICM@set?9policy?$AA@ 100970c4     libeay32:obj_dat.obj
 0002:0000f0d0       ??_C@_0M@KEIBDDC@set?9certExt?$AA@ 100970d0     libeay32:obj_dat.obj
 0002:0000f0dc       ??_C@_0BH@PDPIEGPA@certificate?5extensions?$AA@ 100970dc     libeay32:obj_dat.obj
 0002:0000f0f4       ??_C@_09JHODGPNO@set?9brand?$AA@ 100970f4     libeay32:obj_dat.obj
 0002:0000f100       ??_C@_0O@EKAPGBNN@setct?9PANData?$AA@ 10097100     libeay32:obj_dat.obj
 0002:0000f110       ??_C@_0P@LAMDLEMO@setct?9PANToken?$AA@ 10097110     libeay32:obj_dat.obj
 0002:0000f120       ??_C@_0O@PFJCCKAL@setct?9PANOnly?$AA@ 10097120     libeay32:obj_dat.obj
 0002:0000f130       ??_C@_0N@GHLAGDMC@setct?9OIData?$AA@ 10097130     libeay32:obj_dat.obj
 0002:0000f140       ??_C@_08MNJJNIEC@setct?9PI?$AA@ 10097140     libeay32:obj_dat.obj
 0002:0000f14c       ??_C@_0N@PGCGIPOF@setct?9PIData?$AA@ 1009714c     libeay32:obj_dat.obj
 0002:0000f15c       ??_C@_0BF@BDFGFMFJ@setct?9PIDataUnsigned?$AA@ 1009715c     libeay32:obj_dat.obj
 0002:0000f174       ??_C@_0P@LPBKKIBL@setct?9HODInput?$AA@ 10097174     libeay32:obj_dat.obj
 0002:0000f184       ??_C@_0BF@EFHLGKOJ@setct?9AuthResBaggage?$AA@ 10097184     libeay32:obj_dat.obj
 0002:0000f19c       ??_C@_0BI@DEMAFNK@setct?9AuthRevReqBaggage?$AA@ 1009719c     libeay32:obj_dat.obj
 0002:0000f1b4       ??_C@_0BI@CNLKCNFM@setct?9AuthRevResBaggage?$AA@ 100971b4     libeay32:obj_dat.obj
 0002:0000f1cc       ??_C@_0BC@DDFFKACM@setct?9CapTokenSeq?$AA@ 100971cc     libeay32:obj_dat.obj
 0002:0000f1e0       ??_C@_0BD@GIEGHJGD@setct?9PInitResData?$AA@ 100971e0     libeay32:obj_dat.obj
 0002:0000f1f4       ??_C@_0N@GIGHFPBJ@setct?9PI?9TBS?$AA@ 100971f4     libeay32:obj_dat.obj
 0002:0000f204       ??_C@_0P@NGDEPBBH@setct?9PResData?$AA@ 10097204     libeay32:obj_dat.obj
 0002:0000f214       ??_C@_0BB@OFKINDPN@setct?9AuthReqTBS?$AA@ 10097214     libeay32:obj_dat.obj
 0002:0000f228       ??_C@_0BB@JPGIIAJN@setct?9AuthResTBS?$AA@ 10097228     libeay32:obj_dat.obj
 0002:0000f23c       ??_C@_0BC@PMEDFACF@setct?9AuthResTBSX?$AA@ 1009723c     libeay32:obj_dat.obj
 0002:0000f250       ??_C@_0BD@CLPECGHJ@setct?9AuthTokenTBS?$AA@ 10097250     libeay32:obj_dat.obj
 0002:0000f264       ??_C@_0BD@BFGEHNIL@setct?9CapTokenData?$AA@ 10097264     libeay32:obj_dat.obj
 0002:0000f278       ??_C@_0BC@DEDCIONA@setct?9CapTokenTBS?$AA@ 10097278     libeay32:obj_dat.obj
 0002:0000f28c       ??_C@_0BF@LAOAGKEH@setct?9AcqCardCodeMsg?$AA@ 1009728c     libeay32:obj_dat.obj
 0002:0000f2a4       ??_C@_0BE@KBFOOHGF@setct?9AuthRevReqTBS?$AA@ 100972a4     libeay32:obj_dat.obj
 0002:0000f2b8       ??_C@_0BF@ODDCPHOK@setct?9AuthRevResData?$AA@ 100972b8     libeay32:obj_dat.obj
 0002:0000f2d0       ??_C@_0BE@NLJOLEAF@setct?9AuthRevResTBS?$AA@ 100972d0     libeay32:obj_dat.obj
 0002:0000f2e4       ??_C@_0BA@KCAOGCKM@setct?9CapReqTBS?$AA@ 100972e4     libeay32:obj_dat.obj
 0002:0000f2f4       ??_C@_0BB@KNKADGPN@setct?9CapReqTBSX?$AA@ 100972f4     libeay32:obj_dat.obj
 0002:0000f308       ??_C@_0BB@BIJNNHL@setct?9CapResData?$AA@ 10097308     libeay32:obj_dat.obj
 0002:0000f31c       ??_C@_0BD@OELDKIB@setct?9CapRevReqTBS?$AA@ 1009731c     libeay32:obj_dat.obj
 0002:0000f330       ??_C@_0BE@OINDCPNA@setct?9CapRevReqTBSX?$AA@ 10097330     libeay32:obj_dat.obj
 0002:0000f344       ??_C@_0BE@EEPKMEFG@setct?9CapRevResData?$AA@ 10097344     libeay32:obj_dat.obj
 0002:0000f358       ??_C@_0BB@LDAMDCDI@setct?9CredReqTBS?$AA@ 10097358     libeay32:obj_dat.obj
 0002:0000f36c       ??_C@_0BC@FKNDGDPA@setct?9CredReqTBSX?$AA@ 1009736c     libeay32:obj_dat.obj
 0002:0000f380       ??_C@_0BC@PGPKIIHG@setct?9CredResData?$AA@ 10097380     libeay32:obj_dat.obj
 0002:0000f394       ??_C@_0BE@KAOEBGME@setct?9CredRevReqTBS?$AA@ 10097394     libeay32:obj_dat.obj
 0002:0000f3a8       ??_C@_0BF@OOMLDFOD@setct?9CredRevReqTBSX?$AA@ 100973a8     libeay32:obj_dat.obj
 0002:0000f3c0       ??_C@_0BF@ECOCNOGF@setct?9CredRevResData?$AA@ 100973c0     libeay32:obj_dat.obj
 0002:0000f3d8       ??_C@_0BD@DDNGMNFC@setct?9PCertReqData?$AA@ 100973d8     libeay32:obj_dat.obj
 0002:0000f3ec       ??_C@_0BC@CFHCKIIA@setct?9PCertResTBS?$AA@ 100973ec     libeay32:obj_dat.obj
 0002:0000f400       ??_C@_0BI@MKKDKHGI@setct?9BatchAdminReqData?$AA@ 10097400     libeay32:obj_dat.obj
 0002:0000f418       ??_C@_0BI@IHGLAGGD@setct?9BatchAdminResData?$AA@ 10097418     libeay32:obj_dat.obj
 0002:0000f430       ??_C@_0BG@OMHIHPPP@setct?9CardCInitResTBS?$AA@ 10097430     libeay32:obj_dat.obj
 0002:0000f448       ??_C@_0BG@DIBJJIJB@setct?9MeAqCInitResTBS?$AA@ 10097448     libeay32:obj_dat.obj
 0002:0000f460       ??_C@_0BE@KOFLJLPI@setct?9RegFormResTBS?$AA@ 10097460     libeay32:obj_dat.obj
 0002:0000f474       ??_C@_0BC@FFENCANF@setct?9CertReqData?$AA@ 10097474     libeay32:obj_dat.obj
 0002:0000f488       ??_C@_0BB@MCGELGDK@setct?9CertReqTBS?$AA@ 10097488     libeay32:obj_dat.obj
 0002:0000f49c       ??_C@_0BC@BIIFIBNO@setct?9CertResData?$AA@ 1009749c     libeay32:obj_dat.obj
 0002:0000f4b0       ??_C@_0BE@OIDIJLCF@setct?9CertInqReqTBS?$AA@ 100974b0     libeay32:obj_dat.obj
 0002:0000f4c4       ??_C@_0P@DLHKHMDJ@setct?9ErrorTBS?$AA@ 100974c4     libeay32:obj_dat.obj
 0002:0000f4d4       ??_C@_0BG@JDDNBPAG@setct?9PIDualSignedTBE?$AA@ 100974d4     libeay32:obj_dat.obj
 0002:0000f4ec       ??_C@_0BE@IBOAPLDD@setct?9PIUnsignedTBE?$AA@ 100974ec     libeay32:obj_dat.obj
 0002:0000f500       ??_C@_0BB@PJDAGGCK@setct?9AuthReqTBE?$AA@ 10097500     libeay32:obj_dat.obj
 0002:0000f514       ??_C@_0BB@IDPADFEK@setct?9AuthResTBE?$AA@ 10097514     libeay32:obj_dat.obj
 0002:0000f528       ??_C@_0BC@OEOIIPOH@setct?9AuthResTBEX?$AA@ 10097528     libeay32:obj_dat.obj
 0002:0000f53c       ??_C@_0BD@DHGMJDKO@setct?9AuthTokenTBE?$AA@ 1009753c     libeay32:obj_dat.obj
 0002:0000f550       ??_C@_0BC@CIKKDLAH@setct?9CapTokenTBE?$AA@ 10097550     libeay32:obj_dat.obj
 0002:0000f564       ??_C@_0BD@OMCOOIME@setct?9CapTokenTBEX?$AA@ 10097564     libeay32:obj_dat.obj
 0002:0000f578       ??_C@_0BI@PALCIALL@setct?9AcqCardCodeMsgTBE?$AA@ 10097578     libeay32:obj_dat.obj
 0002:0000f590       ??_C@_0BE@LNMGFCLC@setct?9AuthRevReqTBE?$AA@ 10097590     libeay32:obj_dat.obj
 0002:0000f5a4       ??_C@_0BE@MHAGABNC@setct?9AuthRevResTBE?$AA@ 100975a4     libeay32:obj_dat.obj
 0002:0000f5b8       ??_C@_0BF@KKFFJIHO@setct?9AuthRevResTBEB?$AA@ 100975b8     libeay32:obj_dat.obj
 0002:0000f5d0       ??_C@_0BA@LOJGNHHL@setct?9CapReqTBE?$AA@ 100975d0     libeay32:obj_dat.obj
 0002:0000f5e0       ??_C@_0BB@LFALOJDP@setct?9CapReqTBEX?$AA@ 100975e0     libeay32:obj_dat.obj
 0002:0000f5f4       ??_C@_0BA@MEFGIEBL@setct?9CapResTBE?$AA@ 100975f4     libeay32:obj_dat.obj
 0002:0000f604       ??_C@_0BD@BCNDIPFG@setct?9CapRevReqTBE?$AA@ 10097604     libeay32:obj_dat.obj
 0002:0000f618       ??_C@_0BE@PAHIPABC@setct?9CapRevReqTBEX?$AA@ 10097618     libeay32:obj_dat.obj
 0002:0000f62c       ??_C@_0BD@GIBDNMDG@setct?9CapRevResTBE?$AA@ 1009762c     libeay32:obj_dat.obj
 0002:0000f640       ??_C@_0BB@KPJEIHOP@setct?9CredReqTBE?$AA@ 10097640     libeay32:obj_dat.obj
 0002:0000f654       ??_C@_0BC@ECHILMDC@setct?9CredReqTBEX?$AA@ 10097654     libeay32:obj_dat.obj
 0002:0000f668       ??_C@_0BB@NFFENEIP@setct?9CredResTBE?$AA@ 10097668     libeay32:obj_dat.obj
 0002:0000f67c       ??_C@_0BE@LMHMKDBD@setct?9CredRevReqTBE?$AA@ 1009767c     libeay32:obj_dat.obj
 0002:0000f690       ??_C@_0BF@PGGAOKCB@setct?9CredRevReqTBEX?$AA@ 10097690     libeay32:obj_dat.obj
 0002:0000f6a8       ??_C@_0BE@MGLMPAHD@setct?9CredRevResTBE?$AA@ 100976a8     libeay32:obj_dat.obj
 0002:0000f6bc       ??_C@_0BH@IPJPBLKL@setct?9BatchAdminReqTBE?$AA@ 100976bc     libeay32:obj_dat.obj
 0002:0000f6d4       ??_C@_0BH@PFFPEIML@setct?9BatchAdminResTBE?$AA@ 100976d4     libeay32:obj_dat.obj
 0002:0000f6ec       ??_C@_0BE@MIADHNEP@setct?9RegFormReqTBE?$AA@ 100976ec     libeay32:obj_dat.obj
 0002:0000f700       ??_C@_0BB@NOPMADON@setct?9CertReqTBE?$AA@ 10097700     libeay32:obj_dat.obj
 0002:0000f714       ??_C@_0BC@KMAHLFJK@setct?9CertReqTBEX?$AA@ 10097714     libeay32:obj_dat.obj
 0002:0000f728       ??_C@_0BB@KEDMFAIN@setct?9CertResTBE?$AA@ 10097728     libeay32:obj_dat.obj
 0002:0000f73c       ??_C@_0BJ@KMIJGANO@setct?9CRLNotificationTBS?$AA@ 1009773c     libeay32:obj_dat.obj
 0002:0000f758       ??_C@_0BM@GINBKIMJ@setct?9CRLNotificationResTBS?$AA@ 10097758     libeay32:obj_dat.obj
 0002:0000f774       ??_C@_0BJ@BPGLEKIJ@setct?9BCIDistributionTBS?$AA@ 10097774     libeay32:obj_dat.obj
 0002:0000f790       ??_C@_0BA@NKJJMGPC@setext?9genCrypt?$AA@ 10097790     libeay32:obj_dat.obj
 0002:0000f7a0       ??_C@_0BD@IMJHIOH@generic?5cryptogram?$AA@ 100977a0     libeay32:obj_dat.obj
 0002:0000f7b4       ??_C@_0O@IFMPKKOL@setext?9miAuth?$AA@ 100977b4     libeay32:obj_dat.obj
 0002:0000f7c4       ??_C@_0BI@IMGNFPLI@merchant?5initiated?5auth?$AA@ 100977c4     libeay32:obj_dat.obj
 0002:0000f7dc       ??_C@_0BB@IKLFBNP@setext?9pinSecure?$AA@ 100977dc     libeay32:obj_dat.obj
 0002:0000f7f0       ??_C@_0O@PNHGIFHA@setext?9pinAny?$AA@ 100977f0     libeay32:obj_dat.obj
 0002:0000f800       ??_C@_0O@PNAFPHHK@setext?9track2?$AA@ 10097800     libeay32:obj_dat.obj
 0002:0000f810       ??_C@_09GMOEIEJI@setext?9cv?$AA@ 10097810     libeay32:obj_dat.obj
 0002:0000f81c       ??_C@_0BI@MFPOFNGC@additional?5verification?$AA@ 1009781c     libeay32:obj_dat.obj
 0002:0000f834       ??_C@_0BA@DLJGCPKK@set?9policy?9root?$AA@ 10097834     libeay32:obj_dat.obj
 0002:0000f844       ??_C@_0BD@MELPLACB@setCext?9hashedRoot?$AA@ 10097844     libeay32:obj_dat.obj
 0002:0000f858       ??_C@_0BB@LHGCHNFD@setCext?9certType?$AA@ 10097858     libeay32:obj_dat.obj
 0002:0000f86c       ??_C@_0BC@ONMLOIHK@setCext?9merchData?$AA@ 1009786c     libeay32:obj_dat.obj
 0002:0000f880       ??_C@_0BG@CMNKGOHO@setCext?9cCertRequired?$AA@ 10097880     libeay32:obj_dat.obj
 0002:0000f898       ??_C@_0BC@BPADJLFJ@setCext?9tunneling?$AA@ 10097898     libeay32:obj_dat.obj
 0002:0000f8ac       ??_C@_0P@DFHCPLJG@setCext?9setExt?$AA@ 100978ac     libeay32:obj_dat.obj
 0002:0000f8bc       ??_C@_0BB@HIAOOOIO@setCext?9setQualf?$AA@ 100978bc     libeay32:obj_dat.obj
 0002:0000f8d0       ??_C@_0BJ@CNLNHONG@setCext?9PGWYcapabilities?$AA@ 100978d0     libeay32:obj_dat.obj
 0002:0000f8ec       ??_C@_0BI@FIIEHNL@setCext?9TokenIdentifier?$AA@ 100978ec     libeay32:obj_dat.obj
 0002:0000f904       ??_C@_0BD@FHFLAKJD@setCext?9Track2Data?$AA@ 10097904     libeay32:obj_dat.obj
 0002:0000f918       ??_C@_0BC@KMFGLCBL@setCext?9TokenType?$AA@ 10097918     libeay32:obj_dat.obj
 0002:0000f92c       ??_C@_0BL@OLCLGJDA@setCext?9IssuerCapabilities?$AA@ 1009792c     libeay32:obj_dat.obj
 0002:0000f948       ??_C@_0N@DCNKAAPN@setAttr?9Cert?$AA@ 10097948     libeay32:obj_dat.obj
 0002:0000f958       ??_C@_0BA@FAIFDKDK@setAttr?9PGWYcap?$AA@ 10097958     libeay32:obj_dat.obj
 0002:0000f968       ??_C@_0BN@HEFBDPEB@payment?5gateway?5capabilities?$AA@ 10097968     libeay32:obj_dat.obj
 0002:0000f988       ??_C@_0BC@IKOKMCIL@setAttr?9TokenType?$AA@ 10097988     libeay32:obj_dat.obj
 0002:0000f99c       ??_C@_0P@OGFLCCKL@setAttr?9IssCap?$AA@ 1009799c     libeay32:obj_dat.obj
 0002:0000f9ac       ??_C@_0BE@HBDPGKCG@issuer?5capabilities?$AA@ 100979ac     libeay32:obj_dat.obj
 0002:0000f9c0       ??_C@_0BB@MADMNAKK@set?9rootKeyThumb?$AA@ 100979c0     libeay32:obj_dat.obj
 0002:0000f9d4       ??_C@_0O@NOCONBCM@set?9addPolicy?$AA@ 100979d4     libeay32:obj_dat.obj
 0002:0000f9e4       ??_C@_0BC@BMANBENP@setAttr?9Token?9EMV?$AA@ 100979e4     libeay32:obj_dat.obj
 0002:0000f9f8       ??_C@_0BG@ICNBHDJ@setAttr?9Token?9B0Prime?$AA@ 100979f8     libeay32:obj_dat.obj
 0002:0000fa10       ??_C@_0BD@CMJDLAHE@setAttr?9IssCap?9CVM?$AA@ 10097a10     libeay32:obj_dat.obj
 0002:0000fa24       ??_C@_0BC@FKLLNJMF@setAttr?9IssCap?9T2?$AA@ 10097a24     libeay32:obj_dat.obj
 0002:0000fa38       ??_C@_0BD@DMNGIJGO@setAttr?9IssCap?9Sig?$AA@ 10097a38     libeay32:obj_dat.obj
 0002:0000fa4c       ??_C@_0BE@FJCINFHM@setAttr?9GenCryptgrm?$AA@ 10097a4c     libeay32:obj_dat.obj
 0002:0000fa60       ??_C@_0BE@BANBLNDJ@generate?5cryptogram?$AA@ 10097a60     libeay32:obj_dat.obj
 0002:0000fa74       ??_C@_0O@GFEDKLID@setAttr?9T2Enc?$AA@ 10097a74     libeay32:obj_dat.obj
 0002:0000fa84       ??_C@_0BC@MCHFBPJF@encrypted?5track?52?$AA@ 10097a84     libeay32:obj_dat.obj
 0002:0000fa98       ??_C@_0BD@GDDCOMNC@setAttr?9T2cleartxt?$AA@ 10097a98     libeay32:obj_dat.obj
 0002:0000faac       ??_C@_0BC@EEELFHMJ@cleartext?5track?52?$AA@ 10097aac     libeay32:obj_dat.obj
 0002:0000fac0       ??_C@_0BC@KFHJNGAA@setAttr?9TokICCsig?$AA@ 10097ac0     libeay32:obj_dat.obj
 0002:0000fad4       ??_C@_0BH@FLMFBHA@ICC?5or?5token?5signature?$AA@ 10097ad4     libeay32:obj_dat.obj
 0002:0000faec       ??_C@_0BC@HILPEDHB@setAttr?9SecDevSig?$AA@ 10097aec     libeay32:obj_dat.obj
 0002:0000fb00       ??_C@_0BI@BMDLNIII@secure?5device?5signature?$AA@ 10097b00     libeay32:obj_dat.obj
 0002:0000fb18       ??_C@_0BD@EBDAHFCK@set?9brand?9IATA?9ATA?$AA@ 10097b18     libeay32:obj_dat.obj
 0002:0000fb2c       ??_C@_0BB@MJOMIBOM@set?9brand?9Diners?$AA@ 10097b2c     libeay32:obj_dat.obj
 0002:0000fb40       ??_C@_0BK@NGHCPIFJ@set?9brand?9AmericanExpress?$AA@ 10097b40     libeay32:obj_dat.obj
 0002:0000fb5c       ??_C@_0O@ODFDKJIN@set?9brand?9JCB?$AA@ 10097b5c     libeay32:obj_dat.obj
 0002:0000fb6c       ??_C@_0P@KADKEMKM@set?9brand?9Visa?$AA@ 10097b6c     libeay32:obj_dat.obj
 0002:0000fb7c       ??_C@_0BF@EKCBHCKG@set?9brand?9MasterCard?$AA@ 10097b7c     libeay32:obj_dat.obj
 0002:0000fb94       ??_C@_0BA@JHOGHBHC@set?9brand?9Novus?$AA@ 10097b94     libeay32:obj_dat.obj
 0002:0000fba4       ??_C@_08IHLOILPC@DES?9CDMF?$AA@ 10097ba4     libeay32:obj_dat.obj
 0002:0000fbb0       ??_C@_08PPLOLAOD@des?9cdmf?$AA@ 10097bb0     libeay32:obj_dat.obj
 0002:0000fbbc       ??_C@_0BF@EIIDBKMM@rsaOAEPEncryptionSET?$AA@ 10097bbc     libeay32:obj_dat.obj
 0002:0000fbd4       ??_C@_05LJGINOIA@ITU?9T?$AA@ 10097bd4     libeay32:obj_dat.obj
 0002:0000fbdc       ??_C@_05EKLDHPCO@itu?9t?$AA@ 10097bdc     libeay32:obj_dat.obj
 0002:0000fbe4       ??_C@_0BA@NPJCPIN@JOINT?9ISO?9ITU?9T?$AA@ 10097be4     libeay32:obj_dat.obj
 0002:0000fbf4       ??_C@_0BA@DDCJMADA@joint?9iso?9itu?9t?$AA@ 10097bf4     libeay32:obj_dat.obj
 0002:0000fc04       ??_C@_0BM@PBBEOBAP@international?9organizations?$AA@ 10097c04     libeay32:obj_dat.obj
 0002:0000fc20       ??_C@_0BM@PGMBEIHL@International?5Organizations?$AA@ 10097c20     libeay32:obj_dat.obj
 0002:0000fc3c       ??_C@_0BB@MJPMDGHF@msSmartcardLogin?$AA@ 10097c3c     libeay32:obj_dat.obj
 0002:0000fc50       ??_C@_0BJ@BHLLFCI@Microsoft?5Smartcardlogin?$AA@ 10097c50     libeay32:obj_dat.obj
 0002:0000fc6c       ??_C@_05LKLAGLGM@msUPN?$AA@ 10097c6c     libeay32:obj_dat.obj
 0002:0000fc74       ??_C@_0CD@POJHJMFG@Microsoft?5Universal?5Principal?5Na@ 10097c74     libeay32:obj_dat.obj
 0002:0000fc98       ??_C@_0N@KJNMAENO@AES?9128?9CFB1?$AA@ 10097c98     libeay32:obj_dat.obj
 0002:0000fca8       ??_C@_0N@NNLBNNNO@aes?9128?9cfb1?$AA@ 10097ca8     libeay32:obj_dat.obj
 0002:0000fcb8       ??_C@_0N@FAMGEHMG@AES?9192?9CFB1?$AA@ 10097cb8     libeay32:obj_dat.obj
 0002:0000fcc8       ??_C@_0N@CEKLJOMG@aes?9192?9cfb1?$AA@ 10097cc8     libeay32:obj_dat.obj
 0002:0000fcd8       ??_C@_0N@MKKLEKFP@AES?9256?9CFB1?$AA@ 10097cd8     libeay32:obj_dat.obj
 0002:0000fce8       ??_C@_0N@LOMGJDFP@aes?9256?9cfb1?$AA@ 10097ce8     libeay32:obj_dat.obj
 0002:0000fcf8       ??_C@_0N@HIBOLPJH@AES?9128?9CFB8?$AA@ 10097cf8     libeay32:obj_dat.obj
 0002:0000fd08       ??_C@_0N@MHDGGJH@aes?9128?9cfb8?$AA@ 10097d08     libeay32:obj_dat.obj
 0002:0000fd18       ??_C@_0N@IBAEPMIP@AES?9192?9CFB8?$AA@ 10097d18     libeay32:obj_dat.obj
 0002:0000fd28       ??_C@_0N@PFGJCFIP@aes?9192?9cfb8?$AA@ 10097d28     libeay32:obj_dat.obj
 0002:0000fd38       ??_C@_0N@BLGJPBBG@AES?9256?9CFB8?$AA@ 10097d38     libeay32:obj_dat.obj
 0002:0000fd48       ??_C@_0N@GPAECIBG@aes?9256?9cfb8?$AA@ 10097d48     libeay32:obj_dat.obj
 0002:0000fd58       ??_C@_08EGJFOLHF@DES?9CFB1?$AA@ 10097d58     libeay32:obj_dat.obj
 0002:0000fd64       ??_C@_08KLBBPEMG@des?9cfb1?$AA@ 10097d64     libeay32:obj_dat.obj
 0002:0000fd70       ??_C@_08JHFHFADM@DES?9CFB8?$AA@ 10097d70     libeay32:obj_dat.obj
 0002:0000fd7c       ??_C@_08HKNDEPIP@des?9cfb8?$AA@ 10097d7c     libeay32:obj_dat.obj
 0002:0000fd88       ??_C@_0O@HMFIBGGD@DES?9EDE3?9CFB1?$AA@ 10097d88     libeay32:obj_dat.obj
 0002:0000fd98       ??_C@_0O@HHBHNLEJ@des?9ede3?9cfb1?$AA@ 10097d98     libeay32:obj_dat.obj
 0002:0000fda8       ??_C@_0O@KNJKKNCK@DES?9EDE3?9CFB8?$AA@ 10097da8     libeay32:obj_dat.obj
 0002:0000fdb8       ??_C@_0O@KGNFGAAA@des?9ede3?9cfb8?$AA@ 10097db8     libeay32:obj_dat.obj
 0002:0000fdc8       ??_C@_06KFAFKEEH@street?$AA@ 10097dc8     libeay32:obj_dat.obj
 0002:0000fdd0       ??_C@_0O@GFJANBCD@streetAddress?$AA@ 10097dd0     libeay32:obj_dat.obj
 0002:0000fde0       ??_C@_0L@NCDHJCMF@postalCode?$AA@ 10097de0     libeay32:obj_dat.obj
 0002:0000fdec       ??_C@_06CAAPGDCJ@id?9ppl?$AA@ 10097dec     libeay32:obj_dat.obj
 0002:0000fdf4       ??_C@_0O@LOINHHBF@proxyCertInfo?$AA@ 10097df4     libeay32:obj_dat.obj
 0002:0000fe04       ??_C@_0BO@CCHFGBDO@Proxy?5Certificate?5Information?$AA@ 10097e04     libeay32:obj_dat.obj
 0002:0000fe24       ??_C@_0BD@HNCKDFAM@id?9ppl?9anyLanguage?$AA@ 10097e24     libeay32:obj_dat.obj
 0002:0000fe38       ??_C@_0N@BEBFEGLC@Any?5language?$AA@ 10097e38     libeay32:obj_dat.obj
 0002:0000fe48       ??_C@_0BC@PCEJIIF@id?9ppl?9inheritAll?$AA@ 10097e48     libeay32:obj_dat.obj
 0002:0000fe5c       ??_C@_0M@FFLAPACB@Inherit?5all?$AA@ 10097e5c     libeay32:obj_dat.obj
 0002:0000fe68       ??_C@_0BA@NDBMPGLN@nameConstraints?$AA@ 10097e68     libeay32:obj_dat.obj
 0002:0000fe78       ??_C@_0BI@MLJLAGL@X509v3?5Name?5Constraints?$AA@ 10097e78     libeay32:obj_dat.obj
 0002:0000fe90       ??_C@_0BD@JMNHHICP@id?9ppl?9independent?$AA@ 10097e90     libeay32:obj_dat.obj
 0002:0000fea4       ??_C@_0M@MLMKHJLC@Independent?$AA@ 10097ea4     libeay32:obj_dat.obj
 0002:0000feb0       ??_C@_0L@CICIPLII@RSA?9SHA256?$AA@ 10097eb0     libeay32:obj_dat.obj
 0002:0000febc       ??_C@_0BI@OLMNBFHG@sha256WithRSAEncryption?$AA@ 10097ebc     libeay32:obj_dat.obj
 0002:0000fed4       ??_C@_0L@KKHKGNDM@RSA?9SHA384?$AA@ 10097ed4     libeay32:obj_dat.obj
 0002:0000fee0       ??_C@_0BI@LGPCJGLE@sha384WithRSAEncryption?$AA@ 10097ee0     libeay32:obj_dat.obj
 0002:0000fef8       ??_C@_0L@NGJKKOOJ@RSA?9SHA512?$AA@ 10097ef8     libeay32:obj_dat.obj
 0002:0000ff04       ??_C@_0BI@CFKPHFJF@sha512WithRSAEncryption?$AA@ 10097f04     libeay32:obj_dat.obj
 0002:0000ff1c       ??_C@_0L@BPFBIPIP@RSA?9SHA224?$AA@ 10097f1c     libeay32:obj_dat.obj
 0002:0000ff28       ??_C@_0BI@HODNLFBE@sha224WithRSAEncryption?$AA@ 10097f28     libeay32:obj_dat.obj
 0002:0000ff40       ??_C@_06HKIKMHH@SHA256?$AA@ 10097f40     libeay32:obj_dat.obj
 0002:0000ff48       ??_C@_06OHILPNJ@sha256?$AA@ 10097f48     libeay32:obj_dat.obj
 0002:0000ff50       ??_C@_06IFPKDKMD@SHA384?$AA@ 10097f50     libeay32:obj_dat.obj
 0002:0000ff58       ??_C@_06IMCKCJGN@sha384?$AA@ 10097f58     libeay32:obj_dat.obj
 0002:0000ff60       ??_C@_06PJBKPJBG@SHA512?$AA@ 10097f60     libeay32:obj_dat.obj
 0002:0000ff68       ??_C@_06PAMKOKLI@sha512?$AA@ 10097f68     libeay32:obj_dat.obj
 0002:0000ff70       ??_C@_06DANBNIHA@SHA224?$AA@ 10097f70     libeay32:obj_dat.obj
 0002:0000ff78       ??_C@_06DJABMLNO@sha224?$AA@ 10097f78     libeay32:obj_dat.obj
 0002:0000ff80       ??_C@_0BI@NDBFOMIA@identified?9organization?$AA@ 10097f80     libeay32:obj_dat.obj
 0002:0000ff98       ??_C@_0N@GOPBJFID@certicom?9arc?$AA@ 10097f98     libeay32:obj_dat.obj
 0002:0000ffa8       ??_C@_03EOHJGACH@wap?$AA@  10097fa8     libeay32:obj_dat.obj
 0002:0000ffac       ??_C@_07KJBJKKHG@wap?9wsg?$AA@ 10097fac     libeay32:obj_dat.obj
 0002:0000ffb4       ??_C@_0BM@PPOCDOAJ@id?9characteristic?9two?9basis?$AA@ 10097fb4     libeay32:obj_dat.obj
 0002:0000ffd0       ??_C@_07JEMDIFEL@onBasis?$AA@ 10097fd0     libeay32:obj_dat.obj
 0002:0000ffd8       ??_C@_07ICPDEPKF@tpBasis?$AA@ 10097fd8     libeay32:obj_dat.obj
 0002:0000ffe0       ??_C@_07GLJEBFP@ppBasis?$AA@ 10097fe0     libeay32:obj_dat.obj
 0002:0000ffe8       ??_C@_0L@INFLBNIO@c2pnb163v1?$AA@ 10097fe8     libeay32:obj_dat.obj
 0002:0000fff4       ??_C@_0L@KGHGEOEN@c2pnb163v2?$AA@ 10097ff4     libeay32:obj_dat.obj
 0002:00010000       ??_C@_0L@LPGNHPAM@c2pnb163v3?$AA@ 10098000     libeay32:obj_dat.obj
 0002:0001000c       ??_C@_0L@IHOFMEAM@c2pnb176v1?$AA@ 1009800c     libeay32:obj_dat.obj
 0002:00010018       ??_C@_0L@PIOOBDNI@c2tnb191v1?$AA@ 10098018     libeay32:obj_dat.obj
 0002:00010024       ??_C@_0L@NDMDEABL@c2tnb191v2?$AA@ 10098024     libeay32:obj_dat.obj
 0002:00010030       ??_C@_0L@MKNIHBFK@c2tnb191v3?$AA@ 10098030     libeay32:obj_dat.obj
 0002:0001003c       ??_C@_0L@KLAMDLDB@c2onb191v4?$AA@ 1009803c     libeay32:obj_dat.obj
 0002:00010048       ??_C@_0L@LCBHAKHA@c2onb191v5?$AA@ 10098048     libeay32:obj_dat.obj
 0002:00010054       ??_C@_0L@FCEMHHLG@c2pnb208w1?$AA@ 10098054     libeay32:obj_dat.obj
 0002:00010060       ??_C@_0L@PBHOFBDI@c2tnb239v1?$AA@ 10098060     libeay32:obj_dat.obj
 0002:0001006c       ??_C@_0L@NKFDACPL@c2tnb239v2?$AA@ 1009806c     libeay32:obj_dat.obj
 0002:00010078       ??_C@_0L@MDEIDDLK@c2tnb239v3?$AA@ 10098078     libeay32:obj_dat.obj
 0002:00010084       ??_C@_0L@KCJMHJNB@c2onb239v4?$AA@ 10098084     libeay32:obj_dat.obj
 0002:00010090       ??_C@_0L@LLIHEIJA@c2onb239v5?$AA@ 10098090     libeay32:obj_dat.obj
 0002:0001009c       ??_C@_0L@IPNBELMC@c2pnb272w1?$AA@ 1009809c     libeay32:obj_dat.obj
 0002:000100a8       ??_C@_0L@NDMGBLKL@c2pnb304w1?$AA@ 100980a8     libeay32:obj_dat.obj
 0002:000100b4       ??_C@_0L@LFGCHHDN@c2tnb359v1?$AA@ 100980b4     libeay32:obj_dat.obj
 0002:000100c0       ??_C@_0L@BGFAFBLD@c2pnb368w1?$AA@ 100980c0     libeay32:obj_dat.obj
 0002:000100cc       ??_C@_0L@OFJKDCBG@c2tnb431r1?$AA@ 100980cc     libeay32:obj_dat.obj
 0002:000100d8       ??_C@_09DNJONEBC@secp112r1?$AA@ 100980d8     libeay32:obj_dat.obj
 0002:000100e4       ??_C@_09BGLDIHNB@secp112r2?$AA@ 100980e4     libeay32:obj_dat.obj
 0002:000100f0       ??_C@_09BFIDEOKG@secp128r1?$AA@ 100980f0     libeay32:obj_dat.obj
 0002:000100fc       ??_C@_09DOKOBNGF@secp128r2?$AA@ 100980fc     libeay32:obj_dat.obj
 0002:00010108       ??_C@_09DGEAFIHG@secp160k1?$AA@ 10098108     libeay32:obj_dat.obj
 0002:00010114       ??_C@_09CFLHMAIJ@secp160r1?$AA@ 10098114     libeay32:obj_dat.obj
 0002:00010120       ??_C@_09OJKJDEK@secp160r2?$AA@ 10098120     libeay32:obj_dat.obj
 0002:0001012c       ??_C@_09BOBJAHCM@secp192k1?$AA@ 1009812c     libeay32:obj_dat.obj
 0002:00010138       ??_C@_09MKDGBLEP@secp224k1?$AA@ 10098138     libeay32:obj_dat.obj
 0002:00010144       ??_C@_09NJMBIDLA@secp224r1?$AA@ 10098144     libeay32:obj_dat.obj
 0002:00010150       ??_C@_09NCBPAPNE@secp256k1?$AA@ 10098150     libeay32:obj_dat.obj
 0002:0001015c       ??_C@_09FICNEILE@secp384r1?$AA@ 1009815c     libeay32:obj_dat.obj
 0002:00010168       ??_C@_09PDBKEDDK@secp521r1?$AA@ 10098168     libeay32:obj_dat.obj
 0002:00010174       ??_C@_09HBGNJHGE@sect113r1?$AA@ 10098174     libeay32:obj_dat.obj
 0002:00010180       ??_C@_09FKEAMEKH@sect113r2?$AA@ 10098180     libeay32:obj_dat.obj
 0002:0001018c       ??_C@_09KBKEAMIP@sect131r1?$AA@ 1009818c     libeay32:obj_dat.obj
 0002:00010198       ??_C@_09IKIJFPEM@sect131r2?$AA@ 10098198     libeay32:obj_dat.obj
 0002:000101a4       ??_C@_09NALKNDIL@sect163k1?$AA@ 100981a4     libeay32:obj_dat.obj
 0002:000101b0       ??_C@_09MDENELHE@sect163r1?$AA@ 100981b0     libeay32:obj_dat.obj
 0002:000101bc       ??_C@_09OIGABILH@sect163r2?$AA@ 100981bc     libeay32:obj_dat.obj
 0002:000101c8       ??_C@_09EBBNNMKF@sect193r1?$AA@ 100981c8     libeay32:obj_dat.obj
 0002:000101d4       ??_C@_09GKDAIPGG@sect193r2?$AA@ 100981d4     libeay32:obj_dat.obj
 0002:000101e0       ??_C@_09JOMOCOFF@sect233k1?$AA@ 100981e0     libeay32:obj_dat.obj
 0002:000101ec       ??_C@_09INDJLGKK@sect233r1?$AA@ 100981ec     libeay32:obj_dat.obj
 0002:000101f8       ??_C@_09PBHDMODB@sect239k1?$AA@ 100981f8     libeay32:obj_dat.obj
 0002:00010204       ??_C@_09OJBOBPEE@sect283k1?$AA@ 10098204     libeay32:obj_dat.obj
 0002:00010210       ??_C@_09PKOJIHLL@sect283r1?$AA@ 10098210     libeay32:obj_dat.obj
 0002:0001021c       ??_C@_09GAIKFHPM@sect409k1?$AA@ 1009821c     libeay32:obj_dat.obj
 0002:00010228       ??_C@_09HDHNMPAD@sect409r1?$AA@ 10098228     libeay32:obj_dat.obj
 0002:00010234       ??_C@_09NMECHAKG@sect571k1?$AA@ 10098234     libeay32:obj_dat.obj
 0002:00010240       ??_C@_09MPLFOIFJ@sect571r1?$AA@ 10098240     libeay32:obj_dat.obj
 0002:0001024c       ??_C@_0BH@PEHFMMHF@wap?9wsg?9idm?9ecid?9wtls1?$AA@ 1009824c     libeay32:obj_dat.obj
 0002:00010264       ??_C@_0BH@MGEDKOPH@wap?9wsg?9idm?9ecid?9wtls3?$AA@ 10098264     libeay32:obj_dat.obj
 0002:0001027c       ??_C@_0BH@IJACDIDA@wap?9wsg?9idm?9ecid?9wtls4?$AA@ 1009827c     libeay32:obj_dat.obj
 0002:00010294       ??_C@_0BH@JABJAJHB@wap?9wsg?9idm?9ecid?9wtls5?$AA@ 10098294     libeay32:obj_dat.obj
 0002:000102ac       ??_C@_0BH@LLDEFKLC@wap?9wsg?9idm?9ecid?9wtls6?$AA@ 100982ac     libeay32:obj_dat.obj
 0002:000102c4       ??_C@_0BH@KCCPGLPD@wap?9wsg?9idm?9ecid?9wtls7?$AA@ 100982c4     libeay32:obj_dat.obj
 0002:000102dc       ??_C@_0BH@CFLHHHDM@wap?9wsg?9idm?9ecid?9wtls8?$AA@ 100982dc     libeay32:obj_dat.obj
 0002:000102f4       ??_C@_0BH@DMKMEGHN@wap?9wsg?9idm?9ecid?9wtls9?$AA@ 100982f4     libeay32:obj_dat.obj
 0002:0001030c       ??_C@_0BI@PPNNMGIM@wap?9wsg?9idm?9ecid?9wtls10?$AA@ 1009830c     libeay32:obj_dat.obj
 0002:00010324       ??_C@_0BI@OGMGPHMN@wap?9wsg?9idm?9ecid?9wtls11?$AA@ 10098324     libeay32:obj_dat.obj
 0002:0001033c       ??_C@_0BI@MNOLKEAO@wap?9wsg?9idm?9ecid?9wtls12?$AA@ 1009833c     libeay32:obj_dat.obj
 0002:00010354       ??_C@_09HBBJOJHB@anyPolicy?$AA@ 10098354     libeay32:obj_dat.obj
 0002:00010360       ??_C@_0BC@CEEMIAHF@X509v3?5Any?5Policy?$AA@ 10098360     libeay32:obj_dat.obj
 0002:00010374       ??_C@_0P@MEGGINDP@policyMappings?$AA@ 10098374     libeay32:obj_dat.obj
 0002:00010384       ??_C@_0BH@NJBPACCN@X509v3?5Policy?5Mappings?$AA@ 10098384     libeay32:obj_dat.obj
 0002:0001039c       ??_C@_0BB@CFCCDKGF@inhibitAnyPolicy?$AA@ 1009839c     libeay32:obj_dat.obj
 0002:000103b0       ??_C@_0BK@FPAAFIAO@X509v3?5Inhibit?5Any?5Policy?$AA@ 100983b0     libeay32:obj_dat.obj
 0002:000103cc       ??_C@_0O@BLJEJBFH@Oakley?9EC2N?93?$AA@ 100983cc     libeay32:obj_dat.obj
 0002:000103dc       ??_C@_06HLOPKJBB@ipsec3?$AA@ 100983dc     libeay32:obj_dat.obj
 0002:000103e4       ??_C@_0O@FENFAHJA@Oakley?9EC2N?94?$AA@ 100983e4     libeay32:obj_dat.obj
 0002:000103f4       ??_C@_06DEKODPNG@ipsec4?$AA@ 100983f4     libeay32:obj_dat.obj
 0002:000103fc       ??_C@_0BB@HAKAAAMD@CAMELLIA?9128?9CBC?$AA@ 100983fc     libeay32:obj_dat.obj
 0002:00010410       ??_C@_0BB@GDOINOHE@camellia?9128?9cbc?$AA@ 10098410     libeay32:obj_dat.obj
 0002:00010424       ??_C@_0BB@NDDMHHFP@CAMELLIA?9192?9CBC?$AA@ 10098424     libeay32:obj_dat.obj
 0002:00010438       ??_C@_0BB@MAHEKJOI@camellia?9192?9cbc?$AA@ 10098438     libeay32:obj_dat.obj
 0002:0001044c       ??_C@_0BB@BICFINO@CAMELLIA?9256?9CBC?$AA@ 1009844c     libeay32:obj_dat.obj
 0002:00010460       ??_C@_0BB@BCMKIGGJ@camellia?9256?9cbc?$AA@ 10098460     libeay32:obj_dat.obj
 0002:00010474       ??_C@_0BB@ENBCAEGJ@CAMELLIA?9128?9ECB?$AA@ 10098474     libeay32:obj_dat.obj
 0002:00010488       ??_C@_0BB@FOFKNKNO@camellia?9128?9ecb?$AA@ 10098488     libeay32:obj_dat.obj
 0002:0001049c       ??_C@_0BB@OOIOHDPF@CAMELLIA?9192?9ECB?$AA@ 1009849c     libeay32:obj_dat.obj
 0002:000104b0       ??_C@_0BB@PNMGKNEC@camellia?9192?9ecb?$AA@ 100984b0     libeay32:obj_dat.obj
 0002:000104c4       ??_C@_0BB@DMDAFMHE@CAMELLIA?9256?9ECB?$AA@ 100984c4     libeay32:obj_dat.obj
 0002:000104d8       ??_C@_0BB@CPHIICMD@camellia?9256?9ecb?$AA@ 100984d8     libeay32:obj_dat.obj
 0002:000104ec       ??_C@_0BB@GOLCJJFO@CAMELLIA?9128?9CFB?$AA@ 100984ec     libeay32:obj_dat.obj
 0002:00010500       ??_C@_0BB@HNPKEHOJ@camellia?9128?9cfb?$AA@ 10098500     libeay32:obj_dat.obj
 0002:00010514       ??_C@_0BB@MNCOOOMC@CAMELLIA?9192?9CFB?$AA@ 10098514     libeay32:obj_dat.obj
 0002:00010528       ??_C@_0BB@NOGGDAHF@camellia?9192?9cfb?$AA@ 10098528     libeay32:obj_dat.obj
 0002:0001053c       ??_C@_0BB@BPJAMBED@CAMELLIA?9256?9CFB?$AA@ 1009853c     libeay32:obj_dat.obj
 0002:00010550       ??_C@_0BB@MNIBPPE@camellia?9256?9cfb?$AA@ 10098550     libeay32:obj_dat.obj
 0002:00010564       ??_C@_0BC@EKOAMJNI@CAMELLIA?9128?9CFB1?$AA@ 10098564     libeay32:obj_dat.obj
 0002:00010578       ??_C@_0BC@BPPGKHCJ@camellia?9128?9cfb1?$AA@ 10098578     libeay32:obj_dat.obj
 0002:0001058c       ??_C@_0BC@LDPKIKMA@CAMELLIA?9192?9CFB1?$AA@ 1009858c     libeay32:obj_dat.obj
 0002:000105a0       ??_C@_0BC@OGOMOEDB@camellia?9192?9cfb1?$AA@ 100985a0     libeay32:obj_dat.obj
 0002:000105b4       ??_C@_0BC@CJJHIHFJ@CAMELLIA?9256?9CFB1?$AA@ 100985b4     libeay32:obj_dat.obj
 0002:000105c8       ??_C@_0BC@HMIBOJKI@camellia?9256?9cfb1?$AA@ 100985c8     libeay32:obj_dat.obj
 0002:000105dc       ??_C@_0BC@JLCCHCJB@CAMELLIA?9128?9CFB8?$AA@ 100985dc     libeay32:obj_dat.obj
 0002:000105f0       ??_C@_0BC@MODEBMGA@camellia?9128?9cfb8?$AA@ 100985f0     libeay32:obj_dat.obj
 0002:00010604       ??_C@_0BC@GCDIDBIJ@CAMELLIA?9192?9CFB8?$AA@ 10098604     libeay32:obj_dat.obj
 0002:00010618       ??_C@_0BC@DHCOFPHI@camellia?9192?9cfb8?$AA@ 10098618     libeay32:obj_dat.obj
 0002:0001062c       ??_C@_0BC@PIFFDMBA@CAMELLIA?9256?9CFB8?$AA@ 1009862c     libeay32:obj_dat.obj
 0002:00010640       ??_C@_0BC@KNEDFCOB@camellia?9256?9cfb8?$AA@ 10098640     libeay32:obj_dat.obj
 0002:00010654       ??_C@_0BB@CEGECGOG@CAMELLIA?9128?9OFB?$AA@ 10098654     libeay32:obj_dat.obj
 0002:00010668       ??_C@_0BB@DHCMPIFB@camellia?9128?9ofb?$AA@ 10098668     libeay32:obj_dat.obj
 0002:0001067c       ??_C@_0BB@IHPIFBHK@CAMELLIA?9192?9OFB?$AA@ 1009867c     libeay32:obj_dat.obj
 0002:00010690       ??_C@_0BB@JELAIPMN@camellia?9192?9ofb?$AA@ 10098690     libeay32:obj_dat.obj
 0002:000106a4       ??_C@_0BB@FFEGHOPL@CAMELLIA?9256?9OFB?$AA@ 100986a4     libeay32:obj_dat.obj
 0002:000106b8       ??_C@_0BB@EGAOKAEM@camellia?9256?9ofb?$AA@ 100986b8     libeay32:obj_dat.obj
 0002:000106cc       ??_C@_05DBLJEJPC@UNDEF?$AA@ 100986cc     libeay32:obj_dat.obj
 0002:000106d4       ??_C@_0BL@GAJEKNCJ@subjectDirectoryAttributes?$AA@ 100986d4     libeay32:obj_dat.obj
 0002:000106f0       ??_C@_09MLGAJAED@undefined?$AA@ 100986f0     libeay32:obj_dat.obj
 0002:000106fc       ??_C@_0CE@OGGDDHCK@X509v3?5Subject?5Directory?5Attribu@ 100986fc     libeay32:obj_dat.obj
 0002:00010720       ??_C@_06GGEMKGKC@rsadsi?$AA@ 10098720     libeay32:obj_dat.obj
 0002:00010728       ??_C@_0BJ@OAOPOBMH@issuingDistributionPoint?$AA@ 10098728     libeay32:obj_dat.obj
 0002:00010744       ??_C@_0BI@MPBNCOIB@RSA?5Data?5Security?0?5Inc?4?$AA@ 10098744     libeay32:obj_dat.obj
 0002:0001075c       ??_C@_0CC@MMIACGNM@X509v3?5Issuing?5Distrubution?5Poin@ 1009875c     libeay32:obj_dat.obj
 0002:00010780       ??_C@_04GCKLMHGD@pkcs?$AA@ 10098780     libeay32:obj_dat.obj
 0002:00010788       ??_C@_0BC@NAJGKAHO@certificateIssuer?$AA@ 10098788     libeay32:obj_dat.obj
 0002:0001079c       ??_C@_0BN@EBHJCEC@RSA?5Data?5Security?0?5Inc?4?5PKCS?$AA@ 1009879c     libeay32:obj_dat.obj
 0002:000107bc       ??_C@_0BK@EMNEMCDI@X509v3?5Certificate?5Issuer?$AA@ 100987bc     libeay32:obj_dat.obj
 0002:000107d8       ??_C@_03CNCGNBGO@MD2?$AA@  100987d8     libeay32:obj_dat.obj
 0002:000107dc       ??_C@_04HHHKJIKA@KISA?$AA@ 100987dc     libeay32:obj_dat.obj
 0002:000107e4       ??_C@_03LFFJDILA@md2?$AA@  100987e4     libeay32:obj_dat.obj
 0002:000107e8       ??_C@_04LLEAHKNI@kisa?$AA@ 100987e8     libeay32:obj_dat.obj
 0002:000107f0       ??_C@_03GCGHEHKJ@MD5?$AA@  100987f0     libeay32:obj_dat.obj
 0002:000107f4       ??_C@_08JEKGBFGL@SEED?9ECB?$AA@ 100987f4     libeay32:obj_dat.obj
 0002:00010800       ??_C@_03PKBIKOHH@md5?$AA@  10098800     libeay32:obj_dat.obj
 0002:00010804       ??_C@_08CKMLAEEI@seed?9ecb?$AA@ 10098804     libeay32:obj_dat.obj
 0002:00010810       ??_C@_03HGEJCHKE@RC4?$AA@  10098810     libeay32:obj_dat.obj
 0002:00010814       ??_C@_08KJBEBBMB@SEED?9CBC?$AA@ 10098814     libeay32:obj_dat.obj
 0002:00010820       ??_C@_03OODGMOHK@rc4?$AA@  10098820     libeay32:obj_dat.obj
 0002:00010824       ??_C@_0BL@BPKKLIHO@?4?2crypto?2objects?2obj_dat?4c?$AA@ 10098824     libeay32:obj_dat.obj
 0002:00010840       ??_C@_04MDEFHJHM@?4?$CFlu?$AA@ 10098840     libeay32:obj_dat.obj
 0002:00010848       ??_C@_0BG@KPFPNIIP@?4?2crypto?2bn?2bn_recp?4c?$AA@ 10098848     libeay32:bn_recp.obj
 0002:00010860       ??_C@_0N@JJPEKNFO@ADVAPI32?4DLL?$AA@ 10098860     libeay32:rand_win.obj
 0002:00010870       ??_C@_0N@NHGLKGEC@KERNEL32?4DLL?$AA@ 10098870     libeay32:rand_win.obj
 0002:00010880       ??_C@_0N@HNENINMF@NETAPI32?4DLL?$AA@ 10098880     libeay32:rand_win.obj
 0002:00010890       ??_C@_0BB@NIBHPBJM@NetStatisticsGet?$AA@ 10098890     libeay32:rand_win.obj
 0002:000108a4       ??_C@_0BB@EODNGDFL@NetApiBufferFree?$AA@ 100988a4     libeay32:rand_win.obj
 0002:000108b8       ??_C@_1CE@MINGJEKI@?$AAL?$AAa?$AAn?$AAm?$AAa?$AAn?$AAW?$AAo?$AAr?$AAk?$AAs?$AAt?$AAa?$AAt?$AAi?$AAo?$AAn?$AA?$AA@ 100988b8     libeay32:rand_win.obj
 0002:000108dc       ??_C@_1BK@FJCAAMNP@?$AAL?$AAa?$AAn?$AAm?$AAa?$AAn?$AAS?$AAe?$AAr?$AAv?$AAe?$AAr?$AA?$AA@ 100988dc     libeay32:rand_win.obj
 0002:000108f8       ??_C@_0BF@JHHBLAOM@CryptAcquireContextW?$AA@ 100988f8     libeay32:rand_win.obj
 0002:00010910       ??_C@_0P@HGPEDCEI@CryptGenRandom?$AA@ 10098910     libeay32:rand_win.obj
 0002:00010920       ??_C@_0BE@FBIJLPPP@CryptReleaseContext?$AA@ 10098920     libeay32:rand_win.obj
 0002:00010938       ??_C@_1FM@ELACHIDN@?$AAI?$AAn?$AAt?$AAe?$AAl?$AA?5?$AAH?$AAa?$AAr?$AAd?$AAw?$AAa?$AAr?$AAe?$AA?5?$AAC?$AAr?$AAy?$AAp?$AAt?$AAo?$AAg?$AAr?$AAa?$AAp?$AAh?$AAi?$AAc?$AA?5?$AAS?$AAe?$AAr@ 10098938     libeay32:rand_win.obj
 0002:00010994       ??_C@_0L@NDEGIDAG@USER32?4DLL?$AA@ 10098994     libeay32:rand_win.obj
 0002:000109a0       ??_C@_0BE@IIKKNMMA@GetForegroundWindow?$AA@ 100989a0     libeay32:rand_win.obj
 0002:000109b4       ??_C@_0O@IGNBKOOJ@GetCursorInfo?$AA@ 100989b4     libeay32:rand_win.obj
 0002:000109c4       ??_C@_0P@KCBGCFMP@GetQueueStatus?$AA@ 100989c4     libeay32:rand_win.obj
 0002:000109d4       ??_C@_0BJ@JEFKDHMD@CreateToolhelp32Snapshot?$AA@ 100989d4     libeay32:rand_win.obj
 0002:000109f0       ??_C@_0BI@GJJDGJIM@CloseToolhelp32Snapshot?$AA@ 100989f0     libeay32:rand_win.obj
 0002:00010a08       ??_C@_0M@PIAPHADL@Heap32First?$AA@ 10098a08     libeay32:rand_win.obj
 0002:00010a14       ??_C@_0L@CMGAAJA@Heap32Next?$AA@ 10098a14     libeay32:rand_win.obj
 0002:00010a20       ??_C@_0BA@FIEIGOLO@Heap32ListFirst?$AA@ 10098a20     libeay32:rand_win.obj
 0002:00010a30       ??_C@_0P@EPDKPNHA@Heap32ListNext?$AA@ 10098a30     libeay32:rand_win.obj
 0002:00010a40       ??_C@_0P@ILGHDLOE@Process32First?$AA@ 10098a40     libeay32:rand_win.obj
 0002:00010a50       ??_C@_0O@LGJLFMBH@Process32Next?$AA@ 10098a50     libeay32:rand_win.obj
 0002:00010a60       ??_C@_0O@DHAEEPDO@Thread32First?$AA@ 10098a60     libeay32:rand_win.obj
 0002:00010a70       ??_C@_0N@LDGMJMKG@Thread32Next?$AA@ 10098a70     libeay32:rand_win.obj
 0002:00010a80       ??_C@_0O@CNMFJJGO@Module32First?$AA@ 10098a80     libeay32:rand_win.obj
 0002:00010a90       ??_C@_0N@KIGOLBLC@Module32Next?$AA@ 10098a90     libeay32:rand_win.obj
 0002:00010aa0       __real@4000000000000000    10098aa0     libeay32:rand_win.obj
 0002:00010aa8       __real@4008000000000000    10098aa8     libeay32:rand_win.obj
 0002:00010ab0       __real@4014000000000000    10098ab0     libeay32:rand_win.obj
 0002:00010ab8       __real@4018000000000000    10098ab8     libeay32:rand_win.obj
 0002:00010ac0       __real@4022000000000000    10098ac0     libeay32:rand_win.obj
 0002:00010ac8       __real@4031000000000000    10098ac8     libeay32:rand_win.obj
 0002:00010ad0       __real@4046800000000000    10098ad0     libeay32:rand_win.obj
 0002:00010ad8       __real@4050000000000000    10098ad8     libeay32:rand_win.obj
 0002:00010ae0       ??_C@_0BG@COGMIJJG@?4?2crypto?2evp?2digest?4c?$AA@ 10098ae0     libeay32:digest.obj
 0002:00010af8       ??_C@_0CI@KPJFNDOF@ctx?9?$DOdigest?9?$DOmd_size?5?$DM?$DN?5EVP_MAX_@ 10098af8     libeay32:digest.obj
 0002:00010cac       ??_C@_0BD@LHHAEAAJ@l?5?$DM?$DN?5sizeof?$CIc?9?$DOiv?$CJ?$AA@ 10098cac     libeay32:evp_lib.obj
 0002:00010cc0       ??_C@_0BH@HCDEFMEH@?4?2crypto?2evp?2evp_lib?4c?$AA@ 10098cc0     libeay32:evp_lib.obj
 0002:00010cd8       ??_C@_0BD@CKKMELBK@j?5?$DM?$DN?5sizeof?$CIc?9?$DOiv?$CJ?$AA@ 10098cd8     libeay32:evp_lib.obj
 0002:00010cec       ??_C@_02DKCKIIND@?$CFs?$AA@ 10098cec     libeay32:eng_ctrl.obj
 0002:00010cf0       ??_C@_0BM@GEGIPMD@?4?2crypto?2engine?2tb_pkmeth?4c?$AA@ 10098cf0     libeay32:tb_pkmeth.obj
 0002:00010d0c       ??_C@_0BM@MPBIGLJP@?4?2crypto?2engine?2tb_asnmth?4c?$AA@ 10098d0c     libeay32:tb_asnmth.obj
 0002:00010d28       ??_C@_0BJ@GIEGEKPM@?4?2crypto?2asn1?2a_object?4c?$AA@ 10098d28     libeay32:a_object.obj
 0002:00010d44       ??_C@_09OJNEAJGG@?$DMINVALID?$DO?$AA@ 10098d44     libeay32:a_object.obj
 0002:00010d50       _ASN1_version              10098d50     libeay32:asn1_lib.obj
 0002:00010d7c       ??_C@_0BJ@BDGDICBL@?4?2crypto?2asn1?2asn1_lib?4c?$AA@ 10098d7c     libeay32:asn1_lib.obj
 0002:00010d98       ??_C@_02DPKJAMEF@?$CFd?$AA@ 10098d98     libeay32:asn1_lib.obj
 0002:00010d9c       ??_C@_0BL@LGPLHJJB@?4?2crypto?2objects?2obj_lib?4c?$AA@ 10098d9c     libeay32:obj_lib.obj
 0002:00010db8       ??_C@_0BJ@FODFHGMI@?4?2crypto?2evp?2pmeth_lib?4c?$AA@ 10098db8     libeay32:pmeth_lib.obj
 0002:00010dd4       ??_C@_06IJPNAHC@digest?$AA@ 10098dd4     libeay32:pmeth_lib.obj
 0002:00010ddc       ??_C@_0BM@LJNAPALK@?4?2crypto?2engine?2tb_digest?4c?$AA@ 10098ddc     libeay32:tb_digest.obj
 0002:00010df8       ??_C@_0BI@PEDEDAKL@?4?2crypto?2rsa?2rsa_sign?4c?$AA@ 10098df8     libeay32:rsa_sign.obj
 0002:00010e10       _SHA1_version              10098e10     libeay32:sha1dgst.obj
 0002:00010e40       _SHA256_version            10098e40     libeay32:sha256.obj
 0002:000111f0       _SHA512_version            100991f0     libeay32:sha512.obj
 0002:0001121c       ??_C@_0BJ@IFLEADKK@?4?2crypto?2asn1?2evp_asn1?4c?$AA@ 1009921c     libeay32:evp_asn1.obj
 0002:00011238       _rsa_pkey_meth             10099238     libeay32:rsa_pmeth.obj
 0002:000112a4       ??_C@_0BJ@NEEFGCJO@?4?2crypto?2rsa?2rsa_pmeth?4c?$AA@ 100992a4     libeay32:rsa_pmeth.obj
 0002:000112c0       ??_C@_0BB@BILFEOKG@rsa_padding_mode?$AA@ 100992c0     libeay32:rsa_pmeth.obj
 0002:000112d4       ??_C@_06PDLHKEJK@sslv23?$AA@ 100992d4     libeay32:rsa_pmeth.obj
 0002:000112dc       ??_C@_04CGFJFPFD@none?$AA@ 100992dc     libeay32:rsa_pmeth.obj
 0002:000112e4       ??_C@_04EIGNDHKO@oeap?$AA@ 100992e4     libeay32:rsa_pmeth.obj
 0002:000112ec       ??_C@_04MAAGAICF@oaep?$AA@ 100992ec     libeay32:rsa_pmeth.obj
 0002:000112f4       ??_C@_04JNCMEILM@x931?$AA@ 100992f4     libeay32:rsa_pmeth.obj
 0002:000112fc       ??_C@_0BA@CIHMEEHB@rsa_pss_saltlen?$AA@ 100992fc     libeay32:rsa_pmeth.obj
 0002:0001130c       ??_C@_0BA@GFPKPLAF@rsa_keygen_bits?$AA@ 1009930c     libeay32:rsa_pmeth.obj
 0002:0001131c       ??_C@_0BC@DMECNPFD@rsa_keygen_pubexp?$AA@ 1009931c     libeay32:rsa_pmeth.obj
 0002:00011330       ??_C@_0M@CNLGKALE@rsa_mgf1_md?$AA@ 10099330     libeay32:rsa_pmeth.obj
 0002:0001133c       ??_C@_0M@OPEEJBKE@rsa_oaep_md?$AA@ 1009933c     libeay32:rsa_pmeth.obj
 0002:00011348       ??_C@_0P@NCFNIFLM@rsa_oaep_label?$AA@ 10099348     libeay32:rsa_pmeth.obj
 0002:00011358       _dh_pkey_meth              10099358     libeay32:dh_pmeth.obj
 0002:000113c8       _dhx_pkey_meth             100993c8     libeay32:dh_pmeth.obj
 0002:00011434       ??_C@_0BH@BKNKMCNH@?4?2crypto?2dh?2dh_pmeth?4c?$AA@ 10099434     libeay32:dh_pmeth.obj
 0002:0001144c       ??_C@_0BG@LEMCDPBI@dh_paramgen_prime_len?$AA@ 1009944c     libeay32:dh_pmeth.obj
 0002:00011464       ??_C@_0L@CMAICHCO@dh_rfc5114?$AA@ 10099464     libeay32:dh_pmeth.obj
 0002:00011470       ??_C@_0BG@POLEFOHA@dh_paramgen_generator?$AA@ 10099470     libeay32:dh_pmeth.obj
 0002:00011488       ??_C@_0BJ@HCAFJLBI@dh_paramgen_subprime_len?$AA@ 10099488     libeay32:dh_pmeth.obj
 0002:000114a4       ??_C@_0BB@DCMALDKK@dh_paramgen_type?$AA@ 100994a4     libeay32:dh_pmeth.obj
 0002:000114b8       _dsa_pkey_meth             100994b8     libeay32:dsa_pmeth.obj
 0002:00011524       ??_C@_0BJ@ICNGHNPI@?4?2crypto?2dsa?2dsa_pmeth?4c?$AA@ 10099524     libeay32:dsa_pmeth.obj
 0002:00011540       ??_C@_0BC@DOMHFBFC@dsa_paramgen_bits?$AA@ 10099540     libeay32:dsa_pmeth.obj
 0002:00011554       ??_C@_0BE@JHBKDNPA@dsa_paramgen_q_bits?$AA@ 10099554     libeay32:dsa_pmeth.obj
 0002:00011568       ??_C@_0BA@HDLNDIMK@dsa_paramgen_md?$AA@ 10099568     libeay32:dsa_pmeth.obj
 0002:00011578       _ec_pkey_meth              10099578     libeay32:ec_pmeth.obj
 0002:000115e4       ??_C@_0BH@FJHCLIDF@?4?2crypto?2ec?2ec_pmeth?4c?$AA@ 100995e4     libeay32:ec_pmeth.obj
 0002:000115fc       ??_C@_0BC@BLCJLNNM@ec_paramgen_curve?$AA@ 100995fc     libeay32:ec_pmeth.obj
 0002:00011610       ??_C@_0N@CHHABLAI@ec_param_enc?$AA@ 10099610     libeay32:ec_pmeth.obj
 0002:00011620       ??_C@_08FCANLLBJ@explicit?$AA@ 10099620     libeay32:ec_pmeth.obj
 0002:0001162c       ??_C@_0M@FBFAECBG@named_curve?$AA@ 1009962c     libeay32:ec_pmeth.obj
 0002:00011638       ??_C@_0M@JAAKIKPH@ecdh_kdf_md?$AA@ 10099638     libeay32:ec_pmeth.obj
 0002:00011644       ??_C@_0BD@CPNABICB@ecdh_cofactor_mode?$AA@ 10099644     libeay32:ec_pmeth.obj
 0002:00011658       _hmac_pkey_meth            10099658     libeay32:hm_pmeth.obj
 0002:000116c4       ??_C@_0BJ@CJCCPCOL@?4?2crypto?2hmac?2hm_pmeth?4c?$AA@ 100996c4     libeay32:hm_pmeth.obj
 0002:000116e0       ??_C@_03ICHNJLJF@key?$AA@  100996e0     libeay32:hm_pmeth.obj
 0002:000116e4       ??_C@_06BHJHKMJC@hexkey?$AA@ 100996e4     libeay32:hm_pmeth.obj
 0002:000116f0       _cmac_pkey_meth            100996f0     libeay32:cm_pmeth.obj
 0002:0001175c       ??_C@_06KDGDAFPH@cipher?$AA@ 1009975c     libeay32:cm_pmeth.obj
 0002:00011764       ??_C@_0BF@FMBDDPDA@?4?2crypto?2evp?2p_lib?4c?$AA@ 10099764     libeay32:p_lib.obj
 0002:000117c0       ??_C@_05CJCEEADM@algor?$AA@ 100997c0     libeay32:x_sig.obj
 0002:000117c8       ??_C@_08DFMPDBMK@X509_SIG?$AA@ 100997c8     libeay32:x_sig.obj
 0002:00011af0       ??_C@_0BF@MPJFOIHC@ASN1_GENERALIZEDTIME?$AA@ 10099af0     libeay32:tasn_typ.obj
 0002:00011b08       ??_C@_0BD@HMMCNBGD@ASN1_VISIBLESTRING?$AA@ 10099b08     libeay32:tasn_typ.obj
 0002:00011b1c       ??_C@_0BF@DMDDFBNJ@ASN1_UNIVERSALSTRING?$AA@ 10099b1c     libeay32:tasn_typ.obj
 0002:00011b34       ??_C@_0P@CHICPHIN@ASN1_BMPSTRING?$AA@ 10099b34     libeay32:tasn_typ.obj
 0002:00011b44       ??_C@_08FIDCPDIJ@ASN1_ANY?$AA@ 10099b44     libeay32:tasn_typ.obj
 0002:00011b50       ??_C@_0O@NJFCFMGE@ASN1_SEQUENCE?$AA@ 10099b50     libeay32:tasn_typ.obj
 0002:00011b60       ??_C@_0P@NDKOCAEJ@ASN1_PRINTABLE?$AA@ 10099b60     libeay32:tasn_typ.obj
 0002:00011b70       ??_C@_0M@FANFDIEE@DISPLAYTEXT?$AA@ 10099b70     libeay32:tasn_typ.obj
 0002:00011b7c       ??_C@_0BA@CBHCBCAE@DIRECTORYSTRING?$AA@ 10099b7c     libeay32:tasn_typ.obj
 0002:00011b8c       ??_C@_0N@HMAPMMGF@ASN1_BOOLEAN?$AA@ 10099b8c     libeay32:tasn_typ.obj
 0002:00011b9c       ??_C@_0O@BIDLBGAP@ASN1_TBOOLEAN?$AA@ 10099b9c     libeay32:tasn_typ.obj
 0002:00011bac       ??_C@_0O@JKANHMPI@ASN1_FBOOLEAN?$AA@ 10099bac     libeay32:tasn_typ.obj
 0002:00011bbc       ??_C@_0BH@HEBAELGA@ASN1_OCTET_STRING_NDEF?$AA@ 10099bbc     libeay32:tasn_typ.obj
 0002:00011bd4       ??_C@_0BC@COPGMDLD@ASN1_SEQUENCE_ANY?$AA@ 10099bd4     libeay32:tasn_typ.obj
 0002:00011be8       ??_C@_0N@KHICOJGI@ASN1_SET_ANY?$AA@ 10099be8     libeay32:tasn_typ.obj
 0002:00011bf8       ??_C@_0N@KIGEHGKE@ASN1_INTEGER?$AA@ 10099bf8     libeay32:tasn_typ.obj
 0002:00011c08       ??_C@_0BA@CLGIIAJD@ASN1_ENUMERATED?$AA@ 10099c08     libeay32:tasn_typ.obj
 0002:00011c18       ??_C@_0BA@LJHGDIKH@ASN1_BIT_STRING?$AA@ 10099c18     libeay32:tasn_typ.obj
 0002:00011c28       ??_C@_0BC@PEBEKNCO@ASN1_OCTET_STRING?$AA@ 10099c28     libeay32:tasn_typ.obj
 0002:00011c3c       ??_C@_09NHFFCPKK@ASN1_NULL?$AA@ 10099c3c     libeay32:tasn_typ.obj
 0002:00011c48       ??_C@_0M@BJNOJGBL@ASN1_OBJECT?$AA@ 10099c48     libeay32:tasn_typ.obj
 0002:00011c54       ??_C@_0BA@LEPDCAOC@ASN1_UTF8STRING?$AA@ 10099c54     libeay32:tasn_typ.obj
 0002:00011c64       ??_C@_0BF@CPDMNKCA@ASN1_PRINTABLESTRING?$AA@ 10099c64     libeay32:tasn_typ.obj
 0002:00011c7c       ??_C@_0P@GDIFPLAP@ASN1_T61STRING?$AA@ 10099c7c     libeay32:tasn_typ.obj
 0002:00011c8c       ??_C@_0P@KBFNFBLB@ASN1_IA5STRING?$AA@ 10099c8c     libeay32:tasn_typ.obj
 0002:00011c9c       ??_C@_0BD@EMMGLGMD@ASN1_GENERALSTRING?$AA@ 10099c9c     libeay32:tasn_typ.obj
 0002:00011cb0       ??_C@_0N@OIMCLPEM@ASN1_UTCTIME?$AA@ 10099cb0     libeay32:tasn_typ.obj
 0002:00011cc0       ??_C@_0BG@JMNNPFBP@?4?2crypto?2asn1?2a_int?4c?$AA@ 10099cc0     libeay32:a_int.obj
 0002:00011cd8       _rsa_asn1_meths            10099cd8     libeay32:rsa_ameth.obj
 0002:00011db0       ??_C@_0BD@MHOEKPBI@OpenSSL?5RSA?5method?$AA@ 10099db0     libeay32:rsa_ameth.obj
 0002:00011dc4       ??_C@_0BJ@GEFEFDCL@?4?2crypto?2rsa?2rsa_ameth?4c?$AA@ 10099dc4     libeay32:rsa_ameth.obj
 0002:00011de0       ??_C@_0BH@JHLDJION@Private?9Key?3?5?$CI?$CFd?5bit?$CJ?6?$AA@ 10099de0     libeay32:rsa_ameth.obj
 0002:00011df8       ??_C@_08OKDKAJKD@modulus?3?$AA@ 10099df8     libeay32:rsa_ameth.obj
 0002:00011e04       ??_C@_0BA@FAAMOFHC@publicExponent?3?$AA@ 10099e04     libeay32:rsa_ameth.obj
 0002:00011e14       ??_C@_0BG@HAJOCCOP@Public?9Key?3?5?$CI?$CFd?5bit?$CJ?6?$AA@ 10099e14     libeay32:rsa_ameth.obj
 0002:00011e2c       ??_C@_08GIMLILAA@Modulus?3?$AA@ 10099e2c     libeay32:rsa_ameth.obj
 0002:00011e38       ??_C@_09DALHJPOO@Exponent?3?$AA@ 10099e38     libeay32:rsa_ameth.obj
 0002:00011e44       ??_C@_0BB@NFOLHHHJ@privateExponent?3?$AA@ 10099e44     libeay32:rsa_ameth.obj
 0002:00011e58       ??_C@_07PNLMLIF@prime1?3?$AA@ 10099e58     libeay32:rsa_ameth.obj
 0002:00011e60       ??_C@_07NJNHFNM@prime2?3?$AA@ 10099e60     libeay32:rsa_ameth.obj
 0002:00011e68       ??_C@_0L@OIOCMGKP@exponent1?3?$AA@ 10099e68     libeay32:rsa_ameth.obj
 0002:00011e74       ??_C@_0L@OKKEHIPG@exponent2?3?$AA@ 10099e74     libeay32:rsa_ameth.obj
 0002:00011e80       ??_C@_0N@GNAMJPHF@coefficient?3?$AA@ 10099e80     libeay32:rsa_ameth.obj
 0002:00011e90       ??_C@_0BL@KMBKPBGM@?5?$CIINVALID?5PSS?5PARAMETERS?$CJ?6?$AA@ 10099e90     libeay32:rsa_ameth.obj
 0002:00011eac       ??_C@_01EEMJAFIK@?6?$AA@   10099eac     libeay32:rsa_ameth.obj
 0002:00011eb0       ??_C@_0BB@PMMDHLKH@Hash?5Algorithm?3?5?$AA@ 10099eb0     libeay32:rsa_ameth.obj
 0002:00011ec4       ??_C@_0P@ODEAMLKF@sha1?5?$CIdefault?$CJ?$AA@ 10099ec4     libeay32:rsa_ameth.obj
 0002:00011ed4       ??_C@_0BB@HEAMLCPA@Mask?5Algorithm?3?5?$AA@ 10099ed4     libeay32:rsa_ameth.obj
 0002:00011ee8       ??_C@_06BIDGLIKJ@?5with?5?$AA@ 10099ee8     libeay32:rsa_ameth.obj
 0002:00011ef0       ??_C@_07DNODLGKM@INVALID?$AA@ 10099ef0     libeay32:rsa_ameth.obj
 0002:00011ef8       ??_C@_0BJ@NNFOENLD@mgf1?5with?5sha1?5?$CIdefault?$CJ?$AA@ 10099ef8     libeay32:rsa_ameth.obj
 0002:00011f14       ??_C@_0BA@BMPJFCCJ@Salt?5Length?3?50x?$AA@ 10099f14     libeay32:rsa_ameth.obj
 0002:00011f24       ??_C@_0N@CGLOPGL@14?5?$CIdefault?$CJ?$AA@ 10099f24     libeay32:rsa_ameth.obj
 0002:00011f34       ??_C@_0BC@EDKEKAHK@Trailer?5Field?3?50x?$AA@ 10099f34     libeay32:rsa_ameth.obj
 0002:00011f48       ??_C@_0N@FFIHJHFK@BC?5?$CIdefault?$CJ?$AA@ 10099f48     libeay32:rsa_ameth.obj
 0002:00011f58       _dsa_asn1_meths            10099f58     libeay32:dsa_ameth.obj
 0002:00012174       ??_C@_0BD@IBKHKBJA@OpenSSL?5DSA?5method?$AA@ 1009a174     libeay32:dsa_ameth.obj
 0002:00012188       ??_C@_0BJ@DCMHEMEN@?4?2crypto?2dsa?2dsa_ameth?4c?$AA@ 1009a188     libeay32:dsa_ameth.obj
 0002:000121a4       ??_C@_0M@CJKOCIEC@Private?9Key?$AA@ 1009a1a4     libeay32:dsa_ameth.obj
 0002:000121b0       ??_C@_0L@FMJMEKAC@Public?9Key?$AA@ 1009a1b0     libeay32:dsa_ameth.obj
 0002:000121bc       ??_C@_0P@LAFOADJN@DSA?9Parameters?$AA@ 1009a1bc     libeay32:dsa_ameth.obj
 0002:000121cc       ??_C@_0O@OPPPNLCD@?$CFs?3?5?$CI?$CFd?5bit?$CJ?6?$AA@ 1009a1cc     libeay32:dsa_ameth.obj
 0002:000121dc       ??_C@_05PFPGJCCA@priv?3?$AA@ 1009a1dc     libeay32:dsa_ameth.obj
 0002:000121e4       ??_C@_05FJHKEHEO@pub?3?5?$AA@ 1009a1e4     libeay32:dsa_ameth.obj
 0002:000121ec       ??_C@_05KENJDLPA@P?3?5?5?5?$AA@ 1009a1ec     libeay32:dsa_ameth.obj
 0002:000121f4       ??_C@_05GPIFOIFF@Q?3?5?5?5?$AA@ 1009a1f4     libeay32:dsa_ameth.obj
 0002:000121fc       ??_C@_05LKAKAJND@G?3?5?5?5?$AA@ 1009a1fc     libeay32:dsa_ameth.obj
 0002:00012204       ??_C@_05OOLNJPMN@r?3?5?5?5?$AA@ 1009a204     libeay32:dsa_ameth.obj
 0002:0001220c       ??_C@_05CFOBEMGI@s?3?5?5?5?$AA@ 1009a20c     libeay32:dsa_ameth.obj
 0002:00012218       _dhx_asn1_meth             1009a218     libeay32:dh_ameth.obj
 0002:00012288       _dh_asn1_meth              1009a288     libeay32:dh_ameth.obj
 0002:000122f4       ??_C@_02EPINMGPM@DH?$AA@   1009a2f4     libeay32:dh_ameth.obj
 0002:000122f8       ??_C@_0BJ@OPGBMMOB@OpenSSL?5PKCS?$CD3?5DH?5method?$AA@ 1009a2f8     libeay32:dh_ameth.obj
 0002:00012314       ??_C@_0BI@JOIJFJMC@OpenSSL?5X9?442?5DH?5method?$AA@ 1009a314     libeay32:dh_ameth.obj
 0002:0001232c       ??_C@_0BH@KKMLPDGC@?4?2crypto?2dh?2dh_ameth?4c?$AA@ 1009a32c     libeay32:dh_ameth.obj
 0002:00012344       ??_C@_0P@ELBFBOG@DH?5Private?9Key?$AA@ 1009a344     libeay32:dh_ameth.obj
 0002:00012354       ??_C@_0O@EBAKGDPN@DH?5Public?9Key?$AA@ 1009a354     libeay32:dh_ameth.obj
 0002:00012364       ??_C@_0O@OMPEPKAJ@DH?5Parameters?$AA@ 1009a364     libeay32:dh_ameth.obj
 0002:00012374       ??_C@_0N@MPONDEBM@private?9key?3?$AA@ 1009a374     libeay32:dh_ameth.obj
 0002:00012384       ??_C@_0M@BCALNHOD@public?9key?3?$AA@ 1009a384     libeay32:dh_ameth.obj
 0002:00012390       ??_C@_06POMKLBDA@prime?3?$AA@ 1009a390     libeay32:dh_ameth.obj
 0002:00012398       ??_C@_0L@HDGHCIJF@generator?3?$AA@ 1009a398     libeay32:dh_ameth.obj
 0002:000123a4       ??_C@_0BA@PFGIPGBD@subgroup?5order?3?$AA@ 1009a3a4     libeay32:dh_ameth.obj
 0002:000123b4       ??_C@_0BB@HEOELHJJ@subgroup?5factor?3?$AA@ 1009a3b4     libeay32:dh_ameth.obj
 0002:000123c8       ??_C@_05PENGGDLK@seed?3?$AA@ 1009a3c8     libeay32:dh_ameth.obj
 0002:000123d0       ??_C@_01JLIPDDHJ@?3?$AA@   1009a3d0     libeay32:dh_ameth.obj
 0002:000123d4       ??_C@_06LEJCPMLM@?$CF02x?$CFs?$AA@ 1009a3d4     libeay32:dh_ameth.obj
 0002:000123dc       ??_C@_08ILALFGPI@counter?3?$AA@ 1009a3dc     libeay32:dh_ameth.obj
 0002:000123e8       ??_C@_0CF@KKPEILHE@recommended?9private?9length?3?5?$CFd?5b@ 1009a3e8     libeay32:dh_ameth.obj
 0002:00012410       _eckey_asn1_meth           1009a410     libeay32:ec_ameth.obj
 0002:0001247c       ??_C@_02KNLLHFAA@EC?$AA@   1009a47c     libeay32:ec_ameth.obj
 0002:00012480       ??_C@_0BF@DKDIFOGG@OpenSSL?5EC?5algorithm?$AA@ 1009a480     libeay32:ec_ameth.obj
 0002:00012498       ??_C@_0BH@OJGDIJIA@?4?2crypto?2ec?2ec_ameth?4c?$AA@ 1009a498     libeay32:ec_ameth.obj
 0002:000124b0       ??_C@_0BB@DMDKLH@ECDSA?9Parameters?$AA@ 1009a4b0     libeay32:ec_ameth.obj
 0002:000124c8       _hmac_asn1_meth            1009a4c8     libeay32:hm_ameth.obj
 0002:00012534       ??_C@_0BE@BABEGANF@OpenSSL?5HMAC?5method?$AA@ 1009a534     libeay32:hm_ameth.obj
 0002:00012548       ??_C@_0BJ@JJDDMDFO@?4?2crypto?2hmac?2hm_ameth?4c?$AA@ 1009a548     libeay32:hm_ameth.obj
 0002:00012568       _cmac_asn1_meth            1009a568     libeay32:cm_ameth.obj
 0002:000125d4       ??_C@_0BE@GBIGMENL@OpenSSL?5CMAC?5method?$AA@ 1009a5d4     libeay32:cm_ameth.obj
 0002:000125e8       ??_C@_0BH@CBMMJEHK@?4?2crypto?2rsa?2rsa_gen?4c?$AA@ 1009a5e8     libeay32:rsa_gen.obj
 0002:00012600       ??_C@_0BI@IKGEHGEF@?4?2crypto?2rsa?2rsa_saos?4c?$AA@ 1009a600     libeay32:rsa_saos.obj
 0002:00012620       ??_C@_0BH@HCMMELDJ@?4?2crypto?2rsa?2rsa_pss?4c?$AA@ 1009a620     libeay32:rsa_pss.obj
 0002:0001264c       ??_C@_0BJ@BDGEMPMC@?4?2crypto?2x509v3?2v3_utl?4c?$AA@ 1009a64c     libeay32:v3_utl.obj
 0002:00012668       ??_C@_04HCDDPBNL@TRUE?$AA@ 1009a668     libeay32:v3_utl.obj
 0002:00012670       ??_C@_05MAJJAKPI@FALSE?$AA@ 1009a670     libeay32:v3_utl.obj
 0002:00012678       ??_C@_04LOAJBDKD@true?$AA@ 1009a678     libeay32:v3_utl.obj
 0002:00012680       ??_C@_01NFFPALBN@Y?$AA@    1009a680     libeay32:v3_utl.obj
 0002:00012684       ??_C@_01EANLCPLP@y?$AA@    1009a684     libeay32:v3_utl.obj
 0002:00012688       ??_C@_03IPHJCBHH@YES?$AA@  1009a688     libeay32:v3_utl.obj
 0002:0001268c       ??_C@_03ICICOMAL@yes?$AA@  1009a68c     libeay32:v3_utl.obj
 0002:00012690       ??_C@_05LAPONLG@false?$AA@ 1009a690     libeay32:v3_utl.obj
 0002:00012698       ??_C@_01NANMIPIL@N?$AA@    1009a698     libeay32:v3_utl.obj
 0002:0001269c       ??_C@_01EFFIKLCJ@n?$AA@    1009a69c     libeay32:v3_utl.obj
 0002:000126a0       ??_C@_02NFLNFON@NO?$AA@    1009a6a0     libeay32:v3_utl.obj
 0002:000126a4       ??_C@_02KAJCLHKP@no?$AA@   1009a6a4     libeay32:v3_utl.obj
 0002:000126a8       ??_C@_07BDICHDDB@?0value?3?$AA@ 1009a6a8     libeay32:v3_utl.obj
 0002:000126b0       ??_C@_06FONLLLNC@?0name?3?$AA@ 1009a6b0     libeay32:v3_utl.obj
 0002:000126b8       ??_C@_08PCLJGJAL@section?3?$AA@ 1009a6b8     libeay32:v3_utl.obj
 0002:000126c4       ??_C@_0M@PCENNPGA@?$CFd?4?$CFd?4?$CFd?4?$CFd?$AA@ 1009a6c4     libeay32:v3_utl.obj
 0002:000126d0       _DH_version                1009a6d0     libeay32:dh_lib.obj
 0002:00012704       ??_C@_0BF@FEOADHJI@?4?2crypto?2dh?2dh_lib?4c?$AA@ 1009a704     libeay32:dh_lib.obj
 0002:0001271c       ??_C@_0BF@LBABJFOC@?4?2crypto?2dh?2dh_gen?4c?$AA@ 1009a71c     libeay32:dh_gen.obj
 0002:00012734       ??_C@_0BC@MGHKLCAP@OpenSSL?5DH?5Method?$AA@ 1009a734     libeay32:dh_key.obj
 0002:00012748       ??_C@_0BF@LANDKLP@?4?2crypto?2dh?2dh_key?4c?$AA@ 1009a748     libeay32:dh_key.obj
 0002:00012d64       _DSA_version               1009ad64     libeay32:dsa_lib.obj
 0002:00012d8c       ??_C@_0BH@HAONLAHF@?4?2crypto?2dsa?2dsa_lib?4c?$AA@ 1009ad8c     libeay32:dsa_lib.obj
 0002:00012da8       ??_C@_0BH@JFAMBCAP@?4?2crypto?2dsa?2dsa_gen?4c?$AA@ 1009ada8     libeay32:dsa_gen.obj
 0002:00013000       ??_C@_01LKDEMHDF@s?$AA@    1009b000     libeay32:dsa_asn1.obj
 0002:00013004       ??_C@_07ECLLFBLJ@DSA_SIG?$AA@ 1009b004     libeay32:dsa_asn1.obj
 0002:0001300c       ??_C@_07CPCPJPKL@version?$AA@ 1009b00c     libeay32:dsa_asn1.obj
 0002:00013014       ??_C@_01JBBJJEPG@p?$AA@    1009b014     libeay32:dsa_asn1.obj
 0002:00013018       ??_C@_01IIACKFLH@q?$AA@    1009b018     libeay32:dsa_asn1.obj
 0002:0001301c       ??_C@_01JEJKBAGA@g?$AA@    1009b01c     libeay32:dsa_asn1.obj
 0002:00013020       ??_C@_07CLGEADLH@pub_key?$AA@ 1009b020     libeay32:dsa_asn1.obj
 0002:00013028       ??_C@_08CCPALKOP@priv_key?$AA@ 1009b028     libeay32:dsa_asn1.obj
 0002:00013034       ??_C@_0BI@BIJNKEAB@?4?2crypto?2dsa?2dsa_asn1?4c?$AA@ 1009b034     libeay32:dsa_asn1.obj
 0002:0001304c       _EC_version                1009b04c     libeay32:ec_lib.obj
 0002:00013074       ??_C@_0BF@KGHFPEKG@?4?2crypto?2ec?2ec_lib?4c?$AA@ 1009b074     libeay32:ec_lib.obj
 0002:000172c8       ??_C@_0CL@JMAEHKDJ@SECG?1WTLS?5curve?5over?5a?5112?5bit?5p@ 1009f2c8     libeay32:ec_curve.obj
 0002:000172f4       ??_C@_0CG@IMPBFOOG@SECG?5curve?5over?5a?5112?5bit?5prime?5@ 1009f2f4     libeay32:ec_curve.obj
 0002:0001731c       ??_C@_0CG@DNCCBNMA@SECG?5curve?5over?5a?5128?5bit?5prime?5@ 1009f31c     libeay32:ec_curve.obj
 0002:00017344       ??_C@_0CG@MDBLLOCO@SECG?5curve?5over?5a?5160?5bit?5prime?5@ 1009f344     libeay32:ec_curve.obj
 0002:0001736c       ??_C@_0CL@NDOOJKPB@SECG?1WTLS?5curve?5over?5a?5160?5bit?5p@ 1009f36c     libeay32:ec_curve.obj
 0002:00017398       ??_C@_0CG@IFFAEDGD@SECG?5curve?5over?5a?5192?5bit?5prime?5@ 1009f398     libeay32:ec_curve.obj
 0002:000173c0       ??_C@_0CG@IOHCCJAA@SECG?5curve?5over?5a?5224?5bit?5prime?5@ 1009f3c0     libeay32:ec_curve.obj
 0002:000173e8       ??_C@_0CL@NHPHHEEB@NIST?1SECG?5curve?5over?5a?5224?5bit?5p@ 1009f3e8     libeay32:ec_curve.obj
 0002:00017414       ??_C@_0CG@MBJIMJMI@SECG?5curve?5over?5a?5256?5bit?5prime?5@ 1009f414     libeay32:ec_curve.obj
 0002:0001743c       ??_C@_0CL@MPIFFEHD@NIST?1SECG?5curve?5over?5a?5384?5bit?5p@ 1009f43c     libeay32:ec_curve.obj
 0002:00017468       ??_C@_0CL@NCEJLDDF@NIST?1SECG?5curve?5over?5a?5521?5bit?5p@ 1009f468     libeay32:ec_curve.obj
 0002:00017494       ??_C@_0DB@HJIMEGJL@NIST?1X9?462?1SECG?5curve?5over?5a?5192@ 1009f494     libeay32:ec_curve.obj
 0002:000174c8       ??_C@_0CH@BHJCBJE@X9?462?5curve?5over?5a?5192?5bit?5prime@ 1009f4c8     libeay32:ec_curve.obj
 0002:000174f0       ??_C@_0CH@COBCAEEE@X9?462?5curve?5over?5a?5239?5bit?5prime@ 1009f4f0     libeay32:ec_curve.obj
 0002:00017518       ??_C@_0CM@IACJENLF@X9?462?1SECG?5curve?5over?5a?5256?5bit?5@ 1009f518     libeay32:ec_curve.obj
 0002:00017544       ??_C@_0CH@OHOOPBHG@SECG?5curve?5over?5a?5113?5bit?5binary@ 1009f544     libeay32:ec_curve.obj
 0002:0001756c       ??_C@_0CM@EPOILLGK@SECG?1WTLS?5curve?5over?5a?5131?5bit?5b@ 1009f56c     libeay32:ec_curve.obj
 0002:00017598       ??_C@_0CH@FJJEIBAL@SECG?5curve?5over?5a?5131?5bit?5binary@ 1009f598     libeay32:ec_curve.obj
 0002:000175c0       ??_C@_0DB@KNLLOMAB@NIST?1SECG?1WTLS?5curve?5over?5a?5163?5@ 1009f5c0     libeay32:ec_curve.obj
 0002:000175f4       ??_C@_0CH@GKKFHOF@SECG?5curve?5over?5a?5163?5bit?5binary@ 1009f5f4     libeay32:ec_curve.obj
 0002:0001761c       ??_C@_0CM@HCIKDLO@NIST?1SECG?5curve?5over?5a?5163?5bit?5b@ 1009f61c     libeay32:ec_curve.obj
 0002:00017648       ??_C@_0CH@HKDFCHME@SECG?5curve?5over?5a?5193?5bit?5binary@ 1009f648     libeay32:ec_curve.obj
 0002:00017670       ??_C@_0DB@PNCPLOPN@NIST?1SECG?1WTLS?5curve?5over?5a?5233?5@ 1009f670     libeay32:ec_curve.obj
 0002:000176a4       ??_C@_0CH@CLCLBOGN@SECG?5curve?5over?5a?5239?5bit?5binary@ 1009f6a4     libeay32:ec_curve.obj
 0002:000176cc       ??_C@_0CM@GFMOGKDK@NIST?1SECG?5curve?5over?5a?5283?5bit?5b@ 1009f6cc     libeay32:ec_curve.obj
 0002:000176f8       ??_C@_0CM@HDDNKCDK@NIST?1SECG?5curve?5over?5a?5409?5bit?5b@ 1009f6f8     libeay32:ec_curve.obj
 0002:00017724       ??_C@_0CM@EACJKLC@NIST?1SECG?5curve?5over?5a?5571?5bit?5b@ 1009f724     libeay32:ec_curve.obj
 0002:00017750       ??_C@_0CI@CFPHBJDI@X9?462?5curve?5over?5a?5163?5bit?5binar@ 1009f750     libeay32:ec_curve.obj
 0002:00017778       ??_C@_0CI@HOBKKPME@X9?462?5curve?5over?5a?5176?5bit?5binar@ 1009f778     libeay32:ec_curve.obj
 0002:000177a0       ??_C@_0CI@CNNMGPOI@X9?462?5curve?5over?5a?5191?5bit?5binar@ 1009f7a0     libeay32:ec_curve.obj
 0002:000177c8       ??_C@_0CI@HADNJNCC@X9?462?5curve?5over?5a?5208?5bit?5binar@ 1009f7c8     libeay32:ec_curve.obj
 0002:000177f0       ??_C@_0CI@IHGFALA@X9?462?5curve?5over?5a?5239?5bit?5binar@ 1009f7f0     libeay32:ec_curve.obj
 0002:00017818       ??_C@_0CI@OMGMCAMF@X9?462?5curve?5over?5a?5272?5bit?5binar@ 1009f818     libeay32:ec_curve.obj
 0002:00017840       ??_C@_0CI@PCOAONL@X9?462?5curve?5over?5a?5304?5bit?5binar@ 1009f840     libeay32:ec_curve.obj
 0002:00017868       ??_C@_0CI@BDIPEOPL@X9?462?5curve?5over?5a?5359?5bit?5binar@ 1009f868     libeay32:ec_curve.obj
 0002:00017890       ??_C@_0CI@GLMEIDGJ@X9?462?5curve?5over?5a?5368?5bit?5binar@ 1009f890     libeay32:ec_curve.obj
 0002:000178b8       ??_C@_0CI@PHOKEIPD@X9?462?5curve?5over?5a?5431?5bit?5binar@ 1009f8b8     libeay32:ec_curve.obj
 0002:000178e0       ??_C@_0CH@PAECJHG@WTLS?5curve?5over?5a?5113?5bit?5binary@ 1009f8e0     libeay32:ec_curve.obj
 0002:00017908       ??_C@_0CG@NOPNGNKB@WTLS?5curve?5over?5a?5112?5bit?5prime?5@ 1009f908     libeay32:ec_curve.obj
 0002:00017930       ??_C@_0CG@JBBHINGJ@WTLS?5curve?5over?5a?5160?5bit?5prime?5@ 1009f930     libeay32:ec_curve.obj
 0002:00017958       ??_C@_0CG@MLNHEHNL@WTLS?5curvs?5over?5a?5224?5bit?5prime?5@ 1009f958     libeay32:ec_curve.obj
 0002:00017980       ??_C@_0HB@LGGCBEEP@?6?7IPSec?1IKE?1Oakley?5curve?5?$CD3?5over@ 1009f980     libeay32:ec_curve.obj
 0002:000179f8       ??_C@_0HB@IIAMGFOE@?6?7IPSec?1IKE?1Oakley?5curve?5?$CD4?5over@ 1009f9f8     libeay32:ec_curve.obj
 0002:00017a6c       ??_C@_0CK@DKPAAAHG@RFC?55639?5curve?5over?5a?5160?5bit?5pr@ 1009fa6c     libeay32:ec_curve.obj
 0002:00017a98       ??_C@_0CK@HMLLPNDL@RFC?55639?5curve?5over?5a?5192?5bit?5pr@ 1009fa98     libeay32:ec_curve.obj
 0002:00017ac4       ??_C@_0CK@HHJJJHFI@RFC?55639?5curve?5over?5a?5224?5bit?5pr@ 1009fac4     libeay32:ec_curve.obj
 0002:00017af0       ??_C@_0CK@DIHDHHJA@RFC?55639?5curve?5over?5a?5256?5bit?5pr@ 1009faf0     libeay32:ec_curve.obj
 0002:00017b1c       ??_C@_0CK@BJFGHLBI@RFC?55639?5curve?5over?5a?5320?5bit?5pr@ 1009fb1c     libeay32:ec_curve.obj
 0002:00017b48       ??_C@_0CK@GPOLLHGK@RFC?55639?5curve?5over?5a?5384?5bit?5pr@ 1009fb48     libeay32:ec_curve.obj
 0002:00017b74       ??_C@_0CK@DLPHALOH@RFC?55639?5curve?5over?5a?5512?5bit?5pr@ 1009fb74     libeay32:ec_curve.obj
 0002:00017ba0       ??_C@_05KJOGHNFI@B?9163?$AA@ 1009fba0     libeay32:ec_curve.obj
 0002:00017ba8       ??_C@_05LNJIBAFN@B?9233?$AA@ 1009fba8     libeay32:ec_curve.obj
 0002:00017bb0       ??_C@_05LBMNPPLM@B?9283?$AA@ 1009fbb0     libeay32:ec_curve.obj
 0002:00017bb8       ??_C@_05GAFKBJFC@B?9409?$AA@ 1009fbb8     libeay32:ec_curve.obj
 0002:00017bc0       ??_C@_05BFHAOCLK@B?9571?$AA@ 1009fbc0     libeay32:ec_curve.obj
 0002:00017bc8       ??_C@_05IOOJCMJA@K?9163?$AA@ 1009fbc8     libeay32:ec_curve.obj
 0002:00017bd0       ??_C@_05JKJHEBJF@K?9233?$AA@ 1009fbd0     libeay32:ec_curve.obj
 0002:00017bd8       ??_C@_05JGMCKOHE@K?9283?$AA@ 1009fbd8     libeay32:ec_curve.obj
 0002:00017be0       ??_C@_05EHFFEIJK@K?9409?$AA@ 1009fbe0     libeay32:ec_curve.obj
 0002:00017be8       ??_C@_05DCHPLDHC@K?9571?$AA@ 1009fbe8     libeay32:ec_curve.obj
 0002:00017bf0       ??_C@_05PFLPKILE@P?9192?$AA@ 1009fbf0     libeay32:ec_curve.obj
 0002:00017bf8       ??_C@_05LNAFEPDN@P?9224?$AA@ 1009fbf8     libeay32:ec_curve.obj
 0002:00017c00       ??_C@_05IKHMDLDK@P?9256?$AA@ 1009fc00     libeay32:ec_curve.obj
 0002:00017c08       ??_C@_05ICOKNIO@P?9384?$AA@ 1009fc08     libeay32:ec_curve.obj
 0002:00017c10       ??_C@_05FNKFIDMB@P?9521?$AA@ 1009fc10     libeay32:ec_curve.obj
 0002:00017c18       ??_C@_0BH@GJAOOFMK@?4?2crypto?2ec?2ec_curve?4c?$AA@ 1009fc18     libeay32:ec_curve.obj
 0002:00017c30       ??_C@_0BF@PJJIPJIB@?4?2crypto?2ec?2ec_key?4c?$AA@ 1009fc30     libeay32:ec_key.obj
 0002:00017c48       _ECDSA_version             1009fc48     libeay32:ecs_lib.obj
 0002:00017c74       ??_C@_0BJ@FFOJENDB@?4?2crypto?2ecdsa?2ecs_lib?4c?$AA@ 1009fc74     libeay32:ecs_lib.obj
 0002:00017c90       ??_C@_0BL@OKHNPHMK@j?5?$DM?$DN?5?$CIint?$CJsizeof?$CIctx?9?$DOkey?$CJ?$AA@ 1009fc90     libeay32:hmac.obj
 0002:00017cac       ??_C@_0BF@PGACILEA@?4?2crypto?2hmac?2hmac?4c?$AA@ 1009fcac     libeay32:hmac.obj
 0002:00017cc4       ??_C@_0BF@IFJHHLLE@?4?2crypto?2cmac?2cmac?4c?$AA@ 1009fcc4     libeay32:cmac.obj
 0002:000180fc       ??_C@_0BH@OMCHJHAP@?4?2crypto?2evp?2evp_pbe?4c?$AA@ 100a00fc     libeay32:evp_pbe.obj
 0002:00018114       ??_C@_05DLJFLBDA@TYPE?$DN?$AA@ 100a0114     libeay32:evp_pbe.obj
 0002:000181a4       ??_C@_09MPCDAIAO@value?4set?$AA@ 100a01a4     libeay32:x_attrib.obj
 0002:000181b0       ??_C@_0N@MCAEPLPL@value?4single?$AA@ 100a01b0     libeay32:x_attrib.obj
 0002:000181c0       ??_C@_0P@IBKNNFL@X509_ATTRIBUTE?$AA@ 100a01c0     libeay32:x_attrib.obj
 0002:000181d0       ??_C@_06IEOJBDIK@object?$AA@ 100a01d0     libeay32:x_attrib.obj
 0002:0001824c       ??_C@_09DAGAJHIH@parameter?$AA@ 100a024c     libeay32:x_algor.obj
 0002:00018258       ??_C@_0L@BFHONDPK@X509_ALGOR?$AA@ 100a0258     libeay32:x_algor.obj
 0002:00018264       ??_C@_0L@BNOBMJFK@algorithms?$AA@ 100a0264     libeay32:x_algor.obj
 0002:00018270       ??_C@_0M@MMOLGLEG@X509_ALGORS?$AA@ 100a0270     libeay32:x_algor.obj
 0002:0001827c       ??_C@_0BJ@NBOPBEKM@?4?2crypto?2asn1?2tasn_new?4c?$AA@ 100a027c     libeay32:tasn_new.obj
 0002:00018318       ??_C@_0BJ@KPAPPHAC@?4?2crypto?2asn1?2tasn_dec?4c?$AA@ 100a0318     libeay32:tasn_dec.obj
 0002:00018334       ??_C@_07NHKPEHKF@?0?5Type?$DN?$AA@ 100a0334     libeay32:tasn_dec.obj
 0002:0001833c       ??_C@_06GPKHKFJE@Field?$DN?$AA@ 100a033c     libeay32:tasn_dec.obj
 0002:00018344       ??_C@_05GCCLHHOK@Type?$DN?$AA@ 100a0344     libeay32:tasn_dec.obj
 0002:0001834c       ??_C@_0BJ@BDIDBFLG@?4?2crypto?2asn1?2tasn_enc?4c?$AA@ 100a034c     libeay32:tasn_enc.obj
 0002:00018368       ??_C@_0BJ@GCGGIIFI@?4?2crypto?2asn1?2tasn_utl?4c?$AA@ 100a0368     libeay32:tasn_utl.obj
 0002:00018384       ??_C@_0BJ@BNFJHNHM@?4?2crypto?2buffer?2buffer?4c?$AA@ 100a0384     libeay32:buffer.obj
 0002:000183a0       ??_C@_02PLJDPFIO@00?$AA@   100a03a0     libeay32:f_int.obj
 0002:000183a4       ??_C@_02JPPHBJLD@?2?6?$AA@ 100a03a4     libeay32:f_int.obj
 0002:000183a8       ??_C@_05NJJIPCOC@?$CFs?50?6?$AA@ 100a03a8     libeay32:t_pkey.obj
 0002:000183b0       ??_C@_0BE@KHLFKPFC@?$CFs?5?$CFs?$CFlu?5?$CI?$CFs0x?$CFlx?$CJ?6?$AA@ 100a03b0     libeay32:t_pkey.obj
 0002:000183c4       ??_C@_0M@IBLDKCHK@?5?$CINegative?$CJ?$AA@ 100a03c4     libeay32:t_pkey.obj
 0002:000183d0       ??_C@_04HDOCAJNK@?$CFs?$CFs?$AA@ 100a03d0     libeay32:t_pkey.obj
 0002:000183d8       ??_C@_0BJ@GENBDNBC@?4?2crypto?2asn1?2asn_pack?4c?$AA@ 100a03d8     libeay32:asn_pack.obj
 0002:000183f4       ??_C@_0BI@GOIAOBEG@?4?2crypto?2evp?2m_sigver?4c?$AA@ 100a03f4     libeay32:m_sigver.obj
 0002:00018618       ??_C@_01KGKMHCOC@e?$AA@    100a0618     libeay32:rsa_asn1.obj
 0002:0001861c       ??_C@_01LPLHEDKD@d?$AA@    100a061c     libeay32:rsa_asn1.obj
 0002:00018620       ??_C@_04OIPJJFD@dmp1?$AA@  100a0620     libeay32:rsa_asn1.obj
 0002:00018628       ??_C@_04PENPDGE@dmq1?$AA@  100a0628     libeay32:rsa_asn1.obj
 0002:00018630       ??_C@_04BBEMPLKC@iqmp?$AA@ 100a0630     libeay32:rsa_asn1.obj
 0002:00018638       ??_C@_0O@DHJLLKEK@hashAlgorithm?$AA@ 100a0638     libeay32:rsa_asn1.obj
 0002:00018648       ??_C@_0BB@KKPGFJED@maskGenAlgorithm?$AA@ 100a0648     libeay32:rsa_asn1.obj
 0002:0001865c       ??_C@_0L@PKGNFOCE@saltLength?$AA@ 100a065c     libeay32:rsa_asn1.obj
 0002:00018668       ??_C@_0N@KGDDKMLA@trailerField?$AA@ 100a0668     libeay32:rsa_asn1.obj
 0002:00018678       ??_C@_0P@PJJHDFJB@RSA_PSS_PARAMS?$AA@ 100a0678     libeay32:rsa_asn1.obj
 0002:00018688       ??_C@_08FMOAAMEA@hashFunc?$AA@ 100a0688     libeay32:rsa_asn1.obj
 0002:00018694       ??_C@_0M@CPCGNJPJ@maskGenFunc?$AA@ 100a0694     libeay32:rsa_asn1.obj
 0002:000186a0       ??_C@_0M@FADNKHFD@pSourceFunc?$AA@ 100a06a0     libeay32:rsa_asn1.obj
 0002:000186ac       ??_C@_0BA@INJNCCPK@RSA_OAEP_PARAMS?$AA@ 100a06ac     libeay32:rsa_asn1.obj
 0002:000186bc       ??_C@_0BJ@GHBNBDLB@?4?2crypto?2pkcs7?2pk7_lib?4c?$AA@ 100a06bc     libeay32:pk7_lib.obj
 0002:000186d8       ??_C@_03JIHJHPIE@Jan?$AA@  100a06d8     libeay32:t_x509.obj
 0002:000186dc       ??_C@_03HJBDCHOM@Feb?$AA@  100a06dc     libeay32:t_x509.obj
 0002:000186e0       ??_C@_03ODNJBKGA@Mar?$AA@  100a06e0     libeay32:t_x509.obj
 0002:000186e4       ??_C@_03LEOLGMJP@Apr?$AA@  100a06e4     libeay32:t_x509.obj
 0002:000186e8       ??_C@_03CNMDKL@May?$AA@    100a06e8     libeay32:t_x509.obj
 0002:000186ec       ??_C@_03IDFGHECI@Jun?$AA@  100a06ec     libeay32:t_x509.obj
 0002:000186f0       ??_C@_03LBGABGKK@Jul?$AA@  100a06f0     libeay32:t_x509.obj
 0002:000186f4       ??_C@_03IFJFEIGA@Aug?$AA@  100a06f4     libeay32:t_x509.obj
 0002:000186f8       ??_C@_03GGCAPAJC@Sep?$AA@  100a06f8     libeay32:t_x509.obj
 0002:000186fc       ??_C@_03BMAOKBAD@Oct?$AA@  100a06fc     libeay32:t_x509.obj
 0002:00018700       ??_C@_03JPJOFNIA@Nov?$AA@  100a0700     libeay32:t_x509.obj
 0002:00018704       ??_C@_03MKABNOCG@Dec?$AA@  100a0704     libeay32:t_x509.obj
 0002:00018708       ??_C@_0BH@JKAMAPCI@?4?2crypto?2asn1?2t_x509?4c?$AA@ 100a0708     libeay32:t_x509.obj
 0002:00018720       ??_C@_0P@FGACABCD@Bad?5time?5value?$AA@ 100a0720     libeay32:t_x509.obj
 0002:00018730       ??_C@_04FIEKMBKB@?5GMT?$AA@ 100a0730     libeay32:t_x509.obj
 0002:00018738       ??_C@_0BP@OGIOIJMK@?$CFs?5?$CF2d?5?$CF02d?3?$CF02d?3?$CF02d?$CF?4?$CKs?5?$CFd?$CFs?$AA@ 100a0738     libeay32:t_x509.obj
 0002:00018758       ??_C@_02KEGNLNML@?0?5?$AA@ 100a0758     libeay32:t_x509.obj
 0002:000187e4       ??_C@_07PLCMOKAM@pkeyalg?$AA@ 100a07e4     libeay32:p8_pkey.obj
 0002:000187ec       ??_C@_04JMMJFDFL@pkey?$AA@ 100a07ec     libeay32:p8_pkey.obj
 0002:000187f4       ??_C@_0L@HNMJPKNA@attributes?$AA@ 100a07f4     libeay32:p8_pkey.obj
 0002:00018800       ??_C@_0BE@LDIFBBLG@PKCS8_PRIV_KEY_INFO?$AA@ 100a0800     libeay32:p8_pkey.obj
 0002:00018870       ??_C@_0L@PJCANJEE@public_key?$AA@ 100a0870     libeay32:x_pubkey.obj
 0002:0001887c       ??_C@_0M@INJPOKDH@X509_PUBKEY?$AA@ 100a087c     libeay32:x_pubkey.obj
 0002:00018888       ??_C@_0BJ@MMDFAHEK@?4?2crypto?2asn1?2x_pubkey?4c?$AA@ 100a0888     libeay32:x_pubkey.obj
 0002:000188a4       ??_C@_0BH@EJPGDKGA@?4?2crypto?2cms?2cms_env?4c?$AA@ 100a08a4     libeay32:cms_env.obj
 0002:000188bc       ??_C@_0BG@OMKDNBAC@?4?2crypto?2cms?2cms_sd?4c?$AA@ 100a08bc     libeay32:cms_sd.obj
 0002:000188d4       ??_C@_0BI@NEOPHFJO@?4?2crypto?2dsa?2dsa_sign?4c?$AA@ 100a08d4     libeay32:dsa_sign.obj
 0002:000188ec       _EVP_version               100a08ec     libeay32:evp_enc.obj
 0002:00018914       ??_C@_0BH@FPKHLGPK@?4?2crypto?2evp?2evp_enc?4c?$AA@ 100a0914     libeay32:evp_enc.obj
 0002:00018930       ??_C@_0FO@KIBMBINE@ctx?9?$DOcipher?9?$DOblock_size?5?$DN?$DN?51?5?$HM?$HM?5@ 100a0930     libeay32:evp_enc.obj
 0002:00018990       ??_C@_0DG@IKOHIL@EVP_CIPHER_CTX_iv_length?$CIctx?$CJ?5?$DM?$DN@ 100a0990     libeay32:evp_enc.obj
 0002:000189c8       ??_C@_0BM@NOPGEACO@bl?5?$DM?$DN?5?$CIint?$CJsizeof?$CIctx?9?$DObuf?$CJ?$AA@ 100a09c8     libeay32:evp_enc.obj
 0002:000189e4       ??_C@_0BF@NLHGELBH@b?5?$DM?$DN?5sizeof?5ctx?9?$DObuf?$AA@ 100a09e4     libeay32:evp_enc.obj
 0002:000189fc       ??_C@_0BH@JPOFFCDO@b?5?$DM?$DN?5sizeof?5ctx?9?$DOfinal?$AA@ 100a09fc     libeay32:evp_enc.obj
 0002:00018a14       ??_C@_0BI@NEAEJDGO@?4?2crypto?2evp?2pmeth_fn?4c?$AA@ 100a0a14     libeay32:pmeth_fn.obj
 0002:00018b64       ??_C@_06IJDLPEM@length?$AA@ 100a0b64     libeay32:dh_asn1.obj
 0002:00018b6c       ??_C@_04MENKDCKE@seed?$AA@ 100a0b6c     libeay32:dh_asn1.obj
 0002:00018b74       ??_C@_07HDOCMLOI@counter?$AA@ 100a0b74     libeay32:dh_asn1.obj
 0002:00018b7c       ??_C@_0O@KANPBCM@int_dhvparams?$AA@ 100a0b7c     libeay32:dh_asn1.obj
 0002:00018b8c       ??_C@_01CBDEGOCN@j?$AA@    100a0b8c     libeay32:dh_asn1.obj
 0002:00018b90       ??_C@_07JLLHOFNK@vparams?$AA@ 100a0b90     libeay32:dh_asn1.obj
 0002:00018b98       ??_C@_0O@HMLHGNDO@int_dhx942_dh?$AA@ 100a0b98     libeay32:dh_asn1.obj
 0002:00018ba8       ??_C@_0BI@CJEDLOFJ@?4?2crypto?2cms?2cms_kari?4c?$AA@ 100a0ba8     libeay32:cms_kari.obj
 0002:00018bc0       ??_C@_0BH@IPLJPDGN@?4?2crypto?2ec?2ec_print?4c?$AA@ 100a0bc0     libeay32:ec_print.obj
 0002:00018bd8       ??_C@_0BI@DFFFIKFB@Generator?5?$CIcompressed?$CJ?3?$AA@ 100a0bd8     libeay32:eck_prn.obj
 0002:00018bf0       ??_C@_0BK@DOCPEENO@Generator?5?$CIuncompressed?$CJ?3?$AA@ 100a0bf0     libeay32:eck_prn.obj
 0002:00018c0c       ??_C@_0BE@FPCNHCIJ@Generator?5?$CIhybrid?$CJ?3?$AA@ 100a0c0c     libeay32:eck_prn.obj
 0002:00018c20       ??_C@_0BG@EOKACLHK@?4?2crypto?2ec?2eck_prn?4c?$AA@ 100a0c20     libeay32:eck_prn.obj
 0002:00018c38       ??_C@_0N@JOFLCJFF@ASN1?5OID?3?5?$CFs?$AA@ 100a0c38     libeay32:eck_prn.obj
 0002:00018c48       ??_C@_0BA@LNIECBHN@NIST?5CURVE?3?5?$CFs?6?$AA@ 100a0c48     libeay32:eck_prn.obj
 0002:00018c58       ??_C@_0BA@KNKNOIFH@Field?5Type?3?5?$CFs?6?$AA@ 100a0c58     libeay32:eck_prn.obj
 0002:00018c68       ??_C@_0BA@ENMKKION@Basis?5Type?3?5?$CFs?6?$AA@ 100a0c68     libeay32:eck_prn.obj
 0002:00018c78       ??_C@_0M@JDIPGLHE@Polynomial?3?$AA@ 100a0c78     libeay32:eck_prn.obj
 0002:00018c84       ??_C@_06DBHHIIKM@Prime?3?$AA@ 100a0c84     libeay32:eck_prn.obj
 0002:00018c8c       ??_C@_05GMFDOKMO@A?3?5?5?5?$AA@ 100a0c8c     libeay32:eck_prn.obj
 0002:00018c94       ??_C@_05OKMHJIGA@B?3?5?5?5?$AA@ 100a0c94     libeay32:eck_prn.obj
 0002:00018c9c       ??_C@_07KOGOKIFH@Order?3?5?$AA@ 100a0c9c     libeay32:eck_prn.obj
 0002:00018ca4       ??_C@_0L@IEMHODML@Cofactor?3?5?$AA@ 100a0ca4     libeay32:eck_prn.obj
 0002:00018cb0       ??_C@_05PDHKGGIM@Seed?3?$AA@ 100a0cb0     libeay32:eck_prn.obj
 0002:00019034       ??_C@_02ICGBAFJO@k1?$AA@   100a1034     libeay32:ec_asn1.obj
 0002:00019038       ??_C@_02KJEMFGFN@k2?$AA@   100a1038     libeay32:ec_asn1.obj
 0002:0001903c       ??_C@_02LAFHGHBM@k3?$AA@   100a103c     libeay32:ec_asn1.obj
 0002:00019040       ??_C@_0BC@NPDMPFCL@X9_62_PENTANOMIAL?$AA@ 100a1040     libeay32:ec_asn1.obj
 0002:00019054       ??_C@_07PBHIMFBE@p?4other?$AA@ 100a1054     libeay32:ec_asn1.obj
 0002:0001905c       ??_C@_09KOBBOOPN@p?4onBasis?$AA@ 100a105c     libeay32:ec_asn1.obj
 0002:00019068       ??_C@_09LICBCEBD@p?4tpBasis?$AA@ 100a1068     libeay32:ec_asn1.obj
 0002:00019074       ??_C@_09DMGLCKOJ@p?4ppBasis?$AA@ 100a1074     libeay32:ec_asn1.obj
 0002:00019080       ??_C@_01GOHFPIOK@m?$AA@    100a1080     libeay32:ec_asn1.obj
 0002:00019084       ??_C@_04GPMDFGEJ@type?$AA@ 100a1084     libeay32:ec_asn1.obj
 0002:0001908c       ??_C@_0BJ@CCODLOLO@X9_62_CHARACTERISTIC_TWO?$AA@ 100a108c     libeay32:ec_asn1.obj
 0002:000190a8       ??_C@_07DPJEDCLB@p?4prime?$AA@ 100a10a8     libeay32:ec_asn1.obj
 0002:000190b0       ??_C@_0L@NLMAKEBL@p?4char_two?$AA@ 100a10b0     libeay32:ec_asn1.obj
 0002:000190bc       ??_C@_09OAOLGAOM@fieldType?$AA@ 100a10bc     libeay32:ec_asn1.obj
 0002:000190c8       ??_C@_0O@PGPIAKKH@X9_62_FIELDID?$AA@ 100a10c8     libeay32:ec_asn1.obj
 0002:000190d8       ??_C@_0M@BHDPNPCK@X9_62_CURVE?$AA@ 100a10d8     libeay32:ec_asn1.obj
 0002:000190e4       ??_C@_07MJJGNICD@fieldID?$AA@ 100a10e4     libeay32:ec_asn1.obj
 0002:000190ec       ??_C@_05HIKPKPAA@curve?$AA@ 100a10ec     libeay32:ec_asn1.obj
 0002:000190f4       ??_C@_04BHIIPFEC@base?$AA@ 100a10f4     libeay32:ec_asn1.obj
 0002:000190fc       ??_C@_05NDNMCCJH@order?$AA@ 100a10fc     libeay32:ec_asn1.obj
 0002:00019104       ??_C@_08DKFAOMDI@cofactor?$AA@ 100a1104     libeay32:ec_asn1.obj
 0002:00019110       ??_C@_0N@ECDPFONH@ECPARAMETERS?$AA@ 100a1110     libeay32:ec_asn1.obj
 0002:00019120       ??_C@_0BC@JEJHGDNN@value?4named_curve?$AA@ 100a1120     libeay32:ec_asn1.obj
 0002:00019134       ??_C@_0BB@KOECJJJ@value?4parameters?$AA@ 100a1134     libeay32:ec_asn1.obj
 0002:00019148       ??_C@_0BD@HOIIAPI@value?4implicitlyCA?$AA@ 100a1148     libeay32:ec_asn1.obj
 0002:0001915c       ??_C@_0P@PBBIGPFJ@ECPKPARAMETERS?$AA@ 100a115c     libeay32:ec_asn1.obj
 0002:0001916c       ??_C@_0L@BCENACFO@privateKey?$AA@ 100a116c     libeay32:ec_asn1.obj
 0002:00019178       ??_C@_0L@HHPOFMCB@parameters?$AA@ 100a1178     libeay32:ec_asn1.obj
 0002:00019184       ??_C@_09IDENFCJL@publicKey?$AA@ 100a1184     libeay32:ec_asn1.obj
 0002:00019190       ??_C@_0O@DFJMHGOP@EC_PRIVATEKEY?$AA@ 100a1190     libeay32:ec_asn1.obj
 0002:000191a0       ??_C@_0BG@HJBLPCL@?4?2crypto?2ec?2ec_asn1?4c?$AA@ 100a11a0     libeay32:ec_asn1.obj
 0002:000191b8       ??_C@_08CPLCPCAK@oriValue?$AA@ 100a11b8     libeay32:cms_asn1.obj
 0002:0001a018       ??_C@_0BH@ELFPNLNE@CMS_OtherRecipientInfo?$AA@ 100a2018     libeay32:cms_asn1.obj
 0002:0001a030       ??_C@_06MJDJDBHG@d?4ktri?$AA@ 100a2030     libeay32:cms_asn1.obj
 0002:0001a038       ??_C@_06KOPOJGNL@d?4kari?$AA@ 100a2038     libeay32:cms_asn1.obj
 0002:0001a040       ??_C@_07GNHCNHGA@d?4kekri?$AA@ 100a2040     libeay32:cms_asn1.obj
 0002:0001a048       ??_C@_06MMLMDIAL@d?4pwri?$AA@ 100a2048     libeay32:cms_asn1.obj
 0002:0001a050       ??_C@_05CDKGAJPA@d?4ori?$AA@ 100a2050     libeay32:cms_asn1.obj
 0002:0001a058       ??_C@_0BC@OIOGGOHC@CMS_RecipientInfo?$AA@ 100a2058     libeay32:cms_asn1.obj
 0002:0001a06c       ??_C@_0P@HMLDCEHI@originatorInfo?$AA@ 100a206c     libeay32:cms_asn1.obj
 0002:0001a07c       ??_C@_0P@MHKJPFAE@recipientInfos?$AA@ 100a207c     libeay32:cms_asn1.obj
 0002:0001a08c       ??_C@_0BF@OHLPJHAO@encryptedContentInfo?$AA@ 100a208c     libeay32:cms_asn1.obj
 0002:0001a0a4       ??_C@_0BB@JCNJKAMK@unprotectedAttrs?$AA@ 100a20a4     libeay32:cms_asn1.obj
 0002:0001a0b8       ??_C@_0BC@MICBLAOD@CMS_EnvelopedData?$AA@ 100a20b8     libeay32:cms_asn1.obj
 0002:0001a0cc       ??_C@_0BB@NNEFCOGL@CMS_DigestedData?$AA@ 100a20cc     libeay32:cms_asn1.obj
 0002:0001a0e0       ??_C@_0BC@ONODDCLB@CMS_EncryptedData?$AA@ 100a20e0     libeay32:cms_asn1.obj
 0002:0001a0f4       ??_C@_0N@PGIFJMM@macAlgorithm?$AA@ 100a20f4     libeay32:cms_asn1.obj
 0002:0001a104       ??_C@_09HHELNNLD@authAttrs?$AA@ 100a2104     libeay32:cms_asn1.obj
 0002:0001a110       ??_C@_03BADCJGEO@mac?$AA@  100a2110     libeay32:cms_asn1.obj
 0002:0001a114       ??_C@_0M@FBFPDIHA@unauthAttrs?$AA@ 100a2114     libeay32:cms_asn1.obj
 0002:0001a120       ??_C@_0BG@DOMHNMEC@CMS_AuthenticatedData?$AA@ 100a2120     libeay32:cms_asn1.obj
 0002:0001a138       ??_C@_0BF@PNIPCJJ@compressionAlgorithm?$AA@ 100a2138     libeay32:cms_asn1.obj
 0002:0001a150       ??_C@_0BD@IAIGGNCI@CMS_CompressedData?$AA@ 100a2150     libeay32:cms_asn1.obj
 0002:0001a164       ??_C@_06OAPKPHLA@d?4data?$AA@ 100a2164     libeay32:cms_asn1.obj
 0002:0001a16c       ??_C@_0N@DDIMJOHE@d?4signedData?$AA@ 100a216c     libeay32:cms_asn1.obj
 0002:0001a17c       ??_C@_0BA@CCFAJLBF@d?4envelopedData?$AA@ 100a217c     libeay32:cms_asn1.obj
 0002:0001a18c       ??_C@_0P@HJCJOBOP@d?4digestedData?$AA@ 100a218c     libeay32:cms_asn1.obj
 0002:0001a19c       ??_C@_0BA@HJCBJEH@d?4encryptedData?$AA@ 100a219c     libeay32:cms_asn1.obj
 0002:0001a1ac       ??_C@_0BE@NPCJHPOJ@d?4authenticatedData?$AA@ 100a21ac     libeay32:cms_asn1.obj
 0002:0001a1c0       ??_C@_0BB@NELCELCK@d?4compressedData?$AA@ 100a21c0     libeay32:cms_asn1.obj
 0002:0001a1d4       ??_C@_0BA@ECDDPOHH@CMS_ContentInfo?$AA@ 100a21d4     libeay32:cms_asn1.obj
 0002:0001a1e4       ??_C@_0P@KAJKPCJH@CMS_ATTRIBUTES?$AA@ 100a21e4     libeay32:cms_asn1.obj
 0002:0001a1f4       ??_C@_0BE@PAHMALPK@CMS_Attributes_Sign?$AA@ 100a21f4     libeay32:cms_asn1.obj
 0002:0001a208       ??_C@_0BG@NLALJKHJ@CMS_Attributes_Verify?$AA@ 100a2208     libeay32:cms_asn1.obj
 0002:0001a220       ??_C@_0BB@DENHEDOF@d?4allOrFirstTier?$AA@ 100a2220     libeay32:cms_asn1.obj
 0002:0001a234       ??_C@_0O@ECMNNMJA@d?4receiptList?$AA@ 100a2234     libeay32:cms_asn1.obj
 0002:0001a244       ??_C@_0BB@JKAAKCKP@CMS_ReceiptsFrom?$AA@ 100a2244     libeay32:cms_asn1.obj
 0002:0001a258       ??_C@_0BI@BHIBPADG@signedContentIdentifier?$AA@ 100a2258     libeay32:cms_asn1.obj
 0002:0001a270       ??_C@_0N@CIHGCFJG@receiptsFrom?$AA@ 100a2270     libeay32:cms_asn1.obj
 0002:0001a280       ??_C@_0L@BBBJMFCF@receiptsTo?$AA@ 100a2280     libeay32:cms_asn1.obj
 0002:0001a28c       ??_C@_0BD@KOFKAGLC@CMS_ReceiptRequest?$AA@ 100a228c     libeay32:cms_asn1.obj
 0002:0001a2a0       ??_C@_0BJ@OPFDHHHB@originatorSignatureValue?$AA@ 100a22a0     libeay32:cms_asn1.obj
 0002:0001a2bc       ??_C@_0M@GJHAMFIP@CMS_Receipt?$AA@ 100a22bc     libeay32:cms_asn1.obj
 0002:0001a2c8       ??_C@_07MCNKNJMC@keyInfo?$AA@ 100a22c8     libeay32:cms_asn1.obj
 0002:0001a2d0       ??_C@_0M@BEJHGEIP@entityUInfo?$AA@ 100a22d0     libeay32:cms_asn1.obj
 0002:0001a2dc       ??_C@_0M@NAAOAKIB@suppPubInfo?$AA@ 100a22dc     libeay32:cms_asn1.obj
 0002:0001a2e8       ??_C@_0P@BDIJFMCD@CMS_SharedInfo?$AA@ 100a22e8     libeay32:cms_asn1.obj
 0002:0001a2f8       ??_C@_06EAINIONG@issuer?$AA@ 100a22f8     libeay32:cms_asn1.obj
 0002:0001a300       ??_C@_0BK@GLMHLHML@CMS_IssuerAndSerialNumber?$AA@ 100a2300     libeay32:cms_asn1.obj
 0002:0001a31c       ??_C@_0BA@FEKMLOFK@otherCertFormat?$AA@ 100a231c     libeay32:cms_asn1.obj
 0002:0001a32c       ??_C@_09CDBALEP@otherCert?$AA@ 100a232c     libeay32:cms_asn1.obj
 0002:0001a338       ??_C@_0BL@CACJFKMB@CMS_OtherCertificateFormat?$AA@ 100a2338     libeay32:cms_asn1.obj
 0002:0001a354       ??_C@_0O@MNFCNMPJ@d?4certificate?$AA@ 100a2354     libeay32:cms_asn1.obj
 0002:0001a364       ??_C@_0BG@NLAONGA@d?4extendedCertificate?$AA@ 100a2364     libeay32:cms_asn1.obj
 0002:0001a37c       ??_C@_0N@OONEIFFN@d?4v1AttrCert?$AA@ 100a237c     libeay32:cms_asn1.obj
 0002:0001a38c       ??_C@_0N@FODDOFO@d?4v2AttrCert?$AA@ 100a238c     libeay32:cms_asn1.obj
 0002:0001a39c       ??_C@_07JIJPKMF@d?4other?$AA@ 100a239c     libeay32:cms_asn1.obj
 0002:0001a3a4       ??_C@_0BH@CFNIJMB@CMS_CertificateChoices?$AA@ 100a23a4     libeay32:cms_asn1.obj
 0002:0001a3bc       ??_C@_0BI@DNGDMGHK@d?4issuerAndSerialNumber?$AA@ 100a23bc     libeay32:cms_asn1.obj
 0002:0001a3d4       ??_C@_0BH@LJLJDHKP@d?4subjectKeyIdentifier?$AA@ 100a23d4     libeay32:cms_asn1.obj
 0002:0001a3ec       ??_C@_0BF@HIKDPBH@CMS_SignerIdentifier?$AA@ 100a23ec     libeay32:cms_asn1.obj
 0002:0001a404       ??_C@_0N@EBAJNGML@eContentType?$AA@ 100a2404     libeay32:cms_asn1.obj
 0002:0001a414       ??_C@_08OOKAKDHE@eContent?$AA@ 100a2414     libeay32:cms_asn1.obj
 0002:0001a420       ??_C@_0BM@FGCJFMKP@CMS_EncapsulatedContentInfo?$AA@ 100a2420     libeay32:cms_asn1.obj
 0002:0001a43c       ??_C@_03OBKGHBJN@sid?$AA@  100a243c     libeay32:cms_asn1.obj
 0002:0001a440       ??_C@_0BA@OBGGJDDI@digestAlgorithm?$AA@ 100a2440     libeay32:cms_asn1.obj
 0002:0001a450       ??_C@_0M@MDGDHPDJ@signedAttrs?$AA@ 100a2450     libeay32:cms_asn1.obj
 0002:0001a45c       ??_C@_0BD@CBMBFDMH@signatureAlgorithm?$AA@ 100a245c     libeay32:cms_asn1.obj
 0002:0001a470       ??_C@_09CMIIOJHF@signature?$AA@ 100a2470     libeay32:cms_asn1.obj
 0002:0001a47c       ??_C@_0O@PDNEMLFH@unsignedAttrs?$AA@ 100a247c     libeay32:cms_asn1.obj
 0002:0001a48c       ??_C@_0P@HBMKILHF@CMS_SignerInfo?$AA@ 100a248c     libeay32:cms_asn1.obj
 0002:0001a49c       ??_C@_0BD@HLCFDNLB@otherRevInfoFormat?$AA@ 100a249c     libeay32:cms_asn1.obj
 0002:0001a4b0       ??_C@_0N@MOBLFMFA@otherRevInfo?$AA@ 100a24b0     libeay32:cms_asn1.obj
 0002:0001a4c0       ??_C@_0BO@ONAFHMMC@CMS_OtherRevocationInfoFormat?$AA@ 100a24c0     libeay32:cms_asn1.obj
 0002:0001a4e0       ??_C@_05BEAHECAN@d?4crl?$AA@ 100a24e0     libeay32:cms_asn1.obj
 0002:0001a4e8       ??_C@_0BJ@MJACOINL@CMS_RevocationInfoChoice?$AA@ 100a24e8     libeay32:cms_asn1.obj
 0002:0001a504       ??_C@_0BB@CMPBPEDI@digestAlgorithms?$AA@ 100a2504     libeay32:cms_asn1.obj
 0002:0001a518       ??_C@_0BB@EFFJPOAL@encapContentInfo?$AA@ 100a2518     libeay32:cms_asn1.obj
 0002:0001a52c       ??_C@_0N@NGKEHKOM@certificates?$AA@ 100a252c     libeay32:cms_asn1.obj
 0002:0001a53c       ??_C@_04GDKGHFBJ@crls?$AA@ 100a253c     libeay32:cms_asn1.obj
 0002:0001a544       ??_C@_0M@OPIAHELE@signerInfos?$AA@ 100a2544     libeay32:cms_asn1.obj
 0002:0001a550       ??_C@_0P@IFJHOEIE@CMS_SignedData?$AA@ 100a2550     libeay32:cms_asn1.obj
 0002:0001a560       ??_C@_0BD@BOLANDH@CMS_OriginatorInfo?$AA@ 100a2560     libeay32:cms_asn1.obj
 0002:0001a574       ??_C@_0BL@JFGGCGJK@contentEncryptionAlgorithm?$AA@ 100a2574     libeay32:cms_asn1.obj
 0002:0001a590       ??_C@_0BB@HAOJNDCF@encryptedContent?$AA@ 100a2590     libeay32:cms_asn1.obj
 0002:0001a5a4       ??_C@_0BJ@IHPALOIM@CMS_EncryptedContentInfo?$AA@ 100a25a4     libeay32:cms_asn1.obj
 0002:0001a5c0       ??_C@_03FJBKBGPI@rid?$AA@  100a25c0     libeay32:cms_asn1.obj
 0002:0001a5c4       ??_C@_0BH@NBKKPKMP@keyEncryptionAlgorithm?$AA@ 100a25c4     libeay32:cms_asn1.obj
 0002:0001a5dc       ??_C@_0N@DJLGIBLA@encryptedKey?$AA@ 100a25dc     libeay32:cms_asn1.obj
 0002:0001a5ec       ??_C@_0BK@JKNAJMBM@CMS_KeyTransRecipientInfo?$AA@ 100a25ec     libeay32:cms_asn1.obj
 0002:0001a608       ??_C@_09FBOICBLA@keyAttrId?$AA@ 100a2608     libeay32:cms_asn1.obj
 0002:0001a614       ??_C@_07CNMADOPK@keyAttr?$AA@ 100a2614     libeay32:cms_asn1.obj
 0002:0001a61c       ??_C@_0BG@MPKMCLOF@CMS_OtherKeyAttribute?$AA@ 100a261c     libeay32:cms_asn1.obj
 0002:0001a634       ??_C@_04JNIHBGGH@date?$AA@ 100a2634     libeay32:cms_asn1.obj
 0002:0001a63c       ??_C@_05BGEKGIIP@other?$AA@ 100a263c     libeay32:cms_asn1.obj
 0002:0001a644       ??_C@_0BL@KIFNEPBG@CMS_RecipientKeyIdentifier?$AA@ 100a2644     libeay32:cms_asn1.obj
 0002:0001a660       ??_C@_08NDNCHPPH@d?4rKeyId?$AA@ 100a2660     libeay32:cms_asn1.obj
 0002:0001a66c       ??_C@_0CA@LLLOPIGI@CMS_KeyAgreeRecipientIdentifier?$AA@ 100a266c     libeay32:cms_asn1.obj
 0002:0001a68c       ??_C@_0BK@PEPAIBDP@CMS_RecipientEncryptedKey?$AA@ 100a268c     libeay32:cms_asn1.obj
 0002:0001a6a8       ??_C@_0BI@BANGJHOF@CMS_OriginatorPublicKey?$AA@ 100a26a8     libeay32:cms_asn1.obj
 0002:0001a6c0       ??_C@_0BA@GMAGEPIK@d?4originatorKey?$AA@ 100a26c0     libeay32:cms_asn1.obj
 0002:0001a6d0       ??_C@_0BO@EGGGKLC@CMS_OriginatorIdentifierOrKey?$AA@ 100a26d0     libeay32:cms_asn1.obj
 0002:0001a6f0       ??_C@_0L@LNFLHOFG@originator?$AA@ 100a26f0     libeay32:cms_asn1.obj
 0002:0001a6fc       ??_C@_03BGILEBGG@ukm?$AA@  100a26fc     libeay32:cms_asn1.obj
 0002:0001a700       ??_C@_0BH@PJIHPFGD@recipientEncryptedKeys?$AA@ 100a2700     libeay32:cms_asn1.obj
 0002:0001a718       ??_C@_0BK@FMJLFKK@CMS_KeyAgreeRecipientInfo?$AA@ 100a2718     libeay32:cms_asn1.obj
 0002:0001a734       ??_C@_0O@NFJHJHKH@keyIdentifier?$AA@ 100a2734     libeay32:cms_asn1.obj
 0002:0001a744       ??_C@_0BC@MBEMIKEG@CMS_KEKIdentifier?$AA@ 100a2744     libeay32:cms_asn1.obj
 0002:0001a758       ??_C@_05NHGMHHPG@kekid?$AA@ 100a2758     libeay32:cms_asn1.obj
 0002:0001a760       ??_C@_0BF@NBHFGDNK@CMS_KEKRecipientInfo?$AA@ 100a2760     libeay32:cms_asn1.obj
 0002:0001a778       ??_C@_0BH@OGDBOKG@keyDerivationAlgorithm?$AA@ 100a2778     libeay32:cms_asn1.obj
 0002:0001a790       ??_C@_0BK@KBPCOALF@CMS_PasswordRecipientInfo?$AA@ 100a2790     libeay32:cms_asn1.obj
 0002:0001a7ac       ??_C@_07FAMFHMLO@oriType?$AA@ 100a27ac     libeay32:cms_asn1.obj
 0002:0001b7b8       ??_C@_0BJ@LKMHPLFL@?4?2crypto?2conf?2conf_mod?4c?$AA@ 100a37b8     libeay32:conf_mod.obj
 0002:0001b7d4       ??_C@_01KMDKNFGN@?1?$AA@   100a37d4     libeay32:conf_mod.obj
 0002:0001b7d8       ??_C@_0BH@MIGHECOA@?4?2crypto?2asn1?2a_enum?4c?$AA@ 100a37d8     libeay32:a_enum.obj
 0002:0001b8a4       ??_C@_07IOFGAIHD@?2W?$CF08lX?$AA@ 100a38a4     libeay32:a_strex.obj
 0002:0001b8ac       ??_C@_07FDBPKGOC@?2U?$CF04lX?$AA@ 100a38ac     libeay32:a_strex.obj
 0002:0001b8b4       ??_C@_01KICIPPFI@?2?$AA@   100a38b4     libeay32:a_strex.obj
 0002:0001b8b8       ??_C@_05JJPGCIKH@?2?$CF02X?$AA@ 100a38b8     libeay32:a_strex.obj
 0002:0001b8c0       ??_C@_02HDBGODGB@?2?2?$AA@ 100a38c0     libeay32:a_strex.obj
 0002:0001b8c4       ??_C@_01IPJKGB@?$CD?$AA@   100a38c4     libeay32:a_strex.obj
 0002:0001b8c8       ??_C@_0BI@CMDJHDOG@?4?2crypto?2asn1?2a_strex?4c?$AA@ 100a38c8     libeay32:a_strex.obj
 0002:0001b8e0       ??_C@_01BJJEKLCA@?$CC?$AA@ 100a38e0     libeay32:a_strex.obj
 0002:0001b8e4       ??_C@_03NPBFACHO@?5?$CL?5?$AA@ 100a38e4     libeay32:a_strex.obj
 0002:0001b8e8       ??_C@_01MIFGBAGJ@?$CL?$AA@ 100a38e8     libeay32:a_strex.obj
 0002:0001b8ec       ??_C@_02LNAEAIDO@?$DL?5?$AA@ 100a38ec     libeay32:a_strex.obj
 0002:0001b8f0       ??_C@_03MHLONNLM@?5?$DN?5?$AA@ 100a38f0     libeay32:a_strex.obj
 0002:0001b8f4       ??_C@_01NEMOKFLO@?$DN?$AA@ 100a38f4     libeay32:a_strex.obj
 0002:0001b980       ??_C@_08CBBMEOFB@critical?$AA@ 100a3980     libeay32:x_exten.obj
 0002:0001b98c       ??_C@_05MFEJDJP@value?$AA@ 100a398c     libeay32:x_exten.obj
 0002:0001b994       ??_C@_0P@OMHBNPIC@X509_EXTENSION?$AA@ 100a3994     libeay32:x_exten.obj
 0002:0001b9a4       ??_C@_09KMFOEAAA@Extension?$AA@ 100a39a4     libeay32:x_exten.obj
 0002:0001b9b0       ??_C@_0BA@JCMMJNEE@X509_EXTENSIONS?$AA@ 100a39b0     libeay32:x_exten.obj
 0002:0001b9c0       ??_C@_0BJ@IDBKHPBN@?4?2crypto?2x509?2x509name?4c?$AA@ 100a39c0     libeay32:x509name.obj
 0002:0001b9dc       ??_C@_05DFCJAACA@name?$DN?$AA@ 100a39dc     libeay32:x509name.obj
 0002:0001bb70       ??_C@_07EEDOJOAA@type_id?$AA@ 100a3b70     libeay32:v3_genn.obj
 0002:0001bb78       ??_C@_09MAFAINAH@OTHERNAME?$AA@ 100a3b78     libeay32:v3_genn.obj
 0002:0001bb84       ??_C@_0N@KBFEHHDO@nameAssigner?$AA@ 100a3b84     libeay32:v3_genn.obj
 0002:0001bb94       ??_C@_09EHIHAIPF@partyName?$AA@ 100a3b94     libeay32:v3_genn.obj
 0002:0001bba0       ??_C@_0N@GEILLNKP@EDIPARTYNAME?$AA@ 100a3ba0     libeay32:v3_genn.obj
 0002:0001bbb0       ??_C@_0M@FGIBMCEL@d?4otherName?$AA@ 100a3bb0     libeay32:v3_genn.obj
 0002:0001bbbc       ??_C@_0N@MMCCMIPN@d?4rfc822Name?$AA@ 100a3bbc     libeay32:v3_genn.obj
 0002:0001bbcc       ??_C@_09HIBJABFB@d?4dNSName?$AA@ 100a3bcc     libeay32:v3_genn.obj
 0002:0001bbd8       ??_C@_0O@NKHOODFK@d?4x400Address?$AA@ 100a3bd8     libeay32:v3_genn.obj
 0002:0001bbe8       ??_C@_0BA@JLDFBFLN@d?4directoryName?$AA@ 100a3be8     libeay32:v3_genn.obj
 0002:0001bbf8       ??_C@_0P@OBCPPLOL@d?4ediPartyName?$AA@ 100a3bf8     libeay32:v3_genn.obj
 0002:0001bc08       ??_C@_0BM@CMCMADCA@d?4uniformResourceIdentifier?$AA@ 100a3c08     libeay32:v3_genn.obj
 0002:0001bc24       ??_C@_0M@PANAALJB@d?4iPAddress?$AA@ 100a3c24     libeay32:v3_genn.obj
 0002:0001bc30       ??_C@_0P@KIENIEMD@d?4registeredID?$AA@ 100a3c30     libeay32:v3_genn.obj
 0002:0001bc40       ??_C@_0N@JCNPGCGM@GENERAL_NAME?$AA@ 100a3c40     libeay32:v3_genn.obj
 0002:0001bc50       ??_C@_0N@CJKIBDLK@GeneralNames?$AA@ 100a3c50     libeay32:v3_genn.obj
 0002:0001bc60       ??_C@_0O@NFAAPMIG@GENERAL_NAMES?$AA@ 100a3c60     libeay32:v3_genn.obj
 0002:0001bc70       _v3_info                   100a3c70     libeay32:v3_info.obj
 0002:0001bca8       _v3_sinfo                  100a3ca8     libeay32:v3_info.obj
 0002:0001bd54       ??_C@_06GABBCIBA@method?$AA@ 100a3d54     libeay32:v3_info.obj
 0002:0001bd5c       ??_C@_08CBBFJFMD@location?$AA@ 100a3d5c     libeay32:v3_info.obj
 0002:0001bd68       ??_C@_0BD@IKHCEBLA@ACCESS_DESCRIPTION?$AA@ 100a3d68     libeay32:v3_info.obj
 0002:0001bd7c       ??_C@_0BG@PFEKCAHJ@AUTHORITY_INFO_ACCESS?$AA@ 100a3d7c     libeay32:v3_info.obj
 0002:0001bd94       ??_C@_0BK@CIMABBBK@?4?2crypto?2x509v3?2v3_info?4c?$AA@ 100a3d94     libeay32:v3_info.obj
 0002:0001bdb0       ??_C@_03NLJIHOMM@?5?9?5?$AA@ 100a3db0     libeay32:v3_info.obj
 0002:0001bdb4       ??_C@_06KFEJCPI@value?$DN?$AA@ 100a3db4     libeay32:v3_info.obj
 0002:0001bdc0       ??_C@_0BI@OJLFFLBA@?4?2crypto?2dsa?2dsa_ossl?4c?$AA@ 100a3dc0     libeay32:dsa_ossl.obj
 0002:0001be14       ??_C@_06CHOIGJDB@BIGNUM?$AA@ 100a3e14     libeay32:x_bignum.obj
 0002:0001be54       ??_C@_04KCJFIMMJ@LONG?$AA@ 100a3e54     libeay32:x_long.obj
 0002:0001be5c       ??_C@_05HIGAPBOG@ZLONG?$AA@ 100a3e5c     libeay32:x_long.obj
 0002:0001be64       ??_C@_0BH@OOENGGEL@?4?2crypto?2asn1?2x_long?4c?$AA@ 100a3e64     libeay32:x_long.obj
 0002:0001be7c       ??_C@_04PEDNGLFL@?$CFld?6?$AA@ 100a3e7c     libeay32:x_long.obj
 0002:0001be84       ??_C@_0BG@LIBBNHAF@?4?2crypto?2asn1?2a_dup?4c?$AA@ 100a3e84     libeay32:a_dup.obj
 0002:0001be9c       ??_C@_0BG@MAGCMNCN@?4?2crypto?2ec?2ec_mult?4c?$AA@ 100a3e9c     libeay32:ec_mult.obj
 0002:0001beb4       ??_C@_0BF@DJKLHCAL@OpenSSL?5ECDSA?5method?$AA@ 100a3eb4     libeay32:ecs_ossl.obj
 0002:0001becc       ??_C@_0BK@JICBNKGE@?4?2crypto?2ecdsa?2ecs_ossl?4c?$AA@ 100a3ecc     libeay32:ecs_ossl.obj
 0002:0001bf30       ??_C@_09FLJPBFIA@ECDSA_SIG?$AA@ 100a3f30     libeay32:ecs_asn1.obj
 0002:0001bf3c       _ECDH_version              100a3f3c     libeay32:ech_lib.obj
 0002:0001bf68       ??_C@_0BI@LFHHMGOE@?4?2crypto?2ecdh?2ech_lib?4c?$AA@ 100a3f68     libeay32:ech_lib.obj
 0002:0001bf80       ??_C@_0BI@BNAJCHDH@?4?2crypto?2evp?2p5_crpt2?4c?$AA@ 100a3f80     libeay32:p5_crpt2.obj
 0002:0001bf98       ??_C@_0BF@JMOFLBJO@keylen?5?$DM?$DN?5sizeof?5key?$AA@ 100a3f98     libeay32:p5_crpt2.obj
 0002:0001bfb0       ??_C@_0BH@DKGHAIKO@?4?2crypto?2evp?2p5_crpt?4c?$AA@ 100a3fb0     libeay32:p5_crpt.obj
 0002:0001bfc8       ??_C@_0DF@FHOHFFEB@EVP_CIPHER_key_length?$CIcipher?$CJ?5?$DM?$DN@ 100a3fc8     libeay32:p5_crpt.obj
 0002:0001c000       ??_C@_0CD@HMFJNEFL@EVP_CIPHER_iv_length?$CIcipher?$CJ?5?$DM?$DN?5@ 100a4000     libeay32:p5_crpt.obj
 0002:0001c024       ??_C@_0BL@NPGDKDGJ@?4?2crypto?2pkcs12?2p12_crpt?4c?$AA@ 100a4024     libeay32:p12_crpt.obj
 0002:0001c040       ??_C@_0BJ@NBKGKDKG@?4?2crypto?2asn1?2a_bitstr?4c?$AA@ 100a4040     libeay32:a_bitstr.obj
 0002:0001c600       ??_C@_0O@HGJALPPJ@recipientinfo?$AA@ 100a4600     libeay32:pk7_asn1.obj
 0002:0001c610       ??_C@_08ENNDKKOI@enc_data?$AA@ 100a4610     libeay32:pk7_asn1.obj
 0002:0001c61c       ??_C@_0P@KCJMJLOD@PKCS7_ENVELOPE?$AA@ 100a461c     libeay32:pk7_asn1.obj
 0002:0001c62c       ??_C@_0O@ODFHHMFC@key_enc_algor?$AA@ 100a462c     libeay32:pk7_asn1.obj
 0002:0001c63c       ??_C@_07LBLKCHGJ@enc_key?$AA@ 100a463c     libeay32:pk7_asn1.obj
 0002:0001c644       ??_C@_0BB@MGPEFENK@PKCS7_RECIP_INFO?$AA@ 100a4644     libeay32:pk7_asn1.obj
 0002:0001c658       ??_C@_0N@IEAAACJL@content_type?$AA@ 100a4658     libeay32:pk7_asn1.obj
 0002:0001c668       ??_C@_0BC@INKEDPEG@PKCS7_ENC_CONTENT?$AA@ 100a4668     libeay32:pk7_asn1.obj
 0002:0001c67c       ??_C@_0BE@LMHBPFDD@PKCS7_SIGN_ENVELOPE?$AA@ 100a467c     libeay32:pk7_asn1.obj
 0002:0001c690       ??_C@_0O@GIFGHKGC@PKCS7_ENCRYPT?$AA@ 100a4690     libeay32:pk7_asn1.obj
 0002:0001c6a0       ??_C@_02EBCANADN@md?$AA@   100a46a0     libeay32:pk7_asn1.obj
 0002:0001c6a4       ??_C@_0N@NAILNAH@PKCS7_DIGEST?$AA@ 100a46a4     libeay32:pk7_asn1.obj
 0002:0001c6b4       ??_C@_0BB@ODHHPICH@PKCS7_ATTRIBUTES?$AA@ 100a46b4     libeay32:pk7_asn1.obj
 0002:0001c6c8       ??_C@_0BA@IJMFEGLH@PKCS7_ATTR_SIGN?$AA@ 100a46c8     libeay32:pk7_asn1.obj
 0002:0001c6d8       ??_C@_0BC@DLHIINOH@PKCS7_ATTR_VERIFY?$AA@ 100a46d8     libeay32:pk7_asn1.obj
 0002:0001c6ec       ??_C@_06GOHGJFCL@d?4sign?$AA@ 100a46ec     libeay32:pk7_asn1.obj
 0002:0001c6f4       ??_C@_0M@CLKMIMCI@d?4enveloped?$AA@ 100a46f4     libeay32:pk7_asn1.obj
 0002:0001c700       ??_C@_0BH@FHPJHCLF@d?4signed_and_enveloped?$AA@ 100a4700     libeay32:pk7_asn1.obj
 0002:0001c718       ??_C@_08JOIJLLGO@d?4digest?$AA@ 100a4718     libeay32:pk7_asn1.obj
 0002:0001c724       ??_C@_0M@IDEHBFAL@d?4encrypted?$AA@ 100a4724     libeay32:pk7_asn1.obj
 0002:0001c730       ??_C@_05BKMMPIPN@PKCS7?$AA@ 100a4730     libeay32:pk7_asn1.obj
 0002:0001c738       ??_C@_07MPDKKGPO@md_algs?$AA@ 100a4738     libeay32:pk7_asn1.obj
 0002:0001c740       ??_C@_08ODCIAOPM@contents?$AA@ 100a4740     libeay32:pk7_asn1.obj
 0002:0001c74c       ??_C@_04PHJBACIC@cert?$AA@ 100a474c     libeay32:pk7_asn1.obj
 0002:0001c754       ??_C@_03GJBFOAJL@crl?$AA@  100a4754     libeay32:pk7_asn1.obj
 0002:0001c758       ??_C@_0M@KEDNAHBP@signer_info?$AA@ 100a4758     libeay32:pk7_asn1.obj
 0002:0001c764       ??_C@_0N@CKBJFFNF@PKCS7_SIGNED?$AA@ 100a4764     libeay32:pk7_asn1.obj
 0002:0001c774       ??_C@_0BC@PMGLGNPO@issuer_and_serial?$AA@ 100a4774     libeay32:pk7_asn1.obj
 0002:0001c788       ??_C@_0L@OGBFEEJI@digest_alg?$AA@ 100a4788     libeay32:pk7_asn1.obj
 0002:0001c794       ??_C@_09PLABOLFJ@auth_attr?$AA@ 100a4794     libeay32:pk7_asn1.obj
 0002:0001c7a0       ??_C@_0P@KLFHBHJD@digest_enc_alg?$AA@ 100a47a0     libeay32:pk7_asn1.obj
 0002:0001c7b0       ??_C@_0L@PJDBOMFC@enc_digest?$AA@ 100a47b0     libeay32:pk7_asn1.obj
 0002:0001c7bc       ??_C@_0M@NNBFAOJK@unauth_attr?$AA@ 100a47bc     libeay32:pk7_asn1.obj
 0002:0001c7c8       ??_C@_0BC@BFFCPPDG@PKCS7_SIGNER_INFO?$AA@ 100a47c8     libeay32:pk7_asn1.obj
 0002:0001c7dc       ??_C@_06KCELPKEE@serial?$AA@ 100a47dc     libeay32:pk7_asn1.obj
 0002:0001c7e4       ??_C@_0BI@POAIONGK@PKCS7_ISSUER_AND_SERIAL?$AA@ 100a47e4     libeay32:pk7_asn1.obj
 0002:0001c8a0       _x509_name_ff              100a48a0     libeay32:x_name.obj
 0002:0001c8d8       ??_C@_0BA@KEPIIMOE@X509_NAME_ENTRY?$AA@ 100a48d8     libeay32:x_name.obj
 0002:0001c8e8       ??_C@_04IEOKPFHO@RDNS?$AA@ 100a48e8     libeay32:x_name.obj
 0002:0001c8f0       ??_C@_0BC@GJMCELDI@X509_NAME_ENTRIES?$AA@ 100a48f0     libeay32:x_name.obj
 0002:0001c904       ??_C@_04FABLJDN@Name?$AA@  100a4904     libeay32:x_name.obj
 0002:0001c90c       ??_C@_0BD@FDNDONGH@X509_NAME_INTERNAL?$AA@ 100a490c     libeay32:x_name.obj
 0002:0001c920       ??_C@_09KGNJKBNF@X509_NAME?$AA@ 100a4920     libeay32:x_name.obj
 0002:0001c92c       ??_C@_0BH@KOHBKEEJ@?4?2crypto?2asn1?2x_name?4c?$AA@ 100a492c     libeay32:x_name.obj
 0002:0001cab4       ??_C@_08GCHKOCBP@validity?$AA@ 100a4ab4     libeay32:x_x509.obj
 0002:0001cac0       ??_C@_07JNNGEGGO@subject?$AA@ 100a4ac0     libeay32:x_x509.obj
 0002:0001cac8       ??_C@_09KIIAMAEE@issuerUID?$AA@ 100a4ac8     libeay32:x_x509.obj
 0002:0001cad4       ??_C@_0L@JMFHLKAL@subjectUID?$AA@ 100a4ad4     libeay32:x_x509.obj
 0002:0001cae0       ??_C@_0L@ICCCPLKC@extensions?$AA@ 100a4ae0     libeay32:x_x509.obj
 0002:0001caec       ??_C@_09LCJGKABB@X509_CINF?$AA@ 100a4aec     libeay32:x_x509.obj
 0002:0001caf8       ??_C@_09NKDPGBBA@cert_info?$AA@ 100a4af8     libeay32:x_x509.obj
 0002:0001cb04       ??_C@_07OBHFIHGJ@sig_alg?$AA@ 100a4b04     libeay32:x_x509.obj
 0002:0001cc98       ??_C@_0P@HBDMPDNI@revocationDate?$AA@ 100a4c98     libeay32:x_crl.obj
 0002:0001cca8       ??_C@_0N@JBPKOADN@X509_REVOKED?$AA@ 100a4ca8     libeay32:x_crl.obj
 0002:0001ccb8       ??_C@_0L@MPDCJAIM@lastUpdate?$AA@ 100a4cb8     libeay32:x_crl.obj
 0002:0001ccc4       ??_C@_0L@BMOABHOK@nextUpdate?$AA@ 100a4cc4     libeay32:x_crl.obj
 0002:0001ccd0       ??_C@_07MIJFAMBD@revoked?$AA@ 100a4cd0     libeay32:x_crl.obj
 0002:0001ccd8       ??_C@_0O@IMOAEKCP@X509_CRL_INFO?$AA@ 100a4cd8     libeay32:x_crl.obj
 0002:0001cce8       ??_C@_08JGFBPDAP@X509_CRL?$AA@ 100a4ce8     libeay32:x_crl.obj
 0002:0001ccf4       ??_C@_0BG@GOAPPJIK@?4?2crypto?2asn1?2x_crl?4c?$AA@ 100a4cf4     libeay32:x_crl.obj
 0002:0001cd20       ??_C@_0N@MJCHLFGM@NO?5X509_NAME?$AA@ 100a4d20     libeay32:x509_obj.obj
 0002:0001cd30       ??_C@_0BJ@GNDHDHAM@?4?2crypto?2x509?2x509_obj?4c?$AA@ 100a4d30     libeay32:x509_obj.obj
 0002:0001cd4c       ??_C@_03HIJPJGOM@?$CF?$CKs?$AA@ 100a4d4c     libeay32:v3_prn.obj
 0002:0001cd50       ??_C@_08DGFAABGD@?$DMEMPTY?$DO?6?$AA@ 100a4d50     libeay32:v3_prn.obj
 0002:0001cd5c       ??_C@_07GOIIHCND@?$CF?$CKs?$CFs?3?6?$AA@ 100a4d5c     libeay32:v3_prn.obj
 0002:0001cd64       ??_C@_0BH@DKCHHHA@?4?2crypto?2cms?2cms_lib?4c?$AA@ 100a4d64     libeay32:cms_lib.obj
 0002:0001cd7c       _AES_version               100a4d7c     libeay32:aes_misc.obj
 0002:0001cda4       ??_C@_0BH@CODBJNMN@?4?2crypto?2cms?2cms_enc?4c?$AA@ 100a4da4     libeay32:cms_enc.obj
 0002:0001cdbc       ??_C@_0BI@JJBFJHOL@?4?2crypto?2cms?2cms_pwri?4c?$AA@ 100a4dbc     libeay32:cms_pwri.obj
 0002:0001cdf0       ??_C@_09DHMKJJNA@ASN1_TIME?$AA@ 100a4df0     libeay32:a_time.obj
 0002:0001cdfc       ??_C@_0BH@IBOPBBIO@?4?2crypto?2asn1?2a_time?4c?$AA@ 100a4dfc     libeay32:a_time.obj
 0002:0001ce14       ??_C@_0BG@NCHFDOAO@?4?2crypto?2evp?2p_sign?4c?$AA@ 100a4e14     libeay32:p_sign.obj
 0002:0001ce2c       _X509_version              100a4e2c     libeay32:x509_vfy.obj
 0002:0001ce58       ??_C@_07DLHCIBDH@default?$AA@ 100a4e58     libeay32:x509_vfy.obj
 0002:0001ce60       ??_C@_0L@LCHPILLE@SSL?5client?$AA@ 100a4e60     libeay32:v3_purp.obj
 0002:0001ce6c       ??_C@_09BLMJDCHK@sslclient?$AA@ 100a4e6c     libeay32:v3_purp.obj
 0002:0001ce78       ??_C@_0L@PNDNFADH@SSL?5server?$AA@ 100a4e78     libeay32:v3_purp.obj
 0002:0001ce84       ??_C@_09FEILOJPJ@sslserver?$AA@ 100a4e84     libeay32:v3_purp.obj
 0002:0001ce90       ??_C@_0BE@BPEJPGJG@Netscape?5SSL?5server?$AA@ 100a4e90     libeay32:v3_purp.obj
 0002:0001cea4       ??_C@_0M@GKHHMMAE@nssslserver?$AA@ 100a4ea4     libeay32:v3_purp.obj
 0002:0001ceb0       ??_C@_0P@LNDEBCCO@S?1MIME?5signing?$AA@ 100a4eb0     libeay32:v3_purp.obj
 0002:0001cec0       ??_C@_09JPGBHOKH@smimesign?$AA@ 100a4ec0     libeay32:v3_purp.obj
 0002:0001cecc       ??_C@_0BC@DOGNOPGC@S?1MIME?5encryption?$AA@ 100a4ecc     libeay32:v3_purp.obj
 0002:0001cee0       ??_C@_0N@BPFJELMP@smimeencrypt?$AA@ 100a4ee0     libeay32:v3_purp.obj
 0002:0001cef0       ??_C@_0M@MEKLJHLA@CRL?5signing?$AA@ 100a4ef0     libeay32:v3_purp.obj
 0002:0001cefc       ??_C@_07IOMCDAPH@crlsign?$AA@ 100a4efc     libeay32:v3_purp.obj
 0002:0001cf04       ??_C@_0M@NMNFLNDB@Any?5Purpose?$AA@ 100a4f04     libeay32:v3_purp.obj
 0002:0001cf10       ??_C@_03OBJFJEBA@any?$AA@  100a4f10     libeay32:v3_purp.obj
 0002:0001cf14       ??_C@_0M@NEPIMEJA@OCSP?5helper?$AA@ 100a4f14     libeay32:v3_purp.obj
 0002:0001cf20       ??_C@_0L@IMHCEJBK@ocsphelper?$AA@ 100a4f20     libeay32:v3_purp.obj
 0002:0001cf2c       ??_C@_0BD@HLGKGIIB@Time?5Stamp?5signing?$AA@ 100a4f2c     libeay32:v3_purp.obj
 0002:0001cf40       ??_C@_0O@MABGKINF@timestampsign?$AA@ 100a4f40     libeay32:v3_purp.obj
 0002:0001cf80       ??_C@_0BK@COINEMNE@?4?2crypto?2x509v3?2v3_purp?4c?$AA@ 100a4f80     libeay32:v3_purp.obj
 0002:0001cf9c       ??_C@_0BM@JJNBBBD@?4?2crypto?2engine?2tb_cipher?4c?$AA@ 100a4f9c     libeay32:tb_cipher.obj
 0002:0001d87c       ??_C@_0BF@PJIDMOFK@?4?2crypto?2evp?2e_aes?4c?$AA@ 100a587c     libeay32:e_aes.obj
 0002:0001d894       ??_C@_0BF@BPCDJGOK@?4?2crypto?2ec?2ec_oct?4c?$AA@ 100a5894     libeay32:ec_oct.obj
 0002:0001d8ac       ??_C@_0BG@BBPCNJCA@?4?2crypto?2cms?2cms_io?4c?$AA@ 100a58ac     libeay32:cms_io.obj
 0002:0001d8c4       _CONF_version              100a58c4     libeay32:conf_lib.obj
 0002:0001d8f0       ??_C@_02JDPG@rb?$AA@       100a58f0     libeay32:conf_lib.obj
 0002:0001d8f4       ??_C@_0BJ@NLLAICIC@?4?2crypto?2conf?2conf_lib?4c?$AA@ 100a58f4     libeay32:conf_lib.obj
 0002:0001d910       ??_C@_06NGDKEHGB@?5name?$DN?$AA@ 100a5910     libeay32:conf_lib.obj
 0002:0001d918       ??_C@_06BDPCGOPM@group?$DN?$AA@ 100a5918     libeay32:conf_lib.obj
 0002:0001d920       ??_C@_0BH@IMFGHBFJ@?4?2crypto?2dso?2dso_lib?4c?$AA@ 100a5920     libeay32:dso_lib.obj
 0002:0001d9bc       ??_C@_03NCODFONH@EOC?$AA@  100a59bc     libeay32:asn1_par.obj
 0002:0001d9c0       ??_C@_07JDEDMABE@BOOLEAN?$AA@ 100a59c0     libeay32:asn1_par.obj
 0002:0001d9c8       ??_C@_07EHCIHKNF@INTEGER?$AA@ 100a59c8     libeay32:asn1_par.obj
 0002:0001d9d0       ??_C@_0L@EKOKPLKE@BIT?5STRING?$AA@ 100a59d0     libeay32:asn1_par.obj
 0002:0001d9dc       ??_C@_0N@KPGGMDFC@OCTET?5STRING?$AA@ 100a59dc     libeay32:asn1_par.obj
 0002:0001d9ec       ??_C@_06IAMCMNFI@OBJECT?$AA@ 100a59ec     libeay32:asn1_par.obj
 0002:0001d9f4       ??_C@_0BC@HDOCNDIH@OBJECT?5DESCRIPTOR?$AA@ 100a59f4     libeay32:asn1_par.obj
 0002:0001da08       ??_C@_08JHLDEHEK@EXTERNAL?$AA@ 100a5a08     libeay32:asn1_par.obj
 0002:0001da14       ??_C@_04PKFANLLI@REAL?$AA@ 100a5a14     libeay32:asn1_par.obj
 0002:0001da1c       ??_C@_0L@KNIEMAKM@ENUMERATED?$AA@ 100a5a1c     libeay32:asn1_par.obj
 0002:0001da28       ??_C@_09EKNCOIGI@?$DMASN1?511?$DO?$AA@ 100a5a28     libeay32:asn1_par.obj
 0002:0001da34       ??_C@_0L@DCBPGANN@UTF8STRING?$AA@ 100a5a34     libeay32:asn1_par.obj
 0002:0001da40       ??_C@_09EJFGDMAG@?$DMASN1?513?$DO?$AA@ 100a5a40     libeay32:asn1_par.obj
 0002:0001da4c       ??_C@_09EMBJCKID@?$DMASN1?514?$DO?$AA@ 100a5a4c     libeay32:asn1_par.obj
 0002:0001da58       ??_C@_09ENNLEALE@?$DMASN1?515?$DO?$AA@ 100a5a58     libeay32:asn1_par.obj
 0002:0001da64       ??_C@_08POLPFBMC@SEQUENCE?$AA@ 100a5a64     libeay32:asn1_par.obj
 0002:0001da70       ??_C@_03KPIFFHNE@SET?$AA@  100a5a70     libeay32:asn1_par.obj
 0002:0001da74       ??_C@_0O@DFADMOGA@NUMERICSTRING?$AA@ 100a5a74     libeay32:asn1_par.obj
 0002:0001da84       ??_C@_0BA@FKHILLED@PRINTABLESTRING?$AA@ 100a5a84     libeay32:asn1_par.obj
 0002:0001da94       ??_C@_09FMBHBANP@T61STRING?$AA@ 100a5a94     libeay32:asn1_par.obj
 0002:0001daa0       ??_C@_0P@LNAMNBEL@VIDEOTEXSTRING?$AA@ 100a5aa0     libeay32:asn1_par.obj
 0002:0001dab0       ??_C@_09JOMPLKGB@IA5STRING?$AA@ 100a5ab0     libeay32:asn1_par.obj
 0002:0001dabc       ??_C@_07HIOLDDN@UTCTIME?$AA@ 100a5abc     libeay32:asn1_par.obj
 0002:0001dac4       ??_C@_0BA@LKNBIJBB@GENERALIZEDTIME?$AA@ 100a5ac4     libeay32:asn1_par.obj
 0002:0001dad4       ??_C@_0O@MABADFB@GRAPHICSTRING?$AA@ 100a5ad4     libeay32:asn1_par.obj
 0002:0001dae4       ??_C@_0O@KDAJCBO@VISIBLESTRING?$AA@ 100a5ae4     libeay32:asn1_par.obj
 0002:0001daf4       ??_C@_0O@DKDEPFLO@GENERALSTRING?$AA@ 100a5af4     libeay32:asn1_par.obj
 0002:0001db04       ??_C@_0BA@EJHHDALK@UNIVERSALSTRING?$AA@ 100a5b04     libeay32:asn1_par.obj
 0002:0001db14       ??_C@_09FGHEBGDO@?$DMASN1?529?$DO?$AA@ 100a5b14     libeay32:asn1_par.obj
 0002:0001db20       ??_C@_09BIBABMFN@BMPSTRING?$AA@ 100a5b20     libeay32:asn1_par.obj
 0002:0001db2c       ??_C@_09GPGAJHPD@?$CIunknown?$CJ?$AA@ 100a5b2c     libeay32:asn1_par.obj
 0002:0001db38       ??_C@_0BI@LIGHHEPI@?4?2crypto?2asn1?2a_mbstr?4c?$AA@ 100a5b38     libeay32:a_mbstr.obj
 0002:0001db50       ??_C@_03JALODAI@?$CFld?$AA@ 100a5b50     libeay32:a_mbstr.obj
 0002:0001db54       ??_C@_08JJBFGKFE@minsize?$DN?$AA@ 100a5b54     libeay32:a_mbstr.obj
 0002:0001db60       ??_C@_08EOPONIBF@maxsize?$DN?$AA@ 100a5b60     libeay32:a_mbstr.obj
 0002:0001db6c       ??_C@_0M@PCEPOGPN@?8?$CI?$CJ?$CL?0?9?4?1?3?$DN?$DP?$AA@ 100a5b6c     libeay32:a_mbstr.obj
 0002:0001dcbc       ??_C@_06GKCAPDID@pubkey?$AA@ 100a5cbc     libeay32:x_req.obj
 0002:0001dcc4       ??_C@_0O@EHCMNJCB@X509_REQ_INFO?$AA@ 100a5cc4     libeay32:x_req.obj
 0002:0001dcd4       ??_C@_08JILJKJG@req_info?$AA@ 100a5cd4     libeay32:x_req.obj
 0002:0001dce0       ??_C@_08JIPBBKBM@X509_REQ?$AA@ 100a5ce0     libeay32:x_req.obj
 0002:0001dcec       ??_C@_0BJ@IFLBEPC@?4?2crypto?2x509?2x509_att?4c?$AA@ 100a5cec     libeay32:x509_att.obj
 0002:0001de98       _v3_alt                    100a5e98     libeay32:v3_alt.obj
 0002:0001df40       ??_C@_0O@NHCJKCDC@?$DMunsupported?$DO?$AA@ 100a5f40     libeay32:v3_alt.obj
 0002:0001df50       ??_C@_09PAKBLAPA@othername?$AA@ 100a5f50     libeay32:v3_alt.obj
 0002:0001df5c       ??_C@_08EBDOEGJI@X400Name?$AA@ 100a5f5c     libeay32:v3_alt.obj
 0002:0001df68       ??_C@_0N@EEELPIKD@EdiPartyName?$AA@ 100a5f68     libeay32:v3_alt.obj
 0002:0001df78       ??_C@_05HKHCDHCL@email?$AA@ 100a5f78     libeay32:v3_alt.obj
 0002:0001df80       ??_C@_03CBFPEBNE@DNS?$AA@  100a5f80     libeay32:v3_alt.obj
 0002:0001df84       ??_C@_03GMOLNBOB@URI?$AA@  100a5f84     libeay32:v3_alt.obj
 0002:0001df88       ??_C@_07FDBCPIKC@DirName?$AA@ 100a5f88     libeay32:v3_alt.obj
 0002:0001df90       ??_C@_02EMFKHFLK@?$CFX?$AA@ 100a5f90     libeay32:v3_alt.obj
 0002:0001df94       ??_C@_09DPMBDOD@?$DMinvalid?$DO?$AA@ 100a5f94     libeay32:v3_alt.obj
 0002:0001dfa0       ??_C@_0L@NGHMMCPJ@IP?5Address?$AA@ 100a5fa0     libeay32:v3_alt.obj
 0002:0001dfac       ??_C@_0O@KAIENCPE@Registered?5ID?$AA@ 100a5fac     libeay32:v3_alt.obj
 0002:0001dfbc       ??_C@_0BI@PGFKPDEJ@othername?3?$DMunsupported?$DO?$AA@ 100a5fbc     libeay32:v3_alt.obj
 0002:0001dfd4       ??_C@_0BH@HDOLFIDG@X400Name?3?$DMunsupported?$DO?$AA@ 100a5fd4     libeay32:v3_alt.obj
 0002:0001dfec       ??_C@_0BL@HEOLJEB@EdiPartyName?3?$DMunsupported?$DO?$AA@ 100a5fec     libeay32:v3_alt.obj
 0002:0001e008       ??_C@_08LPBGKPKE@email?3?$CFs?$AA@ 100a6008     libeay32:v3_alt.obj
 0002:0001e014       ??_C@_06DNDEBJBH@DNS?3?$CFs?$AA@ 100a6014     libeay32:v3_alt.obj
 0002:0001e01c       ??_C@_06KCNJMDKO@URI?3?$CFs?$AA@ 100a601c     libeay32:v3_alt.obj
 0002:0001e024       ??_C@_09JDCPLDLD@DirName?3?5?$AA@ 100a6024     libeay32:v3_alt.obj
 0002:0001e030       ??_C@_0BH@OAMIHBGI@IP?5Address?3?$CFd?4?$CFd?4?$CFd?4?$CFd?$AA@ 100a6030     libeay32:v3_alt.obj
 0002:0001e048       ??_C@_03NMJGLHB@?3?$CFX?$AA@ 100a6048     libeay32:v3_alt.obj
 0002:0001e04c       ??_C@_0BF@JMMIKJMP@IP?5Address?3?$DMinvalid?$DO?$AA@ 100a604c     libeay32:v3_alt.obj
 0002:0001e064       ??_C@_0BJ@EOBOCMHM@?4?2crypto?2x509v3?2v3_alt?4c?$AA@ 100a6064     libeay32:v3_alt.obj
 0002:0001e080       ??_C@_04COAGEIMF@copy?$AA@ 100a6080     libeay32:v3_alt.obj
 0002:0001e088       ??_C@_04HDMMNHEL@move?$AA@ 100a6088     libeay32:v3_alt.obj
 0002:0001e090       ??_C@_03FEOBNLIE@RID?$AA@  100a6090     libeay32:v3_alt.obj
 0002:0001e094       ??_C@_02MFEOMNPG@IP?$AA@   100a6094     libeay32:v3_alt.obj
 0002:0001e098       ??_C@_07KKGEJKPE@dirName?$AA@ 100a6098     libeay32:v3_alt.obj
 0002:0001e0a0       ??_C@_09DBGAJPPE@otherName?$AA@ 100a60a0     libeay32:v3_alt.obj
 0002:0001e0ac       ??_C@_08LNPIPPMM@section?$DN?$AA@ 100a60ac     libeay32:v3_alt.obj
 0002:0001e0b8       _v3_bcons                  100a60b8     libeay32:v3_bcons.obj
 0002:0001e134       ??_C@_02DGMJAJHC@ca?$AA@   100a6134     libeay32:v3_bcons.obj
 0002:0001e138       ??_C@_07OGCPICFF@pathlen?$AA@ 100a6138     libeay32:v3_bcons.obj
 0002:0001e140       ??_C@_0BC@PKPCGCD@BASIC_CONSTRAINTS?$AA@ 100a6140     libeay32:v3_bcons.obj
 0002:0001e154       ??_C@_02JLAAGLDA@CA?$AA@   100a6154     libeay32:v3_bcons.obj
 0002:0001e158       ??_C@_0BL@NEGNMNAN@?4?2crypto?2x509v3?2v3_bcons?4c?$AA@ 100a6158     libeay32:v3_bcons.obj
 0002:0001e174       ??_C@_0L@HNMCLCCI@SSL?5Client?$AA@ 100a6174     libeay32:v3_bitst.obj
 0002:0001e180       ??_C@_06DGDLPBAN@client?$AA@ 100a6180     libeay32:v3_bitst.obj
 0002:0001e188       ??_C@_0L@DCIAGJKL@SSL?5Server?$AA@ 100a6188     libeay32:v3_bitst.obj
 0002:0001e194       ??_C@_06HJHJCKIO@server?$AA@ 100a6194     libeay32:v3_bitst.obj
 0002:0001e19c       ??_C@_0P@DDHLFHHK@Object?5Signing?$AA@ 100a619c     libeay32:v3_bitst.obj
 0002:0001e1ac       ??_C@_07GIOKFKGL@objsign?$AA@ 100a61ac     libeay32:v3_bitst.obj
 0002:0001e1b4       ??_C@_06CGLFEPBO@Unused?$AA@ 100a61b4     libeay32:v3_bitst.obj
 0002:0001e1bc       ??_C@_08FINKBBAF@reserved?$AA@ 100a61bc     libeay32:v3_bitst.obj
 0002:0001e1c8       ??_C@_06FMDLPOFJ@SSL?5CA?$AA@ 100a61c8     libeay32:v3_bitst.obj
 0002:0001e1d0       ??_C@_05JHLHLOEK@sslCA?$AA@ 100a61d0     libeay32:v3_bitst.obj
 0002:0001e1d8       ??_C@_09GIEMCMEO@S?1MIME?5CA?$AA@ 100a61d8     libeay32:v3_bitst.obj
 0002:0001e1e4       ??_C@_07FFHDGPMJ@emailCA?$AA@ 100a61e4     libeay32:v3_bitst.obj
 0002:0001e1ec       ??_C@_0BC@FAMHGMHB@Object?5Signing?5CA?$AA@ 100a61ec     libeay32:v3_bitst.obj
 0002:0001e200       ??_C@_05JLEIJNEE@objCA?$AA@ 100a6200     libeay32:v3_bitst.obj
 0002:0001e208       ??_C@_0BC@DPKEIPIO@Digital?5Signature?$AA@ 100a6208     libeay32:v3_bitst.obj
 0002:0001e21c       ??_C@_0BB@MFKHIIOM@digitalSignature?$AA@ 100a621c     libeay32:v3_bitst.obj
 0002:0001e230       ??_C@_0BA@DJCGBBAI@Non?5Repudiation?$AA@ 100a6230     libeay32:v3_bitst.obj
 0002:0001e240       ??_C@_0P@GPCNPOGO@nonRepudiation?$AA@ 100a6240     libeay32:v3_bitst.obj
 0002:0001e250       ??_C@_0BB@KNACIBEN@Key?5Encipherment?$AA@ 100a6250     libeay32:v3_bitst.obj
 0002:0001e264       ??_C@_0BA@MINCLOJG@keyEncipherment?$AA@ 100a6264     libeay32:v3_bitst.obj
 0002:0001e274       ??_C@_0BC@GNPIAJLP@Data?5Encipherment?$AA@ 100a6274     libeay32:v3_bitst.obj
 0002:0001e288       ??_C@_0BB@LBKKKIGO@dataEncipherment?$AA@ 100a6288     libeay32:v3_bitst.obj
 0002:0001e29c       ??_C@_0O@EOJOBCHL@Key?5Agreement?$AA@ 100a629c     libeay32:v3_bitst.obj
 0002:0001e2ac       ??_C@_0N@GONHKOEO@keyAgreement?$AA@ 100a62ac     libeay32:v3_bitst.obj
 0002:0001e2bc       ??_C@_0BB@ELNGMDLH@Certificate?5Sign?$AA@ 100a62bc     libeay32:v3_bitst.obj
 0002:0001e2d0       ??_C@_0M@ONBOOMGI@keyCertSign?$AA@ 100a62d0     libeay32:v3_bitst.obj
 0002:0001e2dc       ??_C@_08OCJGKMAN@CRL?5Sign?$AA@ 100a62dc     libeay32:v3_bitst.obj
 0002:0001e2e8       ??_C@_07IHBCCDFJ@cRLSign?$AA@ 100a62e8     libeay32:v3_bitst.obj
 0002:0001e2f0       ??_C@_0O@CANGKMJD@Encipher?5Only?$AA@ 100a62f0     libeay32:v3_bitst.obj
 0002:0001e300       ??_C@_0N@BEFDLIKF@encipherOnly?$AA@ 100a6300     libeay32:v3_bitst.obj
 0002:0001e310       ??_C@_0O@FKBAPCEG@Decipher?5Only?$AA@ 100a6310     libeay32:v3_bitst.obj
 0002:0001e320       ??_C@_0N@LIFHMFCO@decipherOnly?$AA@ 100a6320     libeay32:v3_bitst.obj
 0002:0001e330       _v3_nscert                 100a6330     libeay32:v3_bitst.obj
 0002:0001e368       _v3_key_usage              100a6368     libeay32:v3_bitst.obj
 0002:0001e3a0       ??_C@_0BL@BMKLALJB@?4?2crypto?2x509v3?2v3_bitst?4c?$AA@ 100a63a0     libeay32:v3_bitst.obj
 0002:0001e3bc       _v3_ext_ku                 100a63bc     libeay32:v3_extku.obj
 0002:0001e3f4       _v3_ocsp_accresp           100a63f4     libeay32:v3_extku.obj
 0002:0001e45c       ??_C@_0BD@CKAGEBEF@EXTENDED_KEY_USAGE?$AA@ 100a645c     libeay32:v3_extku.obj
 0002:0001e470       ??_C@_0BL@DPOLCONE@?4?2crypto?2x509v3?2v3_extku?4c?$AA@ 100a6470     libeay32:v3_extku.obj
 0002:0001e48c       _v3_pkey_usage_period      100a648c     libeay32:v3_pku.obj
 0002:0001e508       ??_C@_09MJPOMOII@notBefore?$AA@ 100a6508     libeay32:v3_pku.obj
 0002:0001e514       ??_C@_08PJIFIJBI@notAfter?$AA@ 100a6514     libeay32:v3_pku.obj
 0002:0001e520       ??_C@_0BC@CCOKACDM@PKEY_USAGE_PERIOD?$AA@ 100a6520     libeay32:v3_pku.obj
 0002:0001e534       ??_C@_0N@KGLJEEMK@Not?5Before?3?5?$AA@ 100a6534     libeay32:v3_pku.obj
 0002:0001e544       ??_C@_0M@FCHJLIHE@Not?5After?3?5?$AA@ 100a6544     libeay32:v3_pku.obj
 0002:0001e550       _v3_sxnet                  100a6550     libeay32:v3_sxnet.obj
 0002:0001e610       ??_C@_04LDDJGOBB@zone?$AA@ 100a6610     libeay32:v3_sxnet.obj
 0002:0001e618       ??_C@_04CCHAHKJA@user?$AA@ 100a6618     libeay32:v3_sxnet.obj
 0002:0001e620       ??_C@_07FLDOGLPN@SXNETID?$AA@ 100a6620     libeay32:v3_sxnet.obj
 0002:0001e628       ??_C@_03NDFJNBKD@ids?$AA@  100a6628     libeay32:v3_sxnet.obj
 0002:0001e62c       ??_C@_05BPAJFIHK@SXNET?$AA@ 100a662c     libeay32:v3_sxnet.obj
 0002:0001e634       ??_C@_0BI@GOEPAKBG@?$CF?$CKsVersion?3?5?$CFld?5?$CI0x?$CFlX?$CJ?$AA@ 100a6634     libeay32:v3_sxnet.obj
 0002:0001e64c       ??_C@_0BF@NMLBNADB@?6?$CF?$CKsZone?3?5?$CFs?0?5User?3?5?$AA@ 100a664c     libeay32:v3_sxnet.obj
 0002:0001e664       ??_C@_0BL@CAPOOOIB@?4?2crypto?2x509v3?2v3_sxnet?4c?$AA@ 100a6664     libeay32:v3_sxnet.obj
 0002:0001e680       _v3_ns_ia5_list            100a6680     libeay32:v3_ia5.obj
 0002:0001e840       ??_C@_0BJ@HJHFFFPI@?4?2crypto?2x509v3?2v3_ia5?4c?$AA@ 100a6840     libeay32:v3_ia5.obj
 0002:0001e85c       _v3_skey_id                100a685c     libeay32:v3_skey.obj
 0002:0001e894       ??_C@_0BK@IJHBDBLK@?4?2crypto?2x509v3?2v3_skey?4c?$AA@ 100a6894     libeay32:v3_skey.obj
 0002:0001e8b0       ??_C@_04OIJGJDKO@hash?$AA@ 100a68b0     libeay32:v3_skey.obj
 0002:0001e8b8       _v3_akey_id                100a68b8     libeay32:v3_akey.obj
 0002:0001e8f0       ??_C@_05CNHMOIOC@keyid?$AA@ 100a68f0     libeay32:v3_akey.obj
 0002:0001e8f8       ??_C@_06KHDOHNKC@always?$AA@ 100a68f8     libeay32:v3_akey.obj
 0002:0001e900       ??_C@_0BK@HJDALMFN@?4?2crypto?2x509v3?2v3_akey?4c?$AA@ 100a6900     libeay32:v3_akey.obj
 0002:0001e91c       _v3_crl_num                100a691c     libeay32:v3_int.obj
 0002:0001e954       _v3_delta_crl              100a6954     libeay32:v3_int.obj
 0002:0001e98c       _v3_inhibit_anyp           100a698c     libeay32:v3_int.obj
 0002:0001e9c4       ??_C@_0M@NNPCGPMF@Unspecified?$AA@ 100a69c4     libeay32:v3_enum.obj
 0002:0001e9d0       ??_C@_0M@MFMDLEDN@unspecified?$AA@ 100a69d0     libeay32:v3_enum.obj
 0002:0001e9dc       ??_C@_0P@JENDIECI@Key?5Compromise?$AA@ 100a69dc     libeay32:v3_enum.obj
 0002:0001e9ec       ??_C@_0O@MCEAAJLH@keyCompromise?$AA@ 100a69ec     libeay32:v3_enum.obj
 0002:0001e9fc       ??_C@_0O@OOGICOKH@CA?5Compromise?$AA@ 100a69fc     libeay32:v3_enum.obj
 0002:0001ea0c       ??_C@_0N@NONEFGOE@CACompromise?$AA@ 100a6a0c     libeay32:v3_enum.obj
 0002:0001ea1c       ??_C@_0BE@EECEIFAP@Affiliation?5Changed?$AA@ 100a6a1c     libeay32:v3_enum.obj
 0002:0001ea30       ??_C@_0BD@BNOFAJLL@affiliationChanged?$AA@ 100a6a30     libeay32:v3_enum.obj
 0002:0001ea44       ??_C@_0L@FBLGFHIM@Superseded?$AA@ 100a6a44     libeay32:v3_enum.obj
 0002:0001ea50       ??_C@_0L@NHCKNIFL@superseded?$AA@ 100a6a50     libeay32:v3_enum.obj
 0002:0001ea5c       ??_C@_0BH@OLCOAMGF@Cessation?5Of?5Operation?$AA@ 100a6a5c     libeay32:v3_enum.obj
 0002:0001ea74       ??_C@_0BF@IGJCOPF@cessationOfOperation?$AA@ 100a6a74     libeay32:v3_enum.obj
 0002:0001ea8c       ??_C@_0BB@IPDHDNJD@Certificate?5Hold?$AA@ 100a6a8c     libeay32:v3_enum.obj
 0002:0001eaa0       ??_C@_0BA@FBHLCNLK@certificateHold?$AA@ 100a6aa0     libeay32:v3_enum.obj
 0002:0001eab0       ??_C@_0BA@GLPEKBIK@Remove?5From?5CRL?$AA@ 100a6ab0     libeay32:v3_enum.obj
 0002:0001eac0       ??_C@_0O@BILLKPKO@removeFromCRL?$AA@ 100a6ac0     libeay32:v3_enum.obj
 0002:0001ead0       ??_C@_0BE@FJCCMGMM@Privilege?5Withdrawn?$AA@ 100a6ad0     libeay32:v3_enum.obj
 0002:0001eae4       ??_C@_0BD@PBLGJKCE@privilegeWithdrawn?$AA@ 100a6ae4     libeay32:v3_enum.obj
 0002:0001eaf8       ??_C@_0O@PAGOKAK@AA?5Compromise?$AA@ 100a6af8     libeay32:v3_enum.obj
 0002:0001eb08       ??_C@_0N@LOIIODKP@AACompromise?$AA@ 100a6b08     libeay32:v3_enum.obj
 0002:0001eb18       _v3_crl_reason             100a6b18     libeay32:v3_enum.obj
 0002:0001eb50       _v3_ocsp_crlid             100a6b50     libeay32:v3_ocsp.obj
 0002:0001eb88       _v3_ocsp_acutoff           100a6b88     libeay32:v3_ocsp.obj
 0002:0001ebc0       _v3_crl_invdate            100a6bc0     libeay32:v3_ocsp.obj
 0002:0001ebf8       _v3_crl_hold               100a6bf8     libeay32:v3_ocsp.obj
 0002:0001ec30       _v3_ocsp_nonce             100a6c30     libeay32:v3_ocsp.obj
 0002:0001ec68       _v3_ocsp_nocheck           100a6c68     libeay32:v3_ocsp.obj
 0002:0001eca0       _v3_ocsp_serviceloc        100a6ca0     libeay32:v3_ocsp.obj
 0002:0001ecd8       ??_C@_0M@KIKBFHBJ@?$CF?$CKscrlUrl?3?5?$AA@ 100a6cd8     libeay32:v3_ocsp.obj
 0002:0001ece4       ??_C@_0M@MLCMBODE@?$CF?$CKscrlNum?3?5?$AA@ 100a6ce4     libeay32:v3_ocsp.obj
 0002:0001ecf0       ??_C@_0N@IBJOMEDL@?$CF?$CKscrlTime?3?5?$AA@ 100a6cf0     libeay32:v3_ocsp.obj
 0002:0001ed00       ??_C@_0BK@FHPEGIMF@?4?2crypto?2x509v3?2v3_ocsp?4c?$AA@ 100a6d00     libeay32:v3_ocsp.obj
 0002:0001ed1c       ??_C@_0M@IHOINNJF@?$CF?$CKsIssuer?3?5?$AA@ 100a6d1c     libeay32:v3_ocsp.obj
 0002:0001ed28       ??_C@_04NFEJKGEM@?6?$CF?$CKs?$AA@ 100a6d28     libeay32:v3_ocsp.obj
 0002:0001ed30       _v3_cpols                  100a6d30     libeay32:v3_cpols.obj
 0002:0001ef08       ??_C@_0BE@GJBJOOCP@CERTIFICATEPOLICIES?$AA@ 100a6f08     libeay32:v3_cpols.obj
 0002:0001ef1c       ??_C@_08NEBFOBH@policyid?$AA@ 100a6f1c     libeay32:v3_cpols.obj
 0002:0001ef28       ??_C@_0L@HMNGMMJI@qualifiers?$AA@ 100a6f28     libeay32:v3_cpols.obj
 0002:0001ef34       ??_C@_0L@POLPGHJK@POLICYINFO?$AA@ 100a6f34     libeay32:v3_cpols.obj
 0002:0001ef40       ??_C@_08EECALGEF@d?4cpsuri?$AA@ 100a6f40     libeay32:v3_cpols.obj
 0002:0001ef4c       ??_C@_0N@JPAHANFF@d?4usernotice?$AA@ 100a6f4c     libeay32:v3_cpols.obj
 0002:0001ef5c       ??_C@_07LEEILOKB@pqualid?$AA@ 100a6f5c     libeay32:v3_cpols.obj
 0002:0001ef64       ??_C@_0P@POBJIHLD@POLICYQUALINFO?$AA@ 100a6f64     libeay32:v3_cpols.obj
 0002:0001ef74       ??_C@_09FIKFDFH@noticeref?$AA@ 100a6f74     libeay32:v3_cpols.obj
 0002:0001ef80       ??_C@_07MHGINJOA@exptext?$AA@ 100a6f80     libeay32:v3_cpols.obj
 0002:0001ef88       ??_C@_0L@HCNDPADF@USERNOTICE?$AA@ 100a6f88     libeay32:v3_cpols.obj
 0002:0001ef94       ??_C@_0N@HEIPMDAG@organization?$AA@ 100a6f94     libeay32:v3_cpols.obj
 0002:0001efa4       ??_C@_09CFGHNILC@noticenos?$AA@ 100a6fa4     libeay32:v3_cpols.obj
 0002:0001efb0       ??_C@_09DFHLGOKA@NOTICEREF?$AA@ 100a6fb0     libeay32:v3_cpols.obj
 0002:0001efbc       ??_C@_0BL@DEDBBIKA@?4?2crypto?2x509v3?2v3_cpols?4c?$AA@ 100a6fbc     libeay32:v3_cpols.obj
 0002:0001efd8       ??_C@_06MIFIGELF@ia5org?$AA@ 100a6fd8     libeay32:v3_cpols.obj
 0002:0001efe0       ??_C@_0BB@FIJMMMGE@policyIdentifier?$AA@ 100a6fe0     libeay32:v3_cpols.obj
 0002:0001eff4       ??_C@_03KKDAPHBH@CPS?$AA@  100a6ff4     libeay32:v3_cpols.obj
 0002:0001eff8       ??_C@_0L@LADHLIJ@userNotice?$AA@ 100a6ff8     libeay32:v3_cpols.obj
 0002:0001f004       ??_C@_0N@EALKMFB@explicitText?$AA@ 100a7004     libeay32:v3_cpols.obj
 0002:0001f014       ??_C@_0O@OKDALMJE@noticeNumbers?$AA@ 100a7014     libeay32:v3_cpols.obj
 0002:0001f024       ??_C@_0M@BBFMFBLN@?$CF?$CKsPolicy?3?5?$AA@ 100a7024     libeay32:v3_cpols.obj
 0002:0001f030       ??_C@_0M@ICGFCJNO@?$CF?$CKsCPS?3?5?$CFs?6?$AA@ 100a7030     libeay32:v3_cpols.obj
 0002:0001f03c       ??_C@_0BB@MMPKKFLI@?$CF?$CKsUser?5Notice?3?6?$AA@ 100a703c     libeay32:v3_cpols.obj
 0002:0001f050       ??_C@_0BH@CHOAEJEJ@?$CF?$CKsUnknown?5Qualifier?3?5?$AA@ 100a7050     libeay32:v3_cpols.obj
 0002:0001f068       ??_C@_0BF@OCNFPJOG@?$CF?$CKsOrganization?3?5?$CFs?6?$AA@ 100a7068     libeay32:v3_cpols.obj
 0002:0001f080       ??_C@_0O@EFHNHHDA@?$CF?$CKsNumber?$CFs?3?5?$AA@ 100a7080     libeay32:v3_cpols.obj
 0002:0001f090       ??_C@_06OJHGLDPL@?$CInull?$CJ?$AA@ 100a7090     libeay32:v3_cpols.obj
 0002:0001f098       ??_C@_0BG@IHHCDAMH@?$CF?$CKsExplicit?5Text?3?5?$CFs?6?$AA@ 100a7098     libeay32:v3_cpols.obj
 0002:0001f0b0       _v3_crld                   100a70b0     libeay32:v3_crld.obj
 0002:0001f0e8       _v3_freshest_crl           100a70e8     libeay32:v3_crld.obj
 0002:0001f310       _v3_idp                    100a7310     libeay32:v3_crld.obj
 0002:0001f348       ??_C@_06OJAIHGIC@unused?$AA@ 100a7348     libeay32:v3_crld.obj
 0002:0001f350       ??_C@_07PFOCLIJD@reasons?$AA@ 100a7350     libeay32:v3_crld.obj
 0002:0001f358       ??_C@_09GJHADLCP@CRLissuer?$AA@ 100a7358     libeay32:v3_crld.obj
 0002:0001f364       ??_C@_0O@HJHJCLAE@name?4fullname?$AA@ 100a7364     libeay32:v3_crld.obj
 0002:0001f374       ??_C@_0BC@JDMJBKME@name?4relativename?$AA@ 100a7374     libeay32:v3_crld.obj
 0002:0001f388       ??_C@_0BA@MLHIPLLG@DIST_POINT_NAME?$AA@ 100a7388     libeay32:v3_crld.obj
 0002:0001f398       ??_C@_09FBDFGJDL@distpoint?$AA@ 100a7398     libeay32:v3_crld.obj
 0002:0001f3a4       ??_C@_0L@ELIKPJIH@DIST_POINT?$AA@ 100a73a4     libeay32:v3_crld.obj
 0002:0001f3b0       ??_C@_0BG@CHNNADAE@CRLDistributionPoints?$AA@ 100a73b0     libeay32:v3_crld.obj
 0002:0001f3c8       ??_C@_0BA@BBHAIMOE@CRL_DIST_POINTS?$AA@ 100a73c8     libeay32:v3_crld.obj
 0002:0001f3d8       ??_C@_08CENLBPEH@onlyuser?$AA@ 100a73d8     libeay32:v3_crld.obj
 0002:0001f3e4       ??_C@_06PMNIEKCA@onlyCA?$AA@ 100a73e4     libeay32:v3_crld.obj
 0002:0001f3ec       ??_C@_0BA@FNMBIJDN@onlysomereasons?$AA@ 100a73ec     libeay32:v3_crld.obj
 0002:0001f3fc       ??_C@_0M@BECDICJC@indirectCRL?$AA@ 100a73fc     libeay32:v3_crld.obj
 0002:0001f408       ??_C@_08DBIINPPL@onlyattr?$AA@ 100a7408     libeay32:v3_crld.obj
 0002:0001f414       ??_C@_0BD@ENBCPHJ@ISSUING_DIST_POINT?$AA@ 100a7414     libeay32:v3_crld.obj
 0002:0001f428       ??_C@_0BK@GFBFBDBE@?4?2crypto?2x509v3?2v3_crld?4c?$AA@ 100a7428     libeay32:v3_crld.obj
 0002:0001f444       ??_C@_08BMACPLOA@fullname?$AA@ 100a7444     libeay32:v3_crld.obj
 0002:0001f450       ??_C@_0N@LGEOMMHB@relativename?$AA@ 100a7450     libeay32:v3_crld.obj
 0002:0001f460       ??_C@_0L@NHIBCNGO@?$CF?$CKs?$CFs?3?6?$CF?$CKs?$AA@ 100a7460     libeay32:v3_crld.obj
 0002:0001f46c       ??_C@_06PPFMJOEO@onlyAA?$AA@ 100a746c     libeay32:v3_crld.obj
 0002:0001f474       ??_C@_0P@DKAHDIGH@?$CF?$CKsFull?5Name?3?6?$AA@ 100a7474     libeay32:v3_crld.obj
 0002:0001f484       ??_C@_0BG@GIOHENJJ@?$CF?$CKsRelative?5Name?3?6?$CF?$CKs?$AA@ 100a7484     libeay32:v3_crld.obj
 0002:0001f49c       ??_C@_0BL@FLJCHEKF@?$CF?$CKsOnly?5User?5Certificates?6?$AA@ 100a749c     libeay32:v3_crld.obj
 0002:0001f4b8       ??_C@_0BJ@GKBBKMLO@?$CF?$CKsOnly?5CA?5Certificates?6?$AA@ 100a74b8     libeay32:v3_crld.obj
 0002:0001f4d4       ??_C@_0BB@FLBIDOKD@?$CF?$CKsIndirect?5CRL?6?$AA@ 100a74d4     libeay32:v3_crld.obj
 0002:0001f4e8       ??_C@_0BC@JDEOGEEL@Only?5Some?5Reasons?$AA@ 100a74e8     libeay32:v3_crld.obj
 0002:0001f4fc       ??_C@_0CA@IIIJNMJM@?$CF?$CKsOnly?5Attribute?5Certificates?6?$AA@ 100a74fc     libeay32:v3_crld.obj
 0002:0001f51c       ??_C@_0M@FCFDJGIC@?$CF?$CKs?$DMEMPTY?$DO?6?$AA@ 100a751c     libeay32:v3_crld.obj
 0002:0001f528       ??_C@_07MJENKMF@Reasons?$AA@ 100a7528     libeay32:v3_crld.obj
 0002:0001f530       ??_C@_0BA@NBJIBLNE@?$CF?$CKsCRL?5Issuer?3?6?$AA@ 100a7530     libeay32:v3_crld.obj
 0002:0001f540       _v3_pci                    100a7540     libeay32:v3_pci.obj
 0002:0001f578       ??_C@_0BM@BMCPHDD@?$CF?$CKsPath?5Length?5Constraint?3?5?$AA@ 100a7578     libeay32:v3_pci.obj
 0002:0001f594       ??_C@_08MAJEGHKB@infinite?$AA@ 100a7594     libeay32:v3_pci.obj
 0002:0001f5a0       ??_C@_0BF@CGHJNACM@?$CF?$CKsPolicy?5Language?3?5?$AA@ 100a75a0     libeay32:v3_pci.obj
 0002:0001f5b8       ??_C@_0BE@HDJEDONA@?$CF?$CKsPolicy?5Text?3?5?$CFs?6?$AA@ 100a75b8     libeay32:v3_pci.obj
 0002:0001f5cc       ??_C@_08JGCCIMAA@language?$AA@ 100a75cc     libeay32:v3_pci.obj
 0002:0001f5d8       ??_C@_0BJ@KGLHOFNB@?4?2crypto?2x509v3?2v3_pci?4c?$AA@ 100a75d8     libeay32:v3_pci.obj
 0002:0001f5f4       ??_C@_06NJNJNICG@policy?$AA@ 100a75f4     libeay32:v3_pci.obj
 0002:0001f5fc       ??_C@_04ODCMNEMO@hex?3?$AA@ 100a75fc     libeay32:v3_pci.obj
 0002:0001f604       ??_C@_05BOPHDICO@file?3?$AA@ 100a7604     libeay32:v3_pci.obj
 0002:0001f60c       ??_C@_05FHIGHPDA@text?3?$AA@ 100a760c     libeay32:v3_pci.obj
 0002:0001f614       _v3_policy_mappings        100a7614     libeay32:v3_pmaps.obj
 0002:0001f6c0       ??_C@_0BD@JILOPHFL@issuerDomainPolicy?$AA@ 100a76c0     libeay32:v3_pmaps.obj
 0002:0001f6d4       ??_C@_0BE@FFIKMOKF@subjectDomainPolicy?$AA@ 100a76d4     libeay32:v3_pmaps.obj
 0002:0001f6e8       ??_C@_0P@NLHMKCKF@POLICY_MAPPING?$AA@ 100a76e8     libeay32:v3_pmaps.obj
 0002:0001f6f8       ??_C@_0BA@DHPBCFFC@POLICY_MAPPINGS?$AA@ 100a76f8     libeay32:v3_pmaps.obj
 0002:0001f708       ??_C@_0BL@FPBGMIJF@?4?2crypto?2x509v3?2v3_pmaps?4c?$AA@ 100a7708     libeay32:v3_pmaps.obj
 0002:0001f724       _v3_policy_constraints     100a7724     libeay32:v3_pcons.obj
 0002:0001f7a0       ??_C@_0BG@HGJBEKFE@requireExplicitPolicy?$AA@ 100a77a0     libeay32:v3_pcons.obj
 0002:0001f7b8       ??_C@_0BF@MOMLJGAL@inhibitPolicyMapping?$AA@ 100a77b8     libeay32:v3_pcons.obj
 0002:0001f7d0       ??_C@_0BD@MMPNIEIJ@POLICY_CONSTRAINTS?$AA@ 100a77d0     libeay32:v3_pcons.obj
 0002:0001f7e4       ??_C@_0BI@HNCHDEDI@Require?5Explicit?5Policy?$AA@ 100a77e4     libeay32:v3_pcons.obj
 0002:0001f7fc       ??_C@_0BH@HMKHOMED@Inhibit?5Policy?5Mapping?$AA@ 100a77fc     libeay32:v3_pcons.obj
 0002:0001f814       ??_C@_0BL@OKPDPLFL@?4?2crypto?2x509v3?2v3_pcons?4c?$AA@ 100a7814     libeay32:v3_pcons.obj
 0002:0001f830       _v3_name_constraints       100a7830     libeay32:v3_ncons.obj
 0002:0001f904       ??_C@_07CCOEHHFD@minimum?$AA@ 100a7904     libeay32:v3_ncons.obj
 0002:0001f90c       ??_C@_07MEIENILC@maximum?$AA@ 100a790c     libeay32:v3_ncons.obj
 0002:0001f914       ??_C@_0BA@ECMIFHDE@GENERAL_SUBTREE?$AA@ 100a7914     libeay32:v3_ncons.obj
 0002:0001f924       ??_C@_0BC@FACFJLFB@permittedSubtrees?$AA@ 100a7924     libeay32:v3_ncons.obj
 0002:0001f938       ??_C@_0BB@HLFEMJKE@excludedSubtrees?$AA@ 100a7938     libeay32:v3_ncons.obj
 0002:0001f94c       ??_C@_0BB@MLLJAFMN@NAME_CONSTRAINTS?$AA@ 100a794c     libeay32:v3_ncons.obj
 0002:0001f960       ??_C@_09HAKFOFAM@permitted?$AA@ 100a7960     libeay32:v3_ncons.obj
 0002:0001f96c       ??_C@_08HPCEJEEF@excluded?$AA@ 100a796c     libeay32:v3_ncons.obj
 0002:0001f978       ??_C@_0BL@IDMCNIEC@?4?2crypto?2x509v3?2v3_ncons?4c?$AA@ 100a7978     libeay32:v3_ncons.obj
 0002:0001f994       ??_C@_09DPPIOGNM@Permitted?$AA@ 100a7994     libeay32:v3_ncons.obj
 0002:0001f9a0       ??_C@_08PNNFBGOG@Excluded?$AA@ 100a79a0     libeay32:v3_ncons.obj
 0002:0001f9ac       ??_C@_03HBLCMHJN@IP?3?$AA@ 100a79ac     libeay32:v3_ncons.obj
 0002:0001f9b0       ??_C@_0BI@IFNIGPEJ@?$CFd?4?$CFd?4?$CFd?4?$CFd?1?$CFd?4?$CFd?4?$CFd?4?$CFd?$AA@ 100a79b0     libeay32:v3_ncons.obj
 0002:0001f9c8       _v3_ct_scts                100a79c8     libeay32:v3_scts.obj
 0002:0001fa38       ??_C@_08CHPLPPFG@?$CF02X?$CF02X?$AA@ 100a7a38     libeay32:v3_scts.obj
 0002:0001fa44       ??_C@_0M@ICLHDAKN@?$CF?414s?4?$CF03dZ?$AA@ 100a7a44     libeay32:v3_scts.obj
 0002:0001fa50       ??_C@_0BK@FHBPONIB@?4?2crypto?2x509v3?2v3_scts?4c?$AA@ 100a7a50     libeay32:v3_scts.obj
 0002:0001fa6c       ??_C@_0CB@JJCHKHF@?$CF?$CKsSigned?5Certificate?5Timestamp?3@ 100a7a6c     libeay32:v3_scts.obj
 0002:0001fa90       ??_C@_0BB@EKJFPHMD@?6?$CF?$CKsVersion?5?5?5?3?5?$AA@ 100a7a90     libeay32:v3_scts.obj
 0002:0001faa4       ??_C@_05KKMNMBM@v1?$CI0?$CJ?$AA@ 100a7aa4     libeay32:v3_scts.obj
 0002:0001faac       ??_C@_0BB@JBKBHIBL@?6?$CF?$CKsLog?5ID?5?5?5?5?3?5?$AA@ 100a7aac     libeay32:v3_scts.obj
 0002:0001fac0       ??_C@_0BB@FNNPINKJ@?6?$CF?$CKsTimestamp?5?3?5?$AA@ 100a7ac0     libeay32:v3_scts.obj
 0002:0001fad4       ??_C@_0BB@FJENGDNH@?6?$CF?$CKsExtensions?3?5?$AA@ 100a7ad4     libeay32:v3_scts.obj
 0002:0001fae8       ??_C@_0BB@HBMEFCBE@?6?$CF?$CKsSignature?5?3?5?$AA@ 100a7ae8     libeay32:v3_scts.obj
 0002:0001fafc       ??_C@_0BB@NLMIAEL@?6?$CF?$CKs?5?5?5?5?5?5?5?5?5?5?5?5?$AA@ 100a7afc     libeay32:v3_scts.obj
 0002:0001fb10       ??_C@_0M@HJKJELMN@unknown?6?$CF?$CKs?$AA@ 100a7b10     libeay32:v3_scts.obj
 0002:0001fb1c       ??_C@_0BK@KJEJJLK@?4?2crypto?2x509v3?2v3_conf?4c?$AA@ 100a7b1c     libeay32:v3_conf.obj
 0002:0001fb38       ??_C@_0BG@KEDDBGGO@?4?2crypto?2bn?2bn_exp2?4c?$AA@ 100a7b38     libeay32:bn_exp2.obj
 0002:0001fbec       ??_C@_0BH@LFGIMBNP@?4?2crypto?2ec?2ecp_mont?4c?$AA@ 100a7bec     libeay32:ecp_mont.obj
 0002:0001fca4       ??_C@_0BH@MKKJGLGM@?4?2crypto?2ec?2ecp_nist?4c?$AA@ 100a7ca4     libeay32:ecp_nist.obj
 0002:0001fd5c       ??_C@_0BH@HFFIPKFF@?4?2crypto?2ec?2ec2_smpl?4c?$AA@ 100a7d5c     libeay32:ec2_smpl.obj
 0002:0001fd74       ??_C@_0BE@LILBBPKE@OpenSSL?5ECDH?5method?$AA@ 100a7d74     libeay32:ech_ossl.obj
 0002:0001fd88       ??_C@_0BJ@GOHIGCLE@?4?2crypto?2ecdh?2ech_ossl?4c?$AA@ 100a7d88     libeay32:ech_ossl.obj
 0002:0001fe58       ??_C@_07KEPFKPDN@keyfunc?$AA@ 100a7e58     libeay32:p5_pbev2.obj
 0002:0001fe60       ??_C@_0L@HBBFMHKN@encryption?$AA@ 100a7e60     libeay32:p5_pbev2.obj
 0002:0001fe6c       ??_C@_09DHBCCKCK@PBE2PARAM?$AA@ 100a7e6c     libeay32:p5_pbev2.obj
 0002:0001fe78       ??_C@_04OKLIMCN@salt?$AA@  100a7e78     libeay32:p5_pbev2.obj
 0002:0001fe80       ??_C@_04BKLHDIKK@iter?$AA@ 100a7e80     libeay32:p5_pbev2.obj
 0002:0001fe88       ??_C@_09PKJJLJJD@keylength?$AA@ 100a7e88     libeay32:p5_pbev2.obj
 0002:0001fe94       ??_C@_03NBFGPAGA@prf?$AA@  100a7e94     libeay32:p5_pbev2.obj
 0002:0001fe98       ??_C@_0M@DPMJHKGH@PBKDF2PARAM?$AA@ 100a7e98     libeay32:p5_pbev2.obj
 0002:0001fee8       ??_C@_08CKLJFNPB@PBEPARAM?$AA@ 100a7ee8     libeay32:p5_pbe.obj
 0002:0001fef4       ??_C@_0BK@LAJAIGBF@?4?2crypto?2pkcs12?2p12_key?4c?$AA@ 100a7ef4     libeay32:p12_key.obj
 0002:0001ff10       ??_C@_0BK@LMEFMLFD@?4?2crypto?2pkcs7?2pk7_doit?4c?$AA@ 100a7f10     libeay32:pk7_doit.obj
 0002:0001ff70       ??_C@_08OPPGEJIL@X509_VAL?$AA@ 100a7f70     libeay32:x_val.obj
 0002:00020044       ??_C@_05BMJJJIHB@trust?$AA@ 100a8044     libeay32:x_x509a.obj
 0002:0002004c       ??_C@_06JPOFNODM@reject?$AA@ 100a804c     libeay32:x_x509a.obj
 0002:00020054       ??_C@_05NKHOCLEE@alias?$AA@ 100a8054     libeay32:x_x509a.obj
 0002:0002005c       ??_C@_0O@LJIIOIG@X509_CERT_AUX?$AA@ 100a805c     libeay32:x_x509a.obj
 0002:0002006c       ??_C@_07CJMBKHEI@forward?$AA@ 100a806c     libeay32:x_x509a.obj
 0002:00020074       ??_C@_07KOIEOCCE@reverse?$AA@ 100a8074     libeay32:x_x509a.obj
 0002:0002007c       ??_C@_0P@BDECDGPA@X509_CERT_PAIR?$AA@ 100a807c     libeay32:x_x509a.obj
 0002:000200e4       ??_C@_0BA@OPHCNPAP@AUTHORITY_KEYID?$AA@ 100a80e4     libeay32:v3_akeya.obj
 0002:000200f4       ??_C@_0BJ@HLJJPCLA@?4?2crypto?2asn1?2a_verify?4c?$AA@ 100a80f4     libeay32:a_verify.obj
 0002:00020110       ??_C@_05KFFJODAE@?$CF02X?3?$AA@ 100a8110     libeay32:b_dump.obj
 0002:00020118       ??_C@_0O@DIEIKEFB@memory?5buffer?$AA@ 100a8118     libeay32:bss_mem.obj
 0002:00020128       ??_C@_0BH@IKAJIAMC@?4?2crypto?2bio?2bss_mem?4c?$AA@ 100a8128     libeay32:bss_mem.obj
 0002:00020140       ??_C@_0P@ONGHGJEC@message?5digest?$AA@ 100a8140     libeay32:bio_md.obj
 0002:00020150       ??_C@_0BG@DOGDJKJA@?4?2crypto?2cms?2cms_dd?4c?$AA@ 100a8150     libeay32:cms_dd.obj
 0002:00022298       ??_C@_0BH@GLJJADKE@?4?2crypto?2evp?2bio_enc?4c?$AA@ 100aa298     libeay32:bio_enc.obj
 0002:000222f0       ??_C@_0BI@BIJLLCMA@?4?2crypto?2asn1?2a_utctm?4c?$AA@ 100aa2f0     libeay32:a_utctm.obj
 0002:00022308       ??_C@_0BK@PMAAGDOP@?$CF02d?$CF02d?$CF02d?$CF02d?$CF02d?$CF02dZ?$AA@ 100aa308     libeay32:a_utctm.obj
 0002:0002236c       ??_C@_0BI@FLDCAADC@?4?2crypto?2asn1?2a_gentm?4c?$AA@ 100aa36c     libeay32:a_gentm.obj
 0002:00022384       ??_C@_0BK@EMDNDBLP@?$CF04d?$CF02d?$CF02d?$CF02d?$CF02d?$CF02dZ?$AA@ 100aa384     libeay32:a_gentm.obj
 0002:00022490       ??_C@_0L@GGDBHMO@smime_sign?$AA@ 100aa490     libeay32:x509_vpm.obj
 0002:0002249c       ??_C@_0L@IMDPAGCM@ssl_client?$AA@ 100aa49c     libeay32:x509_vpm.obj
 0002:000224a8       ??_C@_0L@MDHNNNKP@ssl_server?$AA@ 100aa4a8     libeay32:x509_vpm.obj
 0002:000224b4       ??_C@_0L@JNOGJJCA@compatible?$AA@ 100aa4b4     libeay32:x509_trs.obj
 0002:000224c0       ??_C@_0N@OEEPKGPL@S?1MIME?5email?$AA@ 100aa4c0     libeay32:x509_trs.obj
 0002:000224d0       ??_C@_0O@EEPBMPKP@Object?5Signer?$AA@ 100aa4d0     libeay32:x509_trs.obj
 0002:000224e0       ??_C@_0P@JHCOMJOI@OCSP?5responder?$AA@ 100aa4e0     libeay32:x509_trs.obj
 0002:000224f0       ??_C@_0N@CAJJAOJD@OCSP?5request?$AA@ 100aa4f0     libeay32:x509_trs.obj
 0002:00022500       ??_C@_0L@CFEJKCOD@TSA?5server?$AA@ 100aa500     libeay32:x509_trs.obj
 0002:00022594       ??_C@_0P@BLMEJDMO@policyLanguage?$AA@ 100aa594     libeay32:v3_pcia.obj
 0002:000225a4       ??_C@_0N@CLKEFBDI@PROXY_POLICY?$AA@ 100aa5a4     libeay32:v3_pcia.obj
 0002:000225b4       ??_C@_0BH@JBGKCLHC@pcPathLengthConstraint?$AA@ 100aa5b4     libeay32:v3_pcia.obj
 0002:000225cc       ??_C@_0M@KKFBCGOG@proxyPolicy?$AA@ 100aa5cc     libeay32:v3_pcia.obj
 0002:000225d8       ??_C@_0BK@PILNOGHK@PROXY_CERT_INFO_EXTENSION?$AA@ 100aa5d8     libeay32:v3_pcia.obj
 0002:000225f8       _DES_SPtrans               100aa5f8     libeay32:des_enc.obj
 0002:000237f8       ??_C@_0BG@PPNFLPIA@?4?2crypto?2ec?2ecp_oct?4c?$AA@ 100ab7f8     libeay32:ecp_oct.obj
 0002:00023810       ??_C@_0BG@JEGNHKBA@?4?2crypto?2ec?2ec2_oct?4c?$AA@ 100ab810     libeay32:ec2_oct.obj
 0002:00023828       ??_C@_02BAABKJLB@?9?9?$AA@ 100ab828     libeay32:asn_mime.obj
 0002:0002382c       _PEM_version               100ab82c     libeay32:pem_lib.obj
 0002:00023868       _CONF_def_version          100ab868     libeay32:conf_def.obj
 0002:00023898       ??_C@_0BA@EEIGDPJJ@OpenSSL?5default?$AA@ 100ab898     libeay32:conf_def.obj
 0002:000238a8       ??_C@_05LKMDHMJN@WIN32?$AA@ 100ab8a8     libeay32:conf_def.obj
 0002:000238b0       ??_C@_0BJ@HNHBHKLJ@?4?2crypto?2conf?2conf_def?4c?$AA@ 100ab8b0     libeay32:conf_def.obj
 0002:000238cc       ??_C@_05KFEICJBI@line?5?$AA@ 100ab8cc     libeay32:conf_def.obj
 0002:000238d4       ??_C@_0M@CLCLGKAH@?$FL?$CFs?$FN?5?$CFs?$DN?$CFs?6?$AA@ 100ab8d4     libeay32:conf_def.obj
 0002:000238e0       ??_C@_07PNLMPOMH@?$FL?$FL?$CFs?$FN?$FN?6?$AA@ 100ab8e0     libeay32:conf_def.obj
 0002:000238e8       ??_C@_03OEJENCPE@ENV?$AA@  100ab8e8     libeay32:conf_api.obj
 0002:000238ec       ??_C@_0BJ@NNNPODKO@?4?2crypto?2conf?2conf_api?4c?$AA@ 100ab8ec     libeay32:conf_api.obj
 0002:00023908       ??_C@_0L@BFMFELMC@vv?5?$DN?$DN?5NULL?$AA@ 100ab908     libeay32:conf_api.obj
 0002:00023914       _MD5_version               100ab914     libeay32:md5_dgst.obj
 0002:000239d8       ??_C@_09DBEGHIJJ@challenge?$AA@ 100ab9d8     libeay32:x_spki.obj
 0002:000239e4       ??_C@_0P@OEBIEFNJ@NETSCAPE_SPKAC?$AA@ 100ab9e4     libeay32:x_spki.obj
 0002:000239f4       ??_C@_05NBLLCIIN@spkac?$AA@ 100ab9f4     libeay32:x_spki.obj
 0002:000239fc       ??_C@_09JJGBLAHB@sig_algor?$AA@ 100ab9fc     libeay32:x_spki.obj
 0002:00023a08       ??_C@_0O@DBIGEIKO@NETSCAPE_SPKI?$AA@ 100aba08     libeay32:x_spki.obj
 0002:00023a6c       ??_C@_04OOMJJNCF@UTF8?$AA@ 100aba6c     libeay32:asn1_gen.obj
 0002:00023cc4       ??_C@_04PPJDIBFE@BOOL?$AA@ 100abcc4     libeay32:asn1_gen.obj
 0002:00023ccc       ??_C@_03JMHEAPMO@INT?$AA@  100abccc     libeay32:asn1_gen.obj
 0002:00023cd0       ??_C@_04PNKFCNMG@ENUM?$AA@ 100abcd0     libeay32:asn1_gen.obj
 0002:00023cd8       ??_C@_03PGJCFEMG@OID?$AA@  100abcd8     libeay32:asn1_gen.obj
 0002:00023cdc       ??_C@_03JCIJEFNJ@UTC?$AA@  100abcdc     libeay32:asn1_gen.obj
 0002:00023ce0       ??_C@_07EECHABMP@GENTIME?$AA@ 100abce0     libeay32:asn1_gen.obj
 0002:00023ce8       ??_C@_03LBMHMDEB@OCT?$AA@  100abce8     libeay32:asn1_gen.obj
 0002:00023cec       ??_C@_0M@JIDALIGG@OCTETSTRING?$AA@ 100abcec     libeay32:asn1_gen.obj
 0002:00023cf8       ??_C@_06GOEDGPII@BITSTR?$AA@ 100abcf8     libeay32:asn1_gen.obj
 0002:00023d00       ??_C@_09MBLGEDKL@BITSTRING?$AA@ 100abd00     libeay32:asn1_gen.obj
 0002:00023d0c       ??_C@_04CBEPCLMK@UNIV?$AA@ 100abd0c     libeay32:asn1_gen.obj
 0002:00023d14       ??_C@_03OLMOBCBF@IA5?$AA@  100abd14     libeay32:asn1_gen.obj
 0002:00023d18       ??_C@_0L@PJIJIHJD@UTF8String?$AA@ 100abd18     libeay32:asn1_gen.obj
 0002:00023d24       ??_C@_03CNFPPDJC@BMP?$AA@  100abd24     libeay32:asn1_gen.obj
 0002:00023d28       ??_C@_07MCGNPFEO@VISIBLE?$AA@ 100abd28     libeay32:asn1_gen.obj
 0002:00023d30       ??_C@_09OMDMMLJJ@PRINTABLE?$AA@ 100abd30     libeay32:asn1_gen.obj
 0002:00023d3c       ??_C@_03HMGPCGIG@T61?$AA@  100abd3c     libeay32:asn1_gen.obj
 0002:00023d40       ??_C@_0O@GENPGMAM@TELETEXSTRING?$AA@ 100abd40     libeay32:asn1_gen.obj
 0002:00023d50       ??_C@_0O@OIKLOOAP@GeneralString?$AA@ 100abd50     libeay32:asn1_gen.obj
 0002:00023d60       ??_C@_06GBOJAPHH@GENSTR?$AA@ 100abd60     libeay32:asn1_gen.obj
 0002:00023d68       ??_C@_07DBOJJFHC@NUMERIC?$AA@ 100abd68     libeay32:asn1_gen.obj
 0002:00023d70       ??_C@_03NCPCKDJB@SEQ?$AA@  100abd70     libeay32:asn1_gen.obj
 0002:00023d74       ??_C@_03KKGFKKLA@EXP?$AA@  100abd74     libeay32:asn1_gen.obj
 0002:00023d78       ??_C@_08CNKBIFDO@EXPLICIT?$AA@ 100abd78     libeay32:asn1_gen.obj
 0002:00023d84       ??_C@_03PKFOHEJD@IMP?$AA@  100abd84     libeay32:asn1_gen.obj
 0002:00023d88       ??_C@_08PPMOEJGF@IMPLICIT?$AA@ 100abd88     libeay32:asn1_gen.obj
 0002:00023d94       ??_C@_07KIEILLID@OCTWRAP?$AA@ 100abd94     libeay32:asn1_gen.obj
 0002:00023d9c       ??_C@_07LAEBDLGO@SEQWRAP?$AA@ 100abd9c     libeay32:asn1_gen.obj
 0002:00023da4       ??_C@_07OAIMKKNN@SETWRAP?$AA@ 100abda4     libeay32:asn1_gen.obj
 0002:00023dac       ??_C@_07JHDNPBBM@BITWRAP?$AA@ 100abdac     libeay32:asn1_gen.obj
 0002:00023db4       ??_C@_04HPGCGPG@FORM?$AA@  100abdb4     libeay32:asn1_gen.obj
 0002:00023dbc       ??_C@_06DPGELLJH@FORMAT?$AA@ 100abdbc     libeay32:asn1_gen.obj
 0002:00023dc4       ??_C@_0BJ@PGICCAGB@?4?2crypto?2asn1?2asn1_gen?4c?$AA@ 100abdc4     libeay32:asn1_gen.obj
 0002:00023de0       ??_C@_04JBGFELJA@tag?$DN?$AA@ 100abde0     libeay32:asn1_gen.obj
 0002:00023de8       ??_C@_05CCNLIHFO@ASCII?$AA@ 100abde8     libeay32:asn1_gen.obj
 0002:00023df0       ??_C@_03IECIMIEG@HEX?$AA@  100abdf0     libeay32:asn1_gen.obj
 0002:00023df4       ??_C@_07HMNLDFAL@BITLIST?$AA@ 100abdf4     libeay32:asn1_gen.obj
 0002:00023dfc       ??_C@_05NALEHOPE@Char?$DN?$AA@ 100abdfc     libeay32:asn1_gen.obj
 0002:00023e04       ??_C@_07IOGEOOAA@string?$DN?$AA@ 100abe04     libeay32:asn1_gen.obj
 0002:00024338       ??_C@_05HFDFJDL@certs?$AA@ 100ac338     libeay32:ocsp_asn.obj
 0002:00024340       ??_C@_0P@OIPGPNII@OCSP_SIGNATURE?$AA@ 100ac340     libeay32:ocsp_asn.obj
 0002:00024350       ??_C@_0P@EKEFMOEP@issuerNameHash?$AA@ 100ac350     libeay32:ocsp_asn.obj
 0002:00024360       ??_C@_0O@KPBFDKHB@issuerKeyHash?$AA@ 100ac360     libeay32:ocsp_asn.obj
 0002:00024370       ??_C@_0M@OCJEDPID@OCSP_CERTID?$AA@ 100ac370     libeay32:ocsp_asn.obj
 0002:0002437c       ??_C@_07GCNFCODJ@reqCert?$AA@ 100ac37c     libeay32:ocsp_asn.obj
 0002:00024384       ??_C@_0BI@PPJDGJOP@singleRequestExtensions?$AA@ 100ac384     libeay32:ocsp_asn.obj
 0002:0002439c       ??_C@_0M@IGPHKOAK@OCSP_ONEREQ?$AA@ 100ac39c     libeay32:ocsp_asn.obj
 0002:000243a8       ??_C@_0O@NHDBCFOA@requestorName?$AA@ 100ac3a8     libeay32:ocsp_asn.obj
 0002:000243b8       ??_C@_0M@NNJGDIDJ@requestList?$AA@ 100ac3b8     libeay32:ocsp_asn.obj
 0002:000243c4       ??_C@_0BC@CPAMEDLH@requestExtensions?$AA@ 100ac3c4     libeay32:ocsp_asn.obj
 0002:000243d8       ??_C@_0N@DDBEOJJA@OCSP_REQINFO?$AA@ 100ac3d8     libeay32:ocsp_asn.obj
 0002:000243e8       ??_C@_0L@OIGCAPNH@tbsRequest?$AA@ 100ac3e8     libeay32:ocsp_asn.obj
 0002:000243f4       ??_C@_0BC@GKDKILGO@optionalSignature?$AA@ 100ac3f4     libeay32:ocsp_asn.obj
 0002:00024408       ??_C@_0N@PCNOLOBD@OCSP_REQUEST?$AA@ 100ac408     libeay32:ocsp_asn.obj
 0002:00024418       ??_C@_0N@FPIGADMM@responseType?$AA@ 100ac418     libeay32:ocsp_asn.obj
 0002:00024428       ??_C@_08HKMEAON@response?$AA@ 100ac428     libeay32:ocsp_asn.obj
 0002:00024434       ??_C@_0P@ONFJGMLI@OCSP_RESPBYTES?$AA@ 100ac434     libeay32:ocsp_asn.obj
 0002:00024444       ??_C@_0P@GEHCLFGI@responseStatus?$AA@ 100ac444     libeay32:ocsp_asn.obj
 0002:00024454       ??_C@_0O@MMHCFEHM@responseBytes?$AA@ 100ac454     libeay32:ocsp_asn.obj
 0002:00024464       ??_C@_0O@CDJMCFNM@OCSP_RESPONSE?$AA@ 100ac464     libeay32:ocsp_asn.obj
 0002:00024474       ??_C@_0N@OFBDHEPF@value?4byName?$AA@ 100ac474     libeay32:ocsp_asn.obj
 0002:00024484       ??_C@_0M@OFGLOCKB@value?4byKey?$AA@ 100ac484     libeay32:ocsp_asn.obj
 0002:00024490       ??_C@_0M@JBDPBGBO@OCSP_RESPID?$AA@ 100ac490     libeay32:ocsp_asn.obj
 0002:0002449c       ??_C@_0P@MHJPNEEK@revocationTime?$AA@ 100ac49c     libeay32:ocsp_asn.obj
 0002:000244ac       ??_C@_0BB@JHENKMOK@revocationReason?$AA@ 100ac4ac     libeay32:ocsp_asn.obj
 0002:000244c0       ??_C@_0BB@CFNKINIP@OCSP_REVOKEDINFO?$AA@ 100ac4c0     libeay32:ocsp_asn.obj
 0002:000244d4       ??_C@_0L@MEIDNBL@value?4good?$AA@ 100ac4d4     libeay32:ocsp_asn.obj
 0002:000244e0       ??_C@_0O@GCBEBIKI@value?4revoked?$AA@ 100ac4e0     libeay32:ocsp_asn.obj
 0002:000244f0       ??_C@_0O@ICNBHFHN@value?4unknown?$AA@ 100ac4f0     libeay32:ocsp_asn.obj
 0002:00024500       ??_C@_0BA@JBJHLNOJ@OCSP_CERTSTATUS?$AA@ 100ac500     libeay32:ocsp_asn.obj
 0002:00024510       ??_C@_06JJGBHEJI@certId?$AA@ 100ac510     libeay32:ocsp_asn.obj
 0002:00024518       ??_C@_0L@IGGFAGC@certStatus?$AA@ 100ac518     libeay32:ocsp_asn.obj
 0002:00024524       ??_C@_0L@BEDJFPDO@thisUpdate?$AA@ 100ac524     libeay32:ocsp_asn.obj
 0002:00024530       ??_C@_0BB@BHCHCCEI@singleExtensions?$AA@ 100ac530     libeay32:ocsp_asn.obj
 0002:00024544       ??_C@_0BA@CEMENBMB@OCSP_SINGLERESP?$AA@ 100ac544     libeay32:ocsp_asn.obj
 0002:00024554       ??_C@_0M@CPBMKBOK@responderId?$AA@ 100ac554     libeay32:ocsp_asn.obj
 0002:00024560       ??_C@_0L@KADAOIGF@producedAt?$AA@ 100ac560     libeay32:ocsp_asn.obj
 0002:0002456c       ??_C@_09NKKOBILA@responses?$AA@ 100ac56c     libeay32:ocsp_asn.obj
 0002:00024578       ??_C@_0BD@LEANHDON@responseExtensions?$AA@ 100ac578     libeay32:ocsp_asn.obj
 0002:0002458c       ??_C@_0O@GNAMNHBK@OCSP_RESPDATA?$AA@ 100ac58c     libeay32:ocsp_asn.obj
 0002:0002459c       ??_C@_0BA@OOPOFNLG@tbsResponseData?$AA@ 100ac59c     libeay32:ocsp_asn.obj
 0002:000245ac       ??_C@_0P@CPCDLAO@OCSP_BASICRESP?$AA@ 100ac5ac     libeay32:ocsp_asn.obj
 0002:000245bc       ??_C@_06KAALCHHK@crlUrl?$AA@ 100ac5bc     libeay32:ocsp_asn.obj
 0002:000245c4       ??_C@_06DLEHNACA@crlNum?$AA@ 100ac5c4     libeay32:ocsp_asn.obj
 0002:000245cc       ??_C@_07BDEAJPPO@crlTime?$AA@ 100ac5cc     libeay32:ocsp_asn.obj
 0002:000245d4       ??_C@_0L@JOKCDHBA@OCSP_CRLID?$AA@ 100ac5d4     libeay32:ocsp_asn.obj
 0002:000245e0       ??_C@_07PAIKCKMF@locator?$AA@ 100ac5e0     libeay32:ocsp_asn.obj
 0002:000245e8       ??_C@_0BA@JLGHGCLL@OCSP_SERVICELOC?$AA@ 100ac5e8     libeay32:ocsp_asn.obj
 0002:00024694       ??_C@_0BH@IFDMNBNE@?4?2crypto?2ec?2ecp_smpl?4c?$AA@ 100ac694     libeay32:ecp_smpl.obj
 0002:00024b58       ??_C@_0BH@JNIBJIMD@?4?2crypto?2ec?2ec2_mult?4c?$AA@ 100acb58     libeay32:ec2_mult.obj
 0002:00024bb0       ??_C@_0BG@LLCNHAHB@?4?2crypto?2bn?2bn_gf2m?4c?$AA@ 100acbb0     libeay32:bn_gf2m.obj
 0002:00024bc8       ??_C@_0BK@LDALPMGB@?4?2crypto?2pkcs12?2p12_utl?4c?$AA@ 100acbc8     libeay32:p12_utl.obj
 0002:00024be4       ??_C@_0BK@DKHHBKED@?4?2crypto?2pkcs7?2pk7_attr?4c?$AA@ 100acbe4     libeay32:pk7_attr.obj
 0002:00024c20       ??_C@_0BG@EDINLKND@?4?2crypto?2bn?2bn_sqrt?4c?$AA@ 100acc20     libeay32:bn_sqrt.obj
 0002:00024c38       ??_C@_04GABBLIPF@asn1?$AA@ 100acc38     libeay32:bio_asn1.obj
 0002:00024c40       ??_C@_0BJ@JFDEBOM@?4?2crypto?2asn1?2bio_asn1?4c?$AA@ 100acc40     libeay32:bio_asn1.obj
 0002:00024c5c       ??_C@_0BM@FIMHHPDL@ctx?9?$DObuflen?5?$DM?$DN?5ctx?9?$DObufsize?$AA@ 100acc5c     libeay32:bio_asn1.obj
 0002:00024c78       ??_C@_06HOHPNJLC@buffer?$AA@ 100acc78     libeay32:bf_buff.obj
 0002:00024c80       ??_C@_0BH@HEBHEJFA@?4?2crypto?2bio?2bf_buff?4c?$AA@ 100acc80     libeay32:bf_buff.obj
 0002:00024c98       ??_C@_0BA@CNEIDKOH@base64?5encoding?$AA@ 100acc98     libeay32:bio_b64.obj
 0002:00024ca8       ??_C@_0BH@CICFIAAN@?4?2crypto?2evp?2bio_b64?4c?$AA@ 100acca8     libeay32:bio_b64.obj
 0002:00024cc0       ??_C@_0BN@FPMDFEFM@ctx?9?$DObuf_len?5?$DO?$DN?5ctx?9?$DObuf_off?$AA@ 100accc0     libeay32:bio_b64.obj
 0002:00024ce0       ??_C@_0CJ@PHNBKJJG@ctx?9?$DObuf_off?5?$CL?5i?5?$DM?5?$CIint?$CJsizeof?$CIc@ 100acce0     libeay32:bio_b64.obj
 0002:00024d0c       ??_C@_0CF@ELLFOHKP@ctx?9?$DObuf_off?5?$DM?5?$CIint?$CJsizeof?$CIctx?9?$DO@ 100acd0c     libeay32:bio_b64.obj
 0002:00024d34       ??_C@_0CG@LFOFKIIN@ctx?9?$DObuf_len?5?$DM?$DN?5?$CIint?$CJsizeof?$CIctx?9@ 100acd34     libeay32:bio_b64.obj
 0002:00024d5c       ??_C@_06NOLCFJLD@i?5?$DM?$DN?5n?$AA@ 100acd5c     libeay32:bio_b64.obj
 0002:00024d64       ??_C@_0CG@NALBBCEM@ctx?9?$DObuf_off?5?$DM?$DN?5?$CIint?$CJsizeof?$CIctx?9@ 100acd64     libeay32:bio_b64.obj
 0002:00024d8c       ??_C@_0BC@BEKEPBME@ctx?9?$DOtmp_len?5?$DM?$DN?53?$AA@ 100acd8c     libeay32:bio_b64.obj
 0002:00024e68       ??_C@_0CK@NJACHFBA@ctx?9?$DOlength?5?$DM?$DN?5?$CIint?$CJsizeof?$CIctx?9?$DO@ 100ace68     libeay32:encode.obj
 0002:00024e94       ??_C@_0BG@FMGDOINB@?4?2crypto?2evp?2encode?4c?$AA@ 100ace94     libeay32:encode.obj
 0002:00024eac       ??_C@_0CG@ELPNGFCJ@OpenSSL?5?8win32?8?5shared?5library?5m@ 100aceac     libeay32:dso_win32.obj
 0002:00024ed4       ??_C@_0BJ@INKKKOJN@?4?2crypto?2dso?2dso_win32?4c?$AA@ 100aced4     libeay32:dso_win32.obj
 0002:00024ef0       ??_C@_01PKGAHCOL@?$CJ?$AA@ 100acef0     libeay32:dso_win32.obj
 0002:00024ef4       ??_C@_09CCCHLKJP@filename?$CI?$AA@ 100acef4     libeay32:dso_win32.obj
 0002:00024f00       ??_C@_08MFAHALLH@symname?$CI?$AA@ 100acf00     libeay32:dso_win32.obj
 0002:00024f0c       ??_C@_06DAJAKOAL@?$CFs?4dll?$AA@ 100acf0c     libeay32:dso_win32.obj
 0002:000251fc       ??_C@_09HFIAEJAG@authsafes?$AA@ 100ad1fc     libeay32:p12_asn.obj
 0002:00025208       ??_C@_06CKOLGKJK@PKCS12?$AA@ 100ad208     libeay32:p12_asn.obj
 0002:00025210       ??_C@_05DMLMEGOG@dinfo?$AA@ 100ad210     libeay32:p12_asn.obj
 0002:00025218       ??_C@_0BA@LPMCLHLH@PKCS12_MAC_DATA?$AA@ 100ad218     libeay32:p12_asn.obj
 0002:00025228       ??_C@_0M@PABGOMNF@value?4other?$AA@ 100ad228     libeay32:p12_asn.obj
 0002:00025234       ??_C@_0P@IGODMFMC@value?4x509cert?$AA@ 100ad234     libeay32:p12_asn.obj
 0002:00025244       ??_C@_0O@KKFHCJNP@value?4x509crl?$AA@ 100ad244     libeay32:p12_asn.obj
 0002:00025254       ??_C@_0P@OEFHMPFE@value?4sdsicert?$AA@ 100ad254     libeay32:p12_asn.obj
 0002:00025264       ??_C@_0M@BNPBMADO@PKCS12_BAGS?$AA@ 100ad264     libeay32:p12_asn.obj
 0002:00025270       ??_C@_0N@DOAHKDFI@value?4keybag?$AA@ 100ad270     libeay32:p12_asn.obj
 0002:00025280       ??_C@_0P@FIADCDOI@value?4shkeybag?$AA@ 100ad280     libeay32:p12_asn.obj
 0002:00025290       ??_C@_0M@NFMGHALF@value?4safes?$AA@ 100ad290     libeay32:p12_asn.obj
 0002:0002529c       ??_C@_09EBGANBLK@value?4bag?$AA@ 100ad29c     libeay32:p12_asn.obj
 0002:000252a8       ??_C@_0P@EECFPDPC@PKCS12_SAFEBAG?$AA@ 100ad2a8     libeay32:p12_asn.obj
 0002:000252b8       ??_C@_06CEIPPJF@attrib?$AA@ 100ad2b8     libeay32:p12_asn.obj
 0002:000252c0       ??_C@_0BA@MCGBLIFE@PKCS12_SAFEBAGS?$AA@ 100ad2c0     libeay32:p12_asn.obj
 0002:000252d0       ??_C@_0BB@BIPBIGGF@PKCS12_AUTHSAFES?$AA@ 100ad2d0     libeay32:p12_asn.obj
 0002:000252e4       ??_C@_0BF@HFMCBPGH@?4?2crypto?2ui?2ui_lib?4c?$AA@ 100ad2e4     libeay32:ui_lib.obj
 0002:000252fc       ??_C@_0M@MCBMLIEP@?5characters?$AA@ 100ad2fc     libeay32:ui_lib.obj
 0002:00025308       ??_C@_04MKEOLIJC@?5to?5?$AA@ 100ad308     libeay32:ui_lib.obj
 0002:00025310       ??_C@_0BC@FIPJHCII@You?5must?5type?5in?5?$AA@ 100ad310     libeay32:ui_lib.obj
 0002:00025324       ??_C@_0BP@JCDKFDNH@OpenSSL?5default?5user?5interface?$AA@ 100ad324     libeay32:ui_openssl.obj
 0002:00025344       ??_C@_0P@IOLEFIHN@Verifying?5?9?5?$CFs?$AA@ 100ad344     libeay32:ui_openssl.obj
 0002:00025354       ??_C@_0BA@GANIJHKH@Verify?5failure?6?$AA@ 100ad354     libeay32:ui_openssl.obj
 0002:00025364       ??_C@_0BJ@HNOFKLHA@?4?2crypto?2ui?2ui_openssl?4c?$AA@ 100ad364     libeay32:ui_openssl.obj
 0002:00025380       ??_C@_03EPNNLCDK@con?$AA@  100ad380     libeay32:ui_openssl.obj
 0002:00025388       ??_7exception@std@@6B@     100ad388     libcpmt:cout.obj
 0002:00025390       ??_C@_0BC@EOODALEL@Unknown?5exception?$AA@ 100ad390     libcpmt:cout.obj
 0002:000253a8       ??_7runtime_error@std@@6B@ 100ad3a8     libcpmt:cout.obj
 0002:000253b4       ??_7bad_cast@std@@6B@      100ad3b4     libcpmt:cout.obj
 0002:000253bc       ??_C@_08EPJLHIJG@bad?5cast?$AA@ 100ad3bc     libcpmt:cout.obj
 0002:000253cc       ??_7_Facet_base@std@@6B@   100ad3cc     libcpmt:cout.obj
 0002:000253dc       ??_7?$ctype@D@std@@6B@     100ad3dc     libcpmt:cout.obj
 0002:0002540c       ??_7error_category@std@@6B@ 100ad40c     libcpmt:cout.obj
 0002:00025428       ??_7_System_error@std@@6B@ 100ad428     libcpmt:cout.obj
 0002:00025434       ??_7system_error@std@@6B@  100ad434     libcpmt:cout.obj
 0002:00025440       ??_7_Iostream_error_category@std@@6B@ 100ad440     libcpmt:cout.obj
 0002:0002545c       ??_7failure@ios_base@std@@6B@ 100ad45c     libcpmt:cout.obj
 0002:00025468       ??_7ios_base@std@@6B@      100ad468     libcpmt:cout.obj
 0002:00025470       ??_7?$basic_streambuf@DU?$char_traits@D@std@@@std@@6B@ 100ad470     libcpmt:cout.obj
 0002:000254b0       ??_7?$basic_filebuf@DU?$char_traits@D@std@@@std@@6B@ 100ad4b0     libcpmt:cout.obj
 0002:000254f0       ??_7?$basic_ios@DU?$char_traits@D@std@@@std@@6B@ 100ad4f0     libcpmt:cout.obj
 0002:000254f8       ??_7?$basic_ostream@DU?$char_traits@D@std@@@std@@6B@ 100ad4f8     libcpmt:cout.obj
 0002:000254fc       ??_8?$basic_ostream@DU?$char_traits@D@std@@@std@@7B@ 100ad4fc     libcpmt:cout.obj
 0002:00025508       ??_7?$codecvt@DDU_Mbstatet@@@std@@6B@ 100ad508     libcpmt:cout.obj
 0002:00025534       ??_7_Locimp@locale@std@@6B@ 100ad534     libcpmt:locale0.obj
 0002:00025540       ??_C@_01NBENCBCI@?$CK?$AA@ 100ad540     libcpmt:locale0.obj
 0002:00025548       ??_7bad_alloc@std@@6B@     100ad548     libcpmt:xthrow.obj
 0002:00025550       ??_C@_0P@GHFPNOJB@bad?5allocation?$AA@ 100ad550     libcpmt:xthrow.obj
 0002:00025564       ??_7logic_error@std@@6B@   100ad564     libcpmt:xthrow.obj
 0002:00025570       ??_7length_error@std@@6B@  100ad570     libcpmt:xthrow.obj
 0002:0002557c       ??_7out_of_range@std@@6B@  100ad57c     libcpmt:xthrow.obj
 0002:00025584       ??_C@_0BD@JPHBMONG@identifier?5removed?$AA@ 100ad584     libcpmt:syserror.obj
 0002:00025598       ??_C@_0BG@CDNPAGJK@illegal?5byte?5sequence?$AA@ 100ad598     libcpmt:syserror.obj
 0002:000255b0       ??_C@_0CD@BNPLBMNA@inappropriate?5io?5control?5operati@ 100ad5b0     libcpmt:syserror.obj
 0002:000255d4       ??_C@_0M@EGEKIIMP@interrupted?$AA@ 100ad5d4     libcpmt:syserror.obj
 0002:000255e0       ??_C@_0BB@FCMFBGOM@invalid?5argument?$AA@ 100ad5e0     libcpmt:syserror.obj
 0002:000255f4       ??_C@_0N@OHAFKDEK@invalid?5seek?$AA@ 100ad5f4     libcpmt:syserror.obj
 0002:00025604       ??_C@_08GLNPIFBN@io?5error?$AA@ 100ad604     libcpmt:syserror.obj
 0002:00025610       ??_C@_0P@FLLDBIDK@is?5a?5directory?$AA@ 100ad610     libcpmt:syserror.obj
 0002:00025620       ??_C@_0N@IFLPBIOP@message?5size?$AA@ 100ad620     libcpmt:syserror.obj
 0002:00025630       ??_C@_0N@KIIEAAIO@network?5down?$AA@ 100ad630     libcpmt:syserror.obj
 0002:00025640       ??_C@_0O@FNPDBHEE@network?5reset?$AA@ 100ad640     libcpmt:syserror.obj
 0002:00025650       ??_C@_0BE@IFNCKGE@network?5unreachable?$AA@ 100ad650     libcpmt:syserror.obj
 0002:00025664       ??_C@_0BA@PFFCAOFK@no?5buffer?5space?$AA@ 100ad664     libcpmt:syserror.obj
 0002:00025674       ??_C@_0BB@IEPBLJHK@no?5child?5process?$AA@ 100ad674     libcpmt:syserror.obj
 0002:00025688       ??_C@_07PLECNNKG@no?5link?$AA@ 100ad688     libcpmt:syserror.obj
 0002:00025690       ??_C@_0BC@NJECKMKE@no?5lock?5available?$AA@ 100ad690     libcpmt:syserror.obj
 0002:000256a4       ??_C@_0BF@PBGGPKKE@no?5message?5available?$AA@ 100ad6a4     libcpmt:syserror.obj
 0002:000256bc       ??_C@_0L@EDOLMPAK@no?5message?$AA@ 100ad6bc     libcpmt:syserror.obj
 0002:000256c8       ??_C@_0BD@EAMBFIDF@no?5protocol?5option?$AA@ 100ad6c8     libcpmt:syserror.obj
 0002:000256dc       ??_C@_0BD@IJDJKDEA@no?5space?5on?5device?$AA@ 100ad6dc     libcpmt:syserror.obj
 0002:000256f0       ??_C@_0BE@MKFDAFMP@no?5stream?5resources?$AA@ 100ad6f0     libcpmt:syserror.obj
 0002:00025704       ??_C@_0BK@IMCPHCBI@no?5such?5device?5or?5address?$AA@ 100ad704     libcpmt:syserror.obj
 0002:00025720       ??_C@_0P@FDINDDOK@no?5such?5device?$AA@ 100ad720     libcpmt:syserror.obj
 0002:00025730       ??_C@_0BK@NDOCBPGE@no?5such?5file?5or?5directory?$AA@ 100ad730     libcpmt:syserror.obj
 0002:0002574c       ??_C@_0BA@ENLPPKBN@no?5such?5process?$AA@ 100ad74c     libcpmt:syserror.obj
 0002:0002575c       ??_C@_0BA@DOCPFFJG@not?5a?5directory?$AA@ 100ad75c     libcpmt:syserror.obj
 0002:0002576c       ??_C@_0N@POEIPGGF@not?5a?5socket?$AA@ 100ad76c     libcpmt:syserror.obj
 0002:0002577c       ??_C@_0N@LGAPMMPI@not?5a?5stream?$AA@ 100ad77c     libcpmt:syserror.obj
 0002:0002578c       ??_C@_0O@GLMIBBEG@not?5connected?$AA@ 100ad78c     libcpmt:syserror.obj
 0002:0002579c       ??_C@_0BC@ENOOLCNF@not?5enough?5memory?$AA@ 100ad79c     libcpmt:syserror.obj
 0002:000257b0       ??_C@_0O@NHEDABJP@not?5supported?$AA@ 100ad7b0     libcpmt:syserror.obj
 0002:000257c0       ??_C@_0BD@MOLBPMEA@operation?5canceled?$AA@ 100ad7c0     libcpmt:syserror.obj
 0002:000257d4       ??_C@_0BG@KDKHOPCO@operation?5in?5progress?$AA@ 100ad7d4     libcpmt:syserror.obj
 0002:000257ec       ??_C@_0BI@OHIEJAAB@operation?5not?5permitted?$AA@ 100ad7ec     libcpmt:syserror.obj
 0002:00025804       ??_C@_0BI@LNEGIFLN@operation?5not?5supported?$AA@ 100ad804     libcpmt:syserror.obj
 0002:0002581c       ??_C@_0BG@OEMDKMEE@operation?5would?5block?$AA@ 100ad81c     libcpmt:syserror.obj
 0002:00025834       ??_C@_0L@BLPOFLNJ@owner?5dead?$AA@ 100ad834     libcpmt:syserror.obj
 0002:00025840       ??_C@_0BC@CIJDGCDI@permission?5denied?$AA@ 100ad840     libcpmt:syserror.obj
 0002:00025854       ??_C@_0P@FNPOCJBE@protocol?5error?$AA@ 100ad854     libcpmt:syserror.obj
 0002:00025864       ??_C@_0BH@JPPPLHJB@protocol?5not?5supported?$AA@ 100ad864     libcpmt:syserror.obj
 0002:0002587c       ??_C@_0BG@EICBIHDP@read?5only?5file?5system?$AA@ 100ad87c     libcpmt:syserror.obj
 0002:00025894       ??_C@_0BO@BJBOMOEJ@resource?5deadlock?5would?5occur?$AA@ 100ad894     libcpmt:syserror.obj
 0002:000258b4       ??_C@_0BP@LKNGHENJ@resource?5unavailable?5try?5again?$AA@ 100ad8b4     libcpmt:syserror.obj
 0002:000258d4       ??_C@_0BE@GOIPJJHG@result?5out?5of?5range?$AA@ 100ad8d4     libcpmt:syserror.obj
 0002:000258e8       ??_C@_0BG@MPLKFPAE@state?5not?5recoverable?$AA@ 100ad8e8     libcpmt:syserror.obj
 0002:00025900       ??_C@_0P@DIIFGFCG@stream?5timeout?$AA@ 100ad900     libcpmt:syserror.obj
 0002:00025910       ??_C@_0P@IPFDMIFL@text?5file?5busy?$AA@ 100ad910     libcpmt:syserror.obj
 0002:00025920       ??_C@_09KJPPMAOI@timed?5out?$AA@ 100ad920     libcpmt:syserror.obj
 0002:0002592c       ??_C@_0BO@HACHBEKI@too?5many?5files?5open?5in?5system?$AA@ 100ad92c     libcpmt:syserror.obj
 0002:0002594c       ??_C@_0BE@GHAFMPAH@too?5many?5files?5open?$AA@ 100ad94c     libcpmt:syserror.obj
 0002:00025960       ??_C@_0P@HCOMKFCC@too?5many?5links?$AA@ 100ad960     libcpmt:syserror.obj
 0002:00025970       ??_C@_0BO@EFGOJEF@too?5many?5symbolic?5link?5levels?$AA@ 100ad970     libcpmt:syserror.obj
 0002:00025990       ??_C@_0BA@KGKGOOJA@value?5too?5large?$AA@ 100ad990     libcpmt:syserror.obj
 0002:000259a0       ??_C@_0BE@MIEJDDNH@wrong?5protocol?5type?$AA@ 100ad9a0     libcpmt:syserror.obj
 0002:00025e78       ??_C@_0BN@LKKBCCDB@address?5family?5not?5supported?$AA@ 100ade78     libcpmt:syserror.obj
 0002:00025e98       ??_C@_0P@LDMLAFHI@address?5in?5use?$AA@ 100ade98     libcpmt:syserror.obj
 0002:00025ea8       ??_C@_0BG@DHPCNBJB@address?5not?5available?$AA@ 100adea8     libcpmt:syserror.obj
 0002:00025ec0       ??_C@_0BC@DFIBIBIL@already?5connected?$AA@ 100adec0     libcpmt:syserror.obj
 0002:00025ed4       ??_C@_0BH@CAKOHOMI@argument?5list?5too?5long?$AA@ 100aded4     libcpmt:syserror.obj
 0002:00025eec       ??_C@_0BH@CGIMPKIM@argument?5out?5of?5domain?$AA@ 100adeec     libcpmt:syserror.obj
 0002:00025f04       ??_C@_0M@KGHGGJGL@bad?5address?$AA@ 100adf04     libcpmt:syserror.obj
 0002:00025f10       ??_C@_0BE@MPJPGCEO@bad?5file?5descriptor?$AA@ 100adf10     libcpmt:syserror.obj
 0002:00025f24       ??_C@_0M@PMMIEFCP@bad?5message?$AA@ 100adf24     libcpmt:syserror.obj
 0002:00025f30       ??_C@_0M@KPHOFDBE@broken?5pipe?$AA@ 100adf30     libcpmt:syserror.obj
 0002:00025f3c       ??_C@_0BD@MGNDDEGM@connection?5aborted?$AA@ 100adf3c     libcpmt:syserror.obj
 0002:00025f50       ??_C@_0BP@KAIHPOGN@connection?5already?5in?5progress?$AA@ 100adf50     libcpmt:syserror.obj
 0002:00025f70       ??_C@_0BD@PJLIIJEL@connection?5refused?$AA@ 100adf70     libcpmt:syserror.obj
 0002:00025f84       ??_C@_0BB@IECNJNOI@connection?5reset?$AA@ 100adf84     libcpmt:syserror.obj
 0002:00025f98       ??_C@_0BC@PPHBOELF@cross?5device?5link?$AA@ 100adf98     libcpmt:syserror.obj
 0002:00025fac       ??_C@_0BN@KDMIFEIP@destination?5address?5required?$AA@ 100adfac     libcpmt:syserror.obj
 0002:00025fcc       ??_C@_0BI@NGCEHDD@device?5or?5resource?5busy?$AA@ 100adfcc     libcpmt:syserror.obj
 0002:00025fe4       ??_C@_0BE@JIDOCPHM@directory?5not?5empty?$AA@ 100adfe4     libcpmt:syserror.obj
 0002:00025ff8       ??_C@_0BI@BNCLIGPB@executable?5format?5error?$AA@ 100adff8     libcpmt:syserror.obj
 0002:00026010       ??_C@_0M@MIDIAGJP@file?5exists?$AA@ 100ae010     libcpmt:syserror.obj
 0002:0002601c       ??_C@_0P@DNAJLBJK@file?5too?5large?$AA@ 100ae01c     libcpmt:syserror.obj
 0002:0002602c       ??_C@_0BC@EJHOMAAK@filename?5too?5long?$AA@ 100ae02c     libcpmt:syserror.obj
 0002:00026040       ??_C@_0BH@KEFGLDAF@function?5not?5supported?$AA@ 100ae040     libcpmt:syserror.obj
 0002:00026058       ??_C@_0BB@DHFDFGDM@host?5unreachable?$AA@ 100ae058     libcpmt:syserror.obj
 0002:0002606c       ??_C@_0O@BFJCFAAK@unknown?5error?$AA@ 100ae06c     libcpmt:syserror.obj
 0002:00026080       ?_BADOFF@std@@3_JB         100ae080     libcpmt:ios.obj
 0002:00026088       ??_C@_1BK@MGMFAEKH@?$AAk?$AAe?$AAr?$AAn?$AAe?$AAl?$AA3?$AA2?$AA?4?$AAd?$AAl?$AAl?$AA?$AA@ 100ae088     libcpmt:winapisupp.obj
 0002:000260a4       ??_C@_08KNHFBNJ@FlsAlloc?$AA@ 100ae0a4     libcpmt:winapisupp.obj
 0002:000260b0       ??_C@_07PEJMOBNF@FlsFree?$AA@ 100ae0b0     libcpmt:winapisupp.obj
 0002:000260b8       ??_C@_0M@GDNOONDI@FlsGetValue?$AA@ 100ae0b8     libcpmt:winapisupp.obj
 0002:000260c4       ??_C@_0M@JCPCPOEF@FlsSetValue?$AA@ 100ae0c4     libcpmt:winapisupp.obj
 0002:000260d0       ??_C@_0BM@HCFOFFN@InitializeCriticalSectionEx?$AA@ 100ae0d0     libcpmt:winapisupp.obj
 0002:000260ec       ??_C@_0BE@GPLMMCMH@InitOnceExecuteOnce?$AA@ 100ae0ec     libcpmt:winapisupp.obj
 0002:00026100       ??_C@_0P@DLHPPCNH@CreateEventExW?$AA@ 100ae100     libcpmt:winapisupp.obj
 0002:00026110       ??_C@_0BB@MEFPJLHN@CreateSemaphoreW?$AA@ 100ae110     libcpmt:winapisupp.obj
 0002:00026124       ??_C@_0BD@KIEEOEEH@CreateSemaphoreExW?$AA@ 100ae124     libcpmt:winapisupp.obj
 0002:00026138       ??_C@_0BG@OGFAJCKC@CreateThreadpoolTimer?$AA@ 100ae138     libcpmt:winapisupp.obj
 0002:00026150       ??_C@_0BD@LPLEMMDI@SetThreadpoolTimer?$AA@ 100ae150     libcpmt:winapisupp.obj
 0002:00026164       ??_C@_0CA@FMNJENH@WaitForThreadpoolTimerCallbacks?$AA@ 100ae164     libcpmt:winapisupp.obj
 0002:00026184       ??_C@_0BF@DCFCCNOC@CloseThreadpoolTimer?$AA@ 100ae184     libcpmt:winapisupp.obj
 0002:0002619c       ??_C@_0BF@FLABGKKM@CreateThreadpoolWait?$AA@ 100ae19c     libcpmt:winapisupp.obj
 0002:000261b4       ??_C@_0BC@MGCOHNA@SetThreadpoolWait?$AA@ 100ae1b4     libcpmt:winapisupp.obj
 0002:000261c8       ??_C@_0BE@OCIOMIMP@CloseThreadpoolWait?$AA@ 100ae1c8     libcpmt:winapisupp.obj
 0002:000261dc       ??_C@_0BJ@LKGHFHBO@FlushProcessWriteBuffers?$AA@ 100ae1dc     libcpmt:winapisupp.obj
 0002:000261f8       ??_C@_0BP@KALKKPMO@FreeLibraryWhenCallbackReturns?$AA@ 100ae1f8     libcpmt:winapisupp.obj
 0002:00026218       ??_C@_0BK@DFNBACLA@GetCurrentProcessorNumber?$AA@ 100ae218     libcpmt:winapisupp.obj
 0002:00026234       ??_C@_0BE@FKKLLFLM@CreateSymbolicLinkW?$AA@ 100ae234     libcpmt:winapisupp.obj
 0002:00026248       ??_C@_0BE@JOGNEJCI@GetCurrentPackageId?$AA@ 100ae248     libcpmt:winapisupp.obj
 0002:0002625c       ??_C@_0P@CDHHOHKP@GetTickCount64?$AA@ 100ae25c     libcpmt:winapisupp.obj
 0002:0002626c       ??_C@_0BN@NEEHBBPO@GetFileInformationByHandleEx?$AA@ 100ae26c     libcpmt:winapisupp.obj
 0002:0002628c       ??_C@_0BL@KBBHGKCM@SetFileInformationByHandle?$AA@ 100ae28c     libcpmt:winapisupp.obj
 0002:000262a8       ??_C@_0BP@FPNJPEJC@GetSystemTimePreciseAsFileTime?$AA@ 100ae2a8     libcpmt:winapisupp.obj
 0002:000262c8       ??_C@_0BM@HLJJNPAH@InitializeConditionVariable?$AA@ 100ae2c8     libcpmt:winapisupp.obj
 0002:000262e4       ??_C@_0BG@BFNILBLN@WakeConditionVariable?$AA@ 100ae2e4     libcpmt:winapisupp.obj
 0002:000262fc       ??_C@_0BJ@PGPPEPCC@WakeAllConditionVariable?$AA@ 100ae2fc     libcpmt:winapisupp.obj
 0002:00026318       ??_C@_0BJ@JEBJOJFJ@SleepConditionVariableCS?$AA@ 100ae318     libcpmt:winapisupp.obj
 0002:00026334       ??_C@_0BC@MMLHEBPB@InitializeSRWLock?$AA@ 100ae334     libcpmt:winapisupp.obj
 0002:00026348       ??_C@_0BI@OMNLIJDB@AcquireSRWLockExclusive?$AA@ 100ae348     libcpmt:winapisupp.obj
 0002:00026360       ??_C@_0BL@OGHFEMNA@TryAcquireSRWLockExclusive?$AA@ 100ae360     libcpmt:winapisupp.obj
 0002:0002637c       ??_C@_0BI@HMIEPCNJ@ReleaseSRWLockExclusive?$AA@ 100ae37c     libcpmt:winapisupp.obj
 0002:00026394       ??_C@_0BK@LGACAGIC@SleepConditionVariableSRW?$AA@ 100ae394     libcpmt:winapisupp.obj
 0002:000263b0       ??_C@_0BF@GGPHFPJA@CreateThreadpoolWork?$AA@ 100ae3b0     libcpmt:winapisupp.obj
 0002:000263c8       ??_C@_0BF@NHDAIMMO@SubmitThreadpoolWork?$AA@ 100ae3c8     libcpmt:winapisupp.obj
 0002:000263e0       ??_C@_0BE@NPHIPNPD@CloseThreadpoolWork?$AA@ 100ae3e0     libcpmt:winapisupp.obj
 0002:000263f4       ??_C@_0BA@IHGNDAEB@CompareStringEx?$AA@ 100ae3f4     libcpmt:winapisupp.obj
 0002:00026404       ??_C@_0BA@ONOKGCMP@GetLocaleInfoEx?$AA@ 100ae404     libcpmt:winapisupp.obj
 0002:00026414       ??_C@_0O@KKBNKAPF@LCMapStringEx?$AA@ 100ae414     libcpmt:winapisupp.obj
 0002:00026424       ??_C@_11LOCGONAA@?$AA?$AA@ 100ae424     libcpmt:wlocale.obj
 0002:00027308       ??_C@_15EMKDOKLE@?$AAa?$AAr?$AA?$AA@ 100af308     libcpmt:winapinls.obj
 0002:00027310       ??_C@_15KNPADPLH@?$AAb?$AAg?$AA?$AA@ 100af310     libcpmt:winapinls.obj
 0002:00027318       ??_C@_15EDMHLDMO@?$AAc?$AAa?$AA?$AA@ 100af318     libcpmt:winapinls.obj
 0002:00027320       ??_C@_1O@BPEAJADD@?$AAz?$AAh?$AA?9?$AAC?$AAH?$AAS?$AA?$AA@ 100af320     libcpmt:winapinls.obj
 0002:00027330       ??_C@_15LJNHCMNK@?$AAc?$AAs?$AA?$AA@ 100af330     libcpmt:winapinls.obj
 0002:00027338       ??_C@_15FOMCIDHG@?$AAd?$AAa?$AA?$AA@ 100af338     libcpmt:winapinls.obj
 0002:00027340       ??_C@_15NBKABECB@?$AAd?$AAe?$AA?$AA@ 100af340     libcpmt:winapinls.obj
 0002:00027348       ??_C@_15GHPEIIAO@?$AAe?$AAl?$AA?$AA@ 100af348     libcpmt:winapinls.obj
 0002:00027350       ??_C@_15MNPNEAIF@?$AAe?$AAn?$AA?$AA@ 100af350     libcpmt:winapinls.obj
 0002:00027358       ??_C@_15GPIOMPMH@?$AAe?$AAs?$AA?$AA@ 100af358     libcpmt:winapinls.obj
 0002:00027360       ??_C@_15NGLOAKJC@?$AAf?$AAi?$AA?$AA@ 100af360     libcpmt:winapinls.obj
 0002:00027368       ??_C@_15FBKGNKAM@?$AAf?$AAr?$AA?$AA@ 100af368     libcpmt:winapinls.obj
 0002:00027370       ??_C@_15KGGCNEFK@?$AAh?$AAe?$AA?$AA@ 100af370     libcpmt:winapinls.obj
 0002:00027378       ??_C@_15PGHLIDMF@?$AAh?$AAu?$AA?$AA@ 100af378     libcpmt:winapinls.obj
 0002:00027380       ??_C@_15BIEMAPLM@?$AAi?$AAs?$AA?$AA@ 100af380     libcpmt:winapinls.obj
 0002:00027388       ??_C@_15IFJLDHAF@?$AAi?$AAt?$AA?$AA@ 100af388     libcpmt:winapinls.obj
 0002:00027390       ??_C@_15GEMIOCAG@?$AAj?$AAa?$AA?$AA@ 100af390     libcpmt:winapinls.obj
 0002:00027398       ??_C@_15EPELEGJA@?$AAk?$AAo?$AA?$AA@ 100af398     libcpmt:winapinls.obj
 0002:000273a0       ??_C@_15NDDHIMN@?$AAn?$AAl?$AA?$AA@ 100af3a0     libcpmt:winapinls.obj
 0002:000273a8       ??_C@_15BPIGNHCD@?$AAn?$AAo?$AA?$AA@ 100af3a8     libcpmt:winapinls.obj
 0002:000273b0       ??_C@_15DEOPBLCG@?$AAp?$AAl?$AA?$AA@ 100af3b0     libcpmt:winapinls.obj
 0002:000273b8       ??_C@_15KBECGEFG@?$AAp?$AAt?$AA?$AA@ 100af3b8     libcpmt:winapinls.obj
 0002:000273c0       ??_C@_15GLJCBFMD@?$AAr?$AAo?$AA?$AA@ 100af3c0     libcpmt:winapinls.obj
 0002:000273c8       ??_C@_15FEDGKCDI@?$AAr?$AAu?$AA?$AA@ 100af3c8     libcpmt:winapinls.obj
 0002:000273d0       ??_C@_15GLKMLLHM@?$AAh?$AAr?$AA?$AA@ 100af3d0     libcpmt:winapinls.obj
 0002:000273d8       ??_C@_15CPKMFBDB@?$AAs?$AAk?$AA?$AA@ 100af3d8     libcpmt:winapinls.obj
 0002:000273e0       ??_C@_15BAAIOGMK@?$AAs?$AAq?$AA?$AA@ 100af3e0     libcpmt:winapinls.obj
 0002:000273e8       ??_C@_15INNPNOHD@?$AAs?$AAv?$AA?$AA@ 100af3e8     libcpmt:winapinls.obj
 0002:000273f0       ??_C@_15CABMMOGH@?$AAt?$AAh?$AA?$AA@ 100af3f0     libcpmt:winapinls.obj
 0002:000273f8       ??_C@_15BPLIHJJM@?$AAt?$AAr?$AA?$AA@ 100af3f8     libcpmt:winapinls.obj
 0002:00027400       ??_C@_15NEOEKKDJ@?$AAu?$AAr?$AA?$AA@ 100af400     libcpmt:winapinls.obj
 0002:00027408       ??_C@_15NFICGAJK@?$AAi?$AAd?$AA?$AA@ 100af408     libcpmt:winapinls.obj
 0002:00027410       ??_C@_15PJPFLCCM@?$AAu?$AAk?$AA?$AA@ 100af410     libcpmt:winapinls.obj
 0002:00027418       ??_C@_15HPJPHDM@?$AAb?$AAe?$AA?$AA@ 100af418     libcpmt:winapinls.obj
 0002:00027420       ??_C@_15LCHLGJII@?$AAs?$AAl?$AA?$AA@ 100af420     libcpmt:winapinls.obj
 0002:00027428       ??_C@_15PCFJPHHO@?$AAe?$AAt?$AA?$AA@ 100af428     libcpmt:winapinls.obj
 0002:00027430       ??_C@_15HPFPGODN@?$AAl?$AAv?$AA?$AA@ 100af430     libcpmt:winapinls.obj
 0002:00027438       ??_C@_15NFFGKGLG@?$AAl?$AAt?$AA?$AA@ 100af438     libcpmt:winapinls.obj
 0002:00027440       ??_C@_15BDAKCCHN@?$AAf?$AAa?$AA?$AA@ 100af440     libcpmt:winapinls.obj
 0002:00027448       ??_C@_15NFGIAIAJ@?$AAv?$AAi?$AA?$AA@ 100af448     libcpmt:winapinls.obj
 0002:00027450       ??_C@_15LMKNDMHN@?$AAh?$AAy?$AA?$AA@ 100af450     libcpmt:winapinls.obj
 0002:00027458       ??_C@_15IJBHMCFL@?$AAa?$AAz?$AA?$AA@ 100af458     libcpmt:winapinls.obj
 0002:00027460       ??_C@_15EKOFJABL@?$AAe?$AAu?$AA?$AA@ 100af460     libcpmt:winapinls.obj
 0002:00027468       ??_C@_15BGHADCNK@?$AAm?$AAk?$AA?$AA@ 100af468     libcpmt:winapinls.obj
 0002:00027470       ??_C@_15JDNICKHM@?$AAa?$AAf?$AA?$AA@ 100af470     libcpmt:winapinls.obj
 0002:00027478       ??_C@_15KPJEDBKD@?$AAk?$AAa?$AA?$AA@ 100af478     libcpmt:winapinls.obj
 0002:00027480       ??_C@_15PDNFFFEO@?$AAf?$AAo?$AA?$AA@ 100af480     libcpmt:winapinls.obj
 0002:00027488       ??_C@_15OMLEGLOC@?$AAh?$AAi?$AA?$AA@ 100af488     libcpmt:winapinls.obj
 0002:00027490       ??_C@_15IDNNENKK@?$AAm?$AAs?$AA?$AA@ 100af490     libcpmt:winapinls.obj
 0002:00027498       ??_C@_15MACJNBMH@?$AAk?$AAk?$AA?$AA@ 100af498     libcpmt:winapinls.obj
 0002:000274a0       ??_C@_15DKDJEOND@?$AAk?$AAy?$AA?$AA@ 100af4a0     libcpmt:winapinls.obj
 0002:000274a8       ??_C@_15DFGDLJBG@?$AAs?$AAw?$AA?$AA@ 100af4a8     libcpmt:winapinls.obj
 0002:000274b0       ??_C@_15BBFAICNG@?$AAu?$AAz?$AA?$AA@ 100af4b0     libcpmt:winapinls.obj
 0002:000274b8       ??_C@_15DKNDCGEA@?$AAt?$AAt?$AA?$AA@ 100af4b8     libcpmt:winapinls.obj
 0002:000274c0       ??_C@_15MGIFMDPL@?$AAp?$AAa?$AA?$AA@ 100af4c0     libcpmt:winapinls.obj
 0002:000274c8       ??_C@_15HCNDBBA@?$AAg?$AAu?$AA?$AA@ 100af4c8     libcpmt:winapinls.obj
 0002:000274d0       ??_C@_15FNBEIBON@?$AAt?$AAa?$AA?$AA@ 100af4d0     libcpmt:winapinls.obj
 0002:000274d8       ??_C@_15NCHGBGLK@?$AAt?$AAe?$AA?$AA@ 100af4d8     libcpmt:winapinls.obj
 0002:000274e0       ??_C@_15PHPHCBPF@?$AAk?$AAn?$AA?$AA@ 100af4e0     libcpmt:winapinls.obj
 0002:000274e8       ??_C@_15DLGBCKMP@?$AAm?$AAr?$AA?$AA@ 100af4e8     libcpmt:winapinls.obj
 0002:000274f0       ??_C@_15EABBLBFF@?$AAs?$AAa?$AA?$AA@ 100af4f0     libcpmt:winapinls.obj
 0002:000274f8       ??_C@_15CBKOMCOI@?$AAm?$AAn?$AA?$AA@ 100af4f8     libcpmt:winapinls.obj
 0002:00027500       ??_C@_15CKDMCJAF@?$AAg?$AAl?$AA?$AA@ 100af500     libcpmt:winapinls.obj
 0002:00027508       ??_C@_17CNJFBPG@?$AAk?$AAo?$AAk?$AA?$AA@ 100af508     libcpmt:winapinls.obj
 0002:00027510       ??_C@_17FFBJICPL@?$AAs?$AAy?$AAr?$AA?$AA@ 100af510     libcpmt:winapinls.obj
 0002:00027518       ??_C@_17KPNDCPAF@?$AAd?$AAi?$AAv?$AA?$AA@ 100af518     libcpmt:winapinls.obj
 0002:00027520       ??_C@_1M@OKAHONE@?$AAa?$AAr?$AA?9?$AAS?$AAA?$AA?$AA@ 100af520     libcpmt:winapinls.obj
 0002:0002752c       ??_C@_1M@FFFIGIGK@?$AAb?$AAg?$AA?9?$AAB?$AAG?$AA?$AA@ 100af52c     libcpmt:winapinls.obj
 0002:00027538       ??_C@_1M@BJNKEDC@?$AAc?$AAa?$AA?9?$AAE?$AAS?$AA?$AA@ 100af538     libcpmt:winapinls.obj
 0002:00027544       ??_C@_1M@CLNBBOPM@?$AAz?$AAh?$AA?9?$AAT?$AAW?$AA?$AA@ 100af544     libcpmt:winapinls.obj
 0002:00027550       ??_C@_1M@IJJHFJHA@?$AAc?$AAs?$AA?9?$AAC?$AAZ?$AA?$AA@ 100af550     libcpmt:winapinls.obj
 0002:0002755c       ??_C@_1M@CLPEOBGI@?$AAd?$AAa?$AA?9?$AAD?$AAK?$AA?$AA@ 100af55c     libcpmt:winapinls.obj
 0002:00027568       ??_C@_1M@MCMADGCB@?$AAd?$AAe?$AA?9?$AAD?$AAE?$AA?$AA@ 100af568     libcpmt:winapinls.obj
 0002:00027574       ??_C@_1M@OOCKEMAM@?$AAe?$AAl?$AA?9?$AAG?$AAR?$AA?$AA@ 100af574     libcpmt:winapinls.obj
 0002:00027580       ??_C@_1M@BMHNFIME@?$AAe?$AAn?$AA?9?$AAU?$AAS?$AA?$AA@ 100af580     libcpmt:winapinls.obj
 0002:0002758c       ??_C@_1M@DDNJFGID@?$AAf?$AAi?$AA?9?$AAF?$AAI?$AA?$AA@ 100af58c     libcpmt:winapinls.obj
 0002:00027598       ??_C@_1M@GLIPPMAC@?$AAf?$AAr?$AA?9?$AAF?$AAR?$AA?$AA@ 100af598     libcpmt:winapinls.obj
 0002:000275a4       ??_C@_1M@GFMCHPE@?$AAh?$AAe?$AA?9?$AAI?$AAL?$AA?$AA@ 100af5a4     libcpmt:winapinls.obj
 0002:000275b0       ??_C@_1M@MHLPGNKM@?$AAh?$AAu?$AA?9?$AAH?$AAU?$AA?$AA@ 100af5b0     libcpmt:winapinls.obj
 0002:000275bc       ??_C@_1M@LPDDNNPN@?$AAi?$AAs?$AA?9?$AAI?$AAS?$AA?$AA@ 100af5bc     libcpmt:winapinls.obj
 0002:000275c8       ??_C@_1M@MADIPODN@?$AAi?$AAt?$AA?9?$AAI?$AAT?$AA?$AA@ 100af5c8     libcpmt:winapinls.obj
 0002:000275d4       ??_C@_1M@HPNHIDJI@?$AAj?$AAa?$AA?9?$AAJ?$AAP?$AA?$AA@ 100af5d4     libcpmt:winapinls.obj
 0002:000275e0       ??_C@_1M@JLOOOEGK@?$AAk?$AAo?$AA?9?$AAK?$AAR?$AA?$AA@ 100af5e0     libcpmt:winapinls.obj
 0002:000275ec       ??_C@_1M@IHBJJGG@?$AAn?$AAl?$AA?9?$AAN?$AAL?$AA?$AA@ 100af5ec     libcpmt:winapinls.obj
 0002:000275f8       ??_C@_1M@EANAGDL@?$AAn?$AAb?$AA?9?$AAN?$AAO?$AA?$AA@ 100af5f8     libcpmt:winapinls.obj
 0002:00027604       ??_C@_1M@NEIEMEGP@?$AAp?$AAl?$AA?9?$AAP?$AAL?$AA?$AA@ 100af604     libcpmt:winapinls.obj
 0002:00027610       ??_C@_1M@BOCFIGEP@?$AAp?$AAt?$AA?9?$AAB?$AAR?$AA?$AA@ 100af610     libcpmt:winapinls.obj
 0002:0002761c       ??_C@_1M@IMPFOPBG@?$AAr?$AAo?$AA?9?$AAR?$AAO?$AA?$AA@ 100af61c     libcpmt:winapinls.obj
 0002:00027628       ??_C@_1M@IDNNEJMM@?$AAr?$AAu?$AA?9?$AAR?$AAU?$AA?$AA@ 100af628     libcpmt:winapinls.obj
 0002:00027634       ??_C@_1M@LILEEOGM@?$AAh?$AAr?$AA?9?$AAH?$AAR?$AA?$AA@ 100af634     libcpmt:winapinls.obj
 0002:00027640       ??_C@_1M@FKIFEHPB@?$AAs?$AAk?$AA?9?$AAS?$AAK?$AA?$AA@ 100af640     libcpmt:winapinls.obj
 0002:0002764c       ??_C@_1M@LJMAMNPJ@?$AAs?$AAq?$AA?9?$AAA?$AAL?$AA?$AA@ 100af64c     libcpmt:winapinls.obj
 0002:00027658       ??_C@_1M@GIAKDKJK@?$AAs?$AAv?$AA?9?$AAS?$AAE?$AA?$AA@ 100af658     libcpmt:winapinls.obj
 0002:00027664       ??_C@_1M@MKJKIKCL@?$AAt?$AAh?$AA?9?$AAT?$AAH?$AA?$AA@ 100af664     libcpmt:winapinls.obj
 0002:00027670       ??_C@_1M@MFLCCMPB@?$AAt?$AAr?$AA?9?$AAT?$AAR?$AA?$AA@ 100af670     libcpmt:winapinls.obj
 0002:0002767c       ??_C@_1M@OIJHDKJN@?$AAu?$AAr?$AA?9?$AAP?$AAK?$AA?$AA@ 100af67c     libcpmt:winapinls.obj
 0002:00027688       ??_C@_1M@LHIPCIEK@?$AAi?$AAd?$AA?9?$AAI?$AAD?$AA?$AA@ 100af688     libcpmt:winapinls.obj
 0002:00027694       ??_C@_1M@MFMOBGI@?$AAu?$AAk?$AA?9?$AAU?$AAA?$AA?$AA@ 100af694     libcpmt:winapinls.obj
 0002:000276a0       ??_C@_1M@OBGLJIPL@?$AAb?$AAe?$AA?9?$AAB?$AAY?$AA?$AA@ 100af6a0     libcpmt:winapinls.obj
 0002:000276ac       ??_C@_1M@BCFAJEAD@?$AAs?$AAl?$AA?9?$AAS?$AAI?$AA?$AA@ 100af6ac     libcpmt:winapinls.obj
 0002:000276b8       ??_C@_1M@FKFFEDDN@?$AAe?$AAt?$AA?9?$AAE?$AAE?$AA?$AA@ 100af6b8     libcpmt:winapinls.obj
 0002:000276c4       ??_C@_1M@KGKKAACI@?$AAl?$AAv?$AA?9?$AAL?$AAV?$AA?$AA@ 100af6c4     libcpmt:winapinls.obj
 0002:000276d0       ??_C@_1M@IFGBIJO@?$AAl?$AAt?$AA?9?$AAL?$AAT?$AA?$AA@ 100af6d0     libcpmt:winapinls.obj
 0002:000276dc       ??_C@_1M@FGEAHEDM@?$AAf?$AAa?$AA?9?$AAI?$AAR?$AA?$AA@ 100af6dc     libcpmt:winapinls.obj
 0002:000276e8       ??_C@_1M@KBMAIBFN@?$AAv?$AAi?$AA?9?$AAV?$AAN?$AA?$AA@ 100af6e8     libcpmt:winapinls.obj
 0002:000276f4       ??_C@_1M@GPCBKDJK@?$AAh?$AAy?$AA?9?$AAA?$AAM?$AA?$AA@ 100af6f4     libcpmt:winapinls.obj
 0002:00027700       ??_C@_1BG@BECMDDJB@?$AAa?$AAz?$AA?9?$AAA?$AAZ?$AA?9?$AAL?$AAa?$AAt?$AAn?$AA?$AA@ 100af700     libcpmt:winapinls.obj
 0002:00027718       ??_C@_1M@MAOFCAEA@?$AAe?$AAu?$AA?9?$AAE?$AAS?$AA?$AA@ 100af718     libcpmt:winapinls.obj
 0002:00027724       ??_C@_1M@IGHABKPI@?$AAm?$AAk?$AA?9?$AAM?$AAK?$AA?$AA@ 100af724     libcpmt:winapinls.obj
 0002:00027730       ??_C@_1M@IAIGNEJG@?$AAt?$AAn?$AA?9?$AAZ?$AAA?$AA?$AA@ 100af730     libcpmt:winapinls.obj
 0002:0002773c       ??_C@_1M@IIJCOJFA@?$AAx?$AAh?$AA?9?$AAZ?$AAA?$AA?$AA@ 100af73c     libcpmt:winapinls.obj
 0002:00027748       ??_C@_1M@LGPJHNJH@?$AAz?$AAu?$AA?9?$AAZ?$AAA?$AA?$AA@ 100af748     libcpmt:winapinls.obj
 0002:00027754       ??_C@_1M@HOKAOIO@?$AAa?$AAf?$AA?9?$AAZ?$AAA?$AA?$AA@ 100af754     libcpmt:winapinls.obj
 0002:00027760       ??_C@_1M@DPCLHLIE@?$AAk?$AAa?$AA?9?$AAG?$AAE?$AA?$AA@ 100af760     libcpmt:winapinls.obj
 0002:0002776c       ??_C@_1M@BLKMHJBI@?$AAf?$AAo?$AA?9?$AAF?$AAO?$AA?$AA@ 100af76c     libcpmt:winapinls.obj
 0002:00027778       ??_C@_1M@LGGJAPPB@?$AAh?$AAi?$AA?9?$AAI?$AAN?$AA?$AA@ 100af778     libcpmt:winapinls.obj
 0002:00027784       ??_C@_1M@FIKPIHFE@?$AAm?$AAt?$AA?9?$AAM?$AAT?$AA?$AA@ 100af784     libcpmt:winapinls.obj
 0002:00027790       ??_C@_1M@HEGGPBFA@?$AAs?$AAe?$AA?9?$AAN?$AAO?$AA?$AA@ 100af790     libcpmt:winapinls.obj
 0002:0002779c       ??_C@_1M@EIBJEEPA@?$AAm?$AAs?$AA?9?$AAM?$AAY?$AA?$AA@ 100af79c     libcpmt:winapinls.obj
 0002:000277a8       ??_C@_1M@FHLBGMPP@?$AAk?$AAk?$AA?9?$AAK?$AAZ?$AA?$AA@ 100af7a8     libcpmt:winapinls.obj
 0002:000277b4       ??_C@_1M@NGJJLCGI@?$AAk?$AAy?$AA?9?$AAK?$AAG?$AA?$AA@ 100af7b4     libcpmt:winapinls.obj
 0002:000277c0       ??_C@_1M@GIENNBFC@?$AAs?$AAw?$AA?9?$AAK?$AAE?$AA?$AA@ 100af7c0     libcpmt:winapinls.obj
 0002:000277cc       ??_C@_1BG@NDGMJIMJ@?$AAu?$AAz?$AA?9?$AAU?$AAZ?$AA?9?$AAL?$AAa?$AAt?$AAn?$AA?$AA@ 100af7cc     libcpmt:winapinls.obj
 0002:000277e4       ??_C@_1M@IDCCIHBC@?$AAt?$AAt?$AA?9?$AAR?$AAU?$AA?$AA@ 100af7e4     libcpmt:winapinls.obj
 0002:000277f0       ??_C@_1M@LOICPMOJ@?$AAb?$AAn?$AA?9?$AAI?$AAN?$AA?$AA@ 100af7f0     libcpmt:winapinls.obj
 0002:000277fc       ??_C@_1M@KPKKNEAH@?$AAp?$AAa?$AA?9?$AAI?$AAN?$AA?$AA@ 100af7fc     libcpmt:winapinls.obj
 0002:00027808       ??_C@_1M@PJGPPBOG@?$AAg?$AAu?$AA?9?$AAI?$AAN?$AA?$AA@ 100af808     libcpmt:winapinls.obj
 0002:00027814       ??_C@_1M@KMKMOPHI@?$AAt?$AAa?$AA?9?$AAI?$AAN?$AA?$AA@ 100af814     libcpmt:winapinls.obj
 0002:00027820       ??_C@_1M@KFEHEPAC@?$AAt?$AAe?$AA?9?$AAI?$AAN?$AA?$AA@ 100af820     libcpmt:winapinls.obj
 0002:0002782c       ??_C@_1M@CDCLMGHI@?$AAk?$AAn?$AA?9?$AAI?$AAN?$AA?$AA@ 100af82c     libcpmt:winapinls.obj
 0002:00027838       ??_C@_1M@MIODLDKF@?$AAm?$AAl?$AA?9?$AAI?$AAN?$AA?$AA@ 100af838     libcpmt:winapinls.obj
 0002:00027844       ??_C@_1M@PBIEACPO@?$AAm?$AAr?$AA?9?$AAI?$AAN?$AA?$AA@ 100af844     libcpmt:winapinls.obj
 0002:00027850       ??_C@_1M@NIDEAGPH@?$AAs?$AAa?$AA?9?$AAI?$AAN?$AA?$AA@ 100af850     libcpmt:winapinls.obj
 0002:0002785c       ??_C@_1M@FHIHCBIO@?$AAm?$AAn?$AA?9?$AAM?$AAN?$AA?$AA@ 100af85c     libcpmt:winapinls.obj
 0002:00027868       ??_C@_1M@JAIJPENP@?$AAc?$AAy?$AA?9?$AAG?$AAB?$AA?$AA@ 100af868     libcpmt:winapinls.obj
 0002:00027874       ??_C@_1M@PHGFBEPN@?$AAg?$AAl?$AA?9?$AAE?$AAS?$AA?$AA@ 100af874     libcpmt:winapinls.obj
 0002:00027880       ??_C@_1O@KPIPDNCP@?$AAk?$AAo?$AAk?$AA?9?$AAI?$AAN?$AA?$AA@ 100af880     libcpmt:winapinls.obj
 0002:00027890       ??_C@_1O@KNHJLDJA@?$AAs?$AAy?$AAr?$AA?9?$AAS?$AAY?$AA?$AA@ 100af890     libcpmt:winapinls.obj
 0002:000278a0       ??_C@_1O@MKEKBLAH@?$AAd?$AAi?$AAv?$AA?9?$AAM?$AAV?$AA?$AA@ 100af8a0     libcpmt:winapinls.obj
 0002:000278b0       ??_C@_1O@OHDCKDDF@?$AAq?$AAu?$AAz?$AA?9?$AAB?$AAO?$AA?$AA@ 100af8b0     libcpmt:winapinls.obj
 0002:000278c0       ??_C@_1M@LEPJNLFD@?$AAn?$AAs?$AA?9?$AAZ?$AAA?$AA?$AA@ 100af8c0     libcpmt:winapinls.obj
 0002:000278cc       ??_C@_1M@OMLEIIJB@?$AAm?$AAi?$AA?9?$AAN?$AAZ?$AA?$AA@ 100af8cc     libcpmt:winapinls.obj
 0002:000278d8       ??_C@_1M@PMPEAILG@?$AAa?$AAr?$AA?9?$AAI?$AAQ?$AA?$AA@ 100af8d8     libcpmt:winapinls.obj
 0002:000278e4       ??_C@_1M@BIBDDEMK@?$AAz?$AAh?$AA?9?$AAC?$AAN?$AA?$AA@ 100af8e4     libcpmt:winapinls.obj
 0002:000278f0       ??_C@_1M@CNKPNOEE@?$AAd?$AAe?$AA?9?$AAC?$AAH?$AA?$AA@ 100af8f0     libcpmt:winapinls.obj
 0002:000278fc       ??_C@_1M@LKMGMLKO@?$AAe?$AAn?$AA?9?$AAG?$AAB?$AA?$AA@ 100af8fc     libcpmt:winapinls.obj
 0002:00027908       ??_C@_1M@PGKJFFGL@?$AAe?$AAs?$AA?9?$AAM?$AAX?$AA?$AA@ 100af908     libcpmt:winapinls.obj
 0002:00027914       ??_C@_1M@DNNANBDC@?$AAf?$AAr?$AA?9?$AAB?$AAE?$AA?$AA@ 100af914     libcpmt:winapinls.obj
 0002:00027920       ??_C@_1M@HLGMDFHM@?$AAi?$AAt?$AA?9?$AAC?$AAH?$AA?$AA@ 100af920     libcpmt:winapinls.obj
 0002:0002792c       ??_C@_1M@CLLBGJH@?$AAn?$AAl?$AA?9?$AAB?$AAE?$AA?$AA@ 100af92c     libcpmt:winapinls.obj
 0002:00027938       ??_C@_1M@BODBOGLF@?$AAn?$AAn?$AA?9?$AAN?$AAO?$AA?$AA@ 100af938     libcpmt:winapinls.obj
 0002:00027944       ??_C@_1M@HFFAHKAD@?$AAp?$AAt?$AA?9?$AAP?$AAT?$AA?$AA@ 100af944     libcpmt:winapinls.obj
 0002:00027950       ??_C@_1BG@LNOAKHIE@?$AAs?$AAr?$AA?9?$AAS?$AAP?$AA?9?$AAL?$AAa?$AAt?$AAn?$AA?$AA@ 100af950     libcpmt:winapinls.obj
 0002:00027968       ??_C@_1M@HBMHBGAK@?$AAs?$AAv?$AA?9?$AAF?$AAI?$AA?$AA@ 100af968     libcpmt:winapinls.obj
 0002:00027974       ??_C@_1BG@DGCJGJBE@?$AAa?$AAz?$AA?9?$AAA?$AAZ?$AA?9?$AAC?$AAy?$AAr?$AAl?$AA?$AA@ 100af974     libcpmt:winapinls.obj
 0002:0002798c       ??_C@_1M@KEJDAAHB@?$AAs?$AAe?$AA?9?$AAS?$AAE?$AA?$AA@ 100af98c     libcpmt:winapinls.obj
 0002:00027998       ??_C@_1M@HEIBJJAD@?$AAm?$AAs?$AA?9?$AAB?$AAN?$AA?$AA@ 100af998     libcpmt:winapinls.obj
 0002:000279a4       ??_C@_1BG@PBGJMCEM@?$AAu?$AAz?$AA?9?$AAU?$AAZ?$AA?9?$AAC?$AAy?$AAr?$AAl?$AA?$AA@ 100af9a4     libcpmt:winapinls.obj
 0002:000279bc       ??_C@_1O@LAOBCMDF@?$AAq?$AAu?$AAz?$AA?9?$AAE?$AAC?$AA?$AA@ 100af9bc     libcpmt:winapinls.obj
 0002:000279cc       ??_C@_1M@POEEMAIO@?$AAa?$AAr?$AA?9?$AAE?$AAG?$AA?$AA@ 100af9cc     libcpmt:winapinls.obj
 0002:000279d8       ??_C@_1M@EFAKDEDL@?$AAz?$AAh?$AA?9?$AAH?$AAK?$AA?$AA@ 100af9d8     libcpmt:winapinls.obj
 0002:000279e4       ??_C@_1M@HKKIJHGI@?$AAd?$AAe?$AA?9?$AAA?$AAT?$AA?$AA@ 100af9e4     libcpmt:winapinls.obj
 0002:000279f0       ??_C@_1M@KBFBEHJF@?$AAe?$AAn?$AA?9?$AAA?$AAU?$AA?$AA@ 100af9f0     libcpmt:winapinls.obj
 0002:000279fc       ??_C@_1M@MNPLFAAH@?$AAe?$AAs?$AA?9?$AAE?$AAS?$AA?$AA@ 100af9fc     libcpmt:winapinls.obj
 0002:00027a08       ??_C@_1M@HJOOJFMA@?$AAf?$AAr?$AA?9?$AAC?$AAA?$AA?$AA@ 100afa08     libcpmt:winapinls.obj
 0002:00027a14       ??_C@_1BG@JPOFPNAB@?$AAs?$AAr?$AA?9?$AAS?$AAP?$AA?9?$AAC?$AAy?$AAr?$AAl?$AA?$AA@ 100afa14     libcpmt:winapinls.obj
 0002:00027a2c       ??_C@_1M@LNFOCMOB@?$AAs?$AAe?$AA?9?$AAF?$AAI?$AA?$AA@ 100afa2c     libcpmt:winapinls.obj
 0002:00027a38       ??_C@_1O@MGJBOAMB@?$AAq?$AAu?$AAz?$AA?9?$AAP?$AAE?$AA?$AA@ 100afa38     libcpmt:winapinls.obj
 0002:00027a48       ??_C@_1M@GJINLBOK@?$AAa?$AAr?$AA?9?$AAL?$AAY?$AA?$AA@ 100afa48     libcpmt:winapinls.obj
 0002:00027a54       ??_C@_1M@GGMNHJNL@?$AAz?$AAh?$AA?9?$AAS?$AAG?$AA?$AA@ 100afa54     libcpmt:winapinls.obj
 0002:00027a60       ??_C@_1M@HOIKODND@?$AAd?$AAe?$AA?9?$AAL?$AAU?$AA?$AA@ 100afa60     libcpmt:winapinls.obj
 0002:00027a6c       ??_C@_1M@DDOCCGFG@?$AAe?$AAn?$AA?9?$AAC?$AAA?$AA?$AA@ 100afa6c     libcpmt:winapinls.obj
 0002:00027a78       ??_C@_1M@BNOEMJLF@?$AAe?$AAs?$AA?9?$AAG?$AAT?$AA?$AA@ 100afa78     libcpmt:winapinls.obj
 0002:00027a84       ??_C@_1M@EOGNKEK@?$AAf?$AAr?$AA?9?$AAC?$AAH?$AA?$AA@ 100afa84     libcpmt:winapinls.obj
 0002:00027a90       ??_C@_1M@FLIDJFHL@?$AAh?$AAr?$AA?9?$AAB?$AAA?$AA?$AA@ 100afa90     libcpmt:winapinls.obj
 0002:00027a9c       ??_C@_1O@FMCELNAJ@?$AAs?$AAm?$AAj?$AA?9?$AAN?$AAO?$AA?$AA@ 100afa9c     libcpmt:winapinls.obj
 0002:00027aac       ??_C@_1M@JHGLJMGJ@?$AAa?$AAr?$AA?9?$AAD?$AAZ?$AA?$AA@ 100afaac     libcpmt:winapinls.obj
 0002:00027ab8       ??_C@_1M@JKKFDCNP@?$AAz?$AAh?$AA?9?$AAM?$AAO?$AA?$AA@ 100afab8     libcpmt:winapinls.obj
 0002:00027ac4       ??_C@_1M@GEEFALPE@?$AAd?$AAe?$AA?9?$AAL?$AAI?$AA?$AA@ 100afac4     libcpmt:winapinls.obj
 0002:00027ad0       ??_C@_1M@IGEOFBG@?$AAe?$AAn?$AA?9?$AAN?$AAZ?$AA?$AA@ 100afad0     libcpmt:winapinls.obj
 0002:00027adc       ??_C@_1M@KDBONEHP@?$AAe?$AAs?$AA?9?$AAC?$AAR?$AA?$AA@ 100afadc     libcpmt:winapinls.obj
 0002:00027ae8       ??_C@_1M@FHMDOHNN@?$AAf?$AAr?$AA?9?$AAL?$AAU?$AA?$AA@ 100afae8     libcpmt:winapinls.obj
 0002:00027af4       ??_C@_1BG@NFKKMAFG@?$AAb?$AAs?$AA?9?$AAB?$AAA?$AA?9?$AAL?$AAa?$AAt?$AAn?$AA?$AA@ 100afaf4     libcpmt:winapinls.obj
 0002:00027b0c       ??_C@_1O@IMNBEMCI@?$AAs?$AAm?$AAj?$AA?9?$AAS?$AAE?$AA?$AA@ 100afb0c     libcpmt:winapinls.obj
 0002:00027b1c       ??_C@_1M@DHHMBNDP@?$AAa?$AAr?$AA?9?$AAM?$AAA?$AA?$AA@ 100afb1c     libcpmt:winapinls.obj
 0002:00027b28       ??_C@_1M@BNBLJCGH@?$AAe?$AAn?$AA?9?$AAI?$AAE?$AA?$AA@ 100afb28     libcpmt:winapinls.obj
 0002:00027b34       ??_C@_1M@GEPAFMDL@?$AAe?$AAs?$AA?9?$AAP?$AAA?$AA?$AA@ 100afb34     libcpmt:winapinls.obj
 0002:00027b40       ??_C@_1M@OJONDMDL@?$AAf?$AAr?$AA?9?$AAM?$AAC?$AA?$AA@ 100afb40     libcpmt:winapinls.obj
 0002:00027b4c       ??_C@_1BG@OBCNFJB@?$AAs?$AAr?$AA?9?$AAB?$AAA?$AA?9?$AAL?$AAa?$AAt?$AAn?$AA?$AA@ 100afb4c     libcpmt:winapinls.obj
 0002:00027b64       ??_C@_1O@KEMEEGPO@?$AAs?$AAm?$AAa?$AA?9?$AAN?$AAO?$AA?$AA@ 100afb64     libcpmt:winapinls.obj
 0002:00027b74       ??_C@_1M@ELMGFODK@?$AAa?$AAr?$AA?9?$AAT?$AAN?$AA?$AA@ 100afb74     libcpmt:winapinls.obj
 0002:00027b80       ??_C@_1M@BHDLHFAF@?$AAe?$AAn?$AA?9?$AAZ?$AAA?$AA?$AA@ 100afb80     libcpmt:winapinls.obj
 0002:00027b8c       ??_C@_1M@BMGIGLIF@?$AAe?$AAs?$AA?9?$AAD?$AAO?$AA?$AA@ 100afb8c     libcpmt:winapinls.obj
 0002:00027b98       ??_C@_1BG@CMBHIPBE@?$AAs?$AAr?$AA?9?$AAB?$AAA?$AA?9?$AAC?$AAy?$AAr?$AAl?$AA?$AA@ 100afb98     libcpmt:winapinls.obj
 0002:00027bb0       ??_C@_1O@HEDBLHNP@?$AAs?$AAm?$AAa?$AA?9?$AAS?$AAE?$AA?$AA@ 100afbb0     libcpmt:winapinls.obj
 0002:00027bc0       ??_C@_1M@DAGCADIM@?$AAa?$AAr?$AA?9?$AAO?$AAM?$AA?$AA@ 100afbc0     libcpmt:winapinls.obj
 0002:00027bcc       ??_C@_1M@FODLMICG@?$AAe?$AAn?$AA?9?$AAJ?$AAM?$AA?$AA@ 100afbcc     libcpmt:winapinls.obj
 0002:00027bd8       ??_C@_1M@DNMLCIHB@?$AAe?$AAs?$AA?9?$AAV?$AAE?$AA?$AA@ 100afbd8     libcpmt:winapinls.obj
 0002:00027be4       ??_C@_1O@EOKHMKJK@?$AAs?$AAm?$AAs?$AA?9?$AAF?$AAI?$AA?$AA@ 100afbe4     libcpmt:winapinls.obj
 0002:00027bf4       ??_C@_1M@CAFJMKOF@?$AAa?$AAr?$AA?9?$AAY?$AAE?$AA?$AA@ 100afbf4     libcpmt:winapinls.obj
 0002:00027c00       ??_C@_1M@CBFHIJLI@?$AAe?$AAn?$AA?9?$AAC?$AAB?$AA?$AA@ 100afc00     libcpmt:winapinls.obj
 0002:00027c0c       ??_C@_1M@BGNFLDN@?$AAe?$AAs?$AA?9?$AAC?$AAO?$AA?$AA@ 100afc0c     libcpmt:winapinls.obj
 0002:00027c18       ??_C@_1O@JMPHMAMC@?$AAs?$AAm?$AAn?$AA?9?$AAF?$AAI?$AA?$AA@ 100afc18     libcpmt:winapinls.obj
 0002:00027c28       ??_C@_1M@JLANABKE@?$AAa?$AAr?$AA?9?$AAS?$AAY?$AA?$AA@ 100afc28     libcpmt:winapinls.obj
 0002:00027c34       ??_C@_1M@HPKGCFGN@?$AAe?$AAn?$AA?9?$AAB?$AAZ?$AA?$AA@ 100afc34     libcpmt:winapinls.obj
 0002:00027c40       ??_C@_1M@OLJCMLGM@?$AAe?$AAs?$AA?9?$AAP?$AAE?$AA?$AA@ 100afc40     libcpmt:winapinls.obj
 0002:00027c4c       ??_C@_1M@MKKGFKLE@?$AAa?$AAr?$AA?9?$AAJ?$AAO?$AA?$AA@ 100afc4c     libcpmt:winapinls.obj
 0002:00027c58       ??_C@_1M@EKPGLDNI@?$AAe?$AAn?$AA?9?$AAT?$AAT?$AA?$AA@ 100afc58     libcpmt:winapinls.obj
 0002:00027c64       ??_C@_1M@OONGHFHE@?$AAe?$AAs?$AA?9?$AAA?$AAR?$AA?$AA@ 100afc64     libcpmt:winapinls.obj
 0002:00027c70       ??_C@_1M@OOJFGBHE@?$AAa?$AAr?$AA?9?$AAL?$AAB?$AA?$AA@ 100afc70     libcpmt:winapinls.obj
 0002:00027c7c       ??_C@_1M@GCEJHNEG@?$AAe?$AAn?$AA?9?$AAZ?$AAW?$AA?$AA@ 100afc7c     libcpmt:winapinls.obj
 0002:00027c88       ??_C@_1M@JNOCAHJI@?$AAe?$AAs?$AA?9?$AAE?$AAC?$AA?$AA@ 100afc88     libcpmt:winapinls.obj
 0002:00027c94       ??_C@_1M@JEFHPGGB@?$AAa?$AAr?$AA?9?$AAK?$AAW?$AA?$AA@ 100afc94     libcpmt:winapinls.obj
 0002:00027ca0       ??_C@_1M@MLKIBJOJ@?$AAe?$AAn?$AA?9?$AAP?$AAH?$AA?$AA@ 100afca0     libcpmt:winapinls.obj
 0002:00027cac       ??_C@_1M@BDNIPEND@?$AAe?$AAs?$AA?9?$AAC?$AAL?$AA?$AA@ 100afcac     libcpmt:winapinls.obj
 0002:00027cb8       ??_C@_1M@MPNMEKBD@?$AAa?$AAr?$AA?9?$AAA?$AAE?$AA?$AA@ 100afcb8     libcpmt:winapinls.obj
 0002:00027cc4       ??_C@_1M@KBJALCPI@?$AAe?$AAs?$AA?9?$AAU?$AAY?$AA?$AA@ 100afcc4     libcpmt:winapinls.obj
 0002:00027cd0       ??_C@_1M@LLCCOAGA@?$AAa?$AAr?$AA?9?$AAB?$AAH?$AA?$AA@ 100afcd0     libcpmt:winapinls.obj
 0002:00027cdc       ??_C@_1M@PBFNCDEL@?$AAe?$AAs?$AA?9?$AAP?$AAY?$AA?$AA@ 100afcdc     libcpmt:winapinls.obj
 0002:00027ce8       ??_C@_1M@EDGINPNP@?$AAa?$AAr?$AA?9?$AAQ?$AAA?$AA?$AA@ 100afce8     libcpmt:winapinls.obj
 0002:00027cf4       ??_C@_1M@MKDBIIJI@?$AAe?$AAs?$AA?9?$AAB?$AAO?$AA?$AA@ 100afcf4     libcpmt:winapinls.obj
 0002:00027d00       ??_C@_1M@CPKKEBLD@?$AAe?$AAs?$AA?9?$AAS?$AAV?$AA?$AA@ 100afd00     libcpmt:winapinls.obj
 0002:00027d0c       ??_C@_1M@NDBGMMJL@?$AAe?$AAs?$AA?9?$AAH?$AAN?$AA?$AA@ 100afd0c     libcpmt:winapinls.obj
 0002:00027d18       ??_C@_1M@JIJIBHDP@?$AAe?$AAs?$AA?9?$AAN?$AAI?$AA?$AA@ 100afd18     libcpmt:winapinls.obj
 0002:00027d24       ??_C@_1M@CGFMKEEK@?$AAe?$AAs?$AA?9?$AAP?$AAR?$AA?$AA@ 100afd24     libcpmt:winapinls.obj
 0002:00027d30       ??_C@_1O@ICJHKIIK@?$AAz?$AAh?$AA?9?$AAC?$AAH?$AAT?$AA?$AA@ 100afd30     libcpmt:winapinls.obj
 0002:00027d40       ??_C@_15CLNEJCE@?$AAs?$AAr?$AA?$AA@ 100afd40     libcpmt:winapinls.obj
 0002:00027d48       ??_C@_1M@KAHEKEIG@?$AAa?$AAf?$AA?9?$AAz?$AAa?$AA?$AA@ 100afd48     libcpmt:winapinls.obj
 0002:00027d54       ??_C@_1M@GIECOABL@?$AAa?$AAr?$AA?9?$AAa?$AAe?$AA?$AA@ 100afd54     libcpmt:winapinls.obj
 0002:00027d60       ??_C@_1M@BMLMEKGI@?$AAa?$AAr?$AA?9?$AAb?$AAh?$AA?$AA@ 100afd60     libcpmt:winapinls.obj
 0002:00027d6c       ??_C@_1M@DAPFDGGB@?$AAa?$AAr?$AA?9?$AAd?$AAz?$AA?$AA@ 100afd6c     libcpmt:winapinls.obj
 0002:00027d78       ??_C@_1M@FJNKGKIG@?$AAa?$AAr?$AA?9?$AAe?$AAg?$AA?$AA@ 100afd78     libcpmt:winapinls.obj
 0002:00027d84       ??_C@_1M@FLGKKCLO@?$AAa?$AAr?$AA?9?$AAi?$AAq?$AA?$AA@ 100afd84     libcpmt:winapinls.obj
 0002:00027d90       ??_C@_1M@GNDIPALM@?$AAa?$AAr?$AA?9?$AAj?$AAo?$AA?$AA@ 100afd90     libcpmt:winapinls.obj
 0002:00027d9c       ??_C@_1M@DDMJFMGJ@?$AAa?$AAr?$AA?9?$AAk?$AAw?$AA?$AA@ 100afd9c     libcpmt:winapinls.obj
 0002:00027da8       ??_C@_1M@EJALMLHM@?$AAa?$AAr?$AA?9?$AAl?$AAb?$AA?$AA@ 100afda8     libcpmt:winapinls.obj
 0002:00027db4       ??_C@_1M@MOBDBLOC@?$AAa?$AAr?$AA?9?$AAl?$AAy?$AA?$AA@ 100afdb4     libcpmt:winapinls.obj
 0002:00027dc0       ??_C@_1M@JAOCLHDH@?$AAa?$AAr?$AA?9?$AAm?$AAa?$AA?$AA@ 100afdc0     libcpmt:winapinls.obj
 0002:00027dcc       ??_C@_1M@JHPMKJIE@?$AAa?$AAr?$AA?9?$AAo?$AAm?$AA?$AA@ 100afdcc     libcpmt:winapinls.obj
 0002:00027dd8       ??_C@_1M@OEPGHFNH@?$AAa?$AAr?$AA?9?$AAq?$AAa?$AA?$AA@ 100afdd8     libcpmt:winapinls.obj
 0002:00027de4       ??_C@_1M@KJDONENM@?$AAa?$AAr?$AA?9?$AAs?$AAa?$AA?$AA@ 100afde4     libcpmt:winapinls.obj
 0002:00027df0       ??_C@_1M@DMJDKLKM@?$AAa?$AAr?$AA?9?$AAs?$AAy?$AA?$AA@ 100afdf0     libcpmt:winapinls.obj
 0002:00027dfc       ??_C@_1M@OMFIPEDC@?$AAa?$AAr?$AA?9?$AAt?$AAn?$AA?$AA@ 100afdfc     libcpmt:winapinls.obj
 0002:00027e08       ??_C@_1M@IHMHGAON@?$AAa?$AAr?$AA?9?$AAy?$AAe?$AA?$AA@ 100afe08     libcpmt:winapinls.obj
 0002:00027e14       ??_C@_1BG@KDCPGJGB@?$AAa?$AAz?$AA?9?$AAa?$AAz?$AA?9?$AAc?$AAy?$AAr?$AAl?$AA?$AA@ 100afe14     libcpmt:winapinls.obj
 0002:00027e2c       ??_C@_1BG@IBCKDDOE@?$AAa?$AAz?$AA?9?$AAa?$AAz?$AA?9?$AAl?$AAa?$AAt?$AAn?$AA?$AA@ 100afe2c     libcpmt:winapinls.obj
 0002:00027e44       ??_C@_1M@EGPFDCPD@?$AAb?$AAe?$AA?9?$AAb?$AAy?$AA?$AA@ 100afe44     libcpmt:winapinls.obj
 0002:00027e50       ??_C@_1M@PCMGMCGC@?$AAb?$AAg?$AA?9?$AAb?$AAg?$AA?$AA@ 100afe50     libcpmt:winapinls.obj
 0002:00027e5c       ??_C@_1M@BJBMFGOB@?$AAb?$AAn?$AA?9?$AAi?$AAn?$AA?$AA@ 100afe5c     libcpmt:winapinls.obj
 0002:00027e68       ??_C@_1BG@EAKMMACD@?$AAb?$AAs?$AA?9?$AAb?$AAa?$AA?9?$AAl?$AAa?$AAt?$AAn?$AA?$AA@ 100afe68     libcpmt:winapinls.obj
 0002:00027e80       ??_C@_1M@KGADAODK@?$AAc?$AAa?$AA?9?$AAe?$AAs?$AA?$AA@ 100afe80     libcpmt:winapinls.obj
 0002:00027e8c       ??_C@_1M@COAJPDHI@?$AAc?$AAs?$AA?9?$AAc?$AAz?$AA?$AA@ 100afe8c     libcpmt:winapinls.obj
 0002:00027e98       ??_C@_1M@DHBHFONH@?$AAc?$AAy?$AA?9?$AAg?$AAb?$AA?$AA@ 100afe98     libcpmt:winapinls.obj
 0002:00027ea4       ??_C@_1M@IMGKELGA@?$AAd?$AAa?$AA?9?$AAd?$AAk?$AA?$AA@ 100afea4     libcpmt:winapinls.obj
 0002:00027eb0       ??_C@_1M@NNDGDNGA@?$AAd?$AAe?$AA?9?$AAa?$AAt?$AA?$AA@ 100afeb0     libcpmt:winapinls.obj
 0002:00027ebc       ??_C@_1M@IKDBHEEM@?$AAd?$AAe?$AA?9?$AAc?$AAh?$AA?$AA@ 100afebc     libcpmt:winapinls.obj
 0002:00027ec8       ??_C@_1M@GFFOJMCJ@?$AAd?$AAe?$AA?9?$AAd?$AAe?$AA?$AA@ 100afec8     libcpmt:winapinls.obj
 0002:00027ed4       ??_C@_1M@MDNLKBPM@?$AAd?$AAe?$AA?9?$AAl?$AAi?$AA?$AA@ 100afed4     libcpmt:winapinls.obj
 0002:00027ee0       ??_C@_1M@NJBEEJNL@?$AAd?$AAe?$AA?9?$AAl?$AAu?$AA?$AA@ 100afee0     libcpmt:winapinls.obj
 0002:00027eec       ??_C@_1O@GNNELBAP@?$AAd?$AAi?$AAv?$AA?9?$AAm?$AAv?$AA?$AA@ 100afeec     libcpmt:winapinls.obj
 0002:00027efc       ??_C@_1M@EJLEOGAE@?$AAe?$AAl?$AA?9?$AAg?$AAr?$AA?$AA@ 100afefc     libcpmt:winapinls.obj
 0002:00027f08       ??_C@_1M@GMPONJN@?$AAe?$AAn?$AA?9?$AAa?$AAu?$AA?$AA@ 100aff08     libcpmt:winapinls.obj
 0002:00027f14       ??_C@_1M@NIDIIPGF@?$AAe?$AAn?$AA?9?$AAb?$AAz?$AA?$AA@ 100aff14     libcpmt:winapinls.obj
 0002:00027f20       ??_C@_1M@JEHMIMFO@?$AAe?$AAn?$AA?9?$AAc?$AAa?$AA?$AA@ 100aff20     libcpmt:winapinls.obj
 0002:00027f2c       ??_C@_1M@IGMJCDLA@?$AAe?$AAn?$AA?9?$AAc?$AAb?$AA?$AA@ 100aff2c     libcpmt:winapinls.obj
 0002:00027f38       ??_C@_1M@BNFIGBKG@?$AAe?$AAn?$AA?9?$AAg?$AAb?$AA?$AA@ 100aff38     libcpmt:winapinls.obj
 0002:00027f44       ??_C@_1M@LKIFDIGP@?$AAe?$AAn?$AA?9?$AAi?$AAe?$AA?$AA@ 100aff44     libcpmt:winapinls.obj
 0002:00027f50       ??_C@_1M@PJKFGCCO@?$AAe?$AAn?$AA?9?$AAj?$AAm?$AA?$AA@ 100aff50     libcpmt:winapinls.obj
 0002:00027f5c       ??_C@_1M@KPPKEPBO@?$AAe?$AAn?$AA?9?$AAn?$AAz?$AA?$AA@ 100aff5c     libcpmt:winapinls.obj
 0002:00027f68       ??_C@_1M@GMDGLDOB@?$AAe?$AAn?$AA?9?$AAp?$AAh?$AA?$AA@ 100aff68     libcpmt:winapinls.obj
 0002:00027f74       ??_C@_1M@ONGIBJNA@?$AAe?$AAn?$AA?9?$AAt?$AAt?$AA?$AA@ 100aff74     libcpmt:winapinls.obj
 0002:00027f80       ??_C@_1M@LLODPCMM@?$AAe?$AAn?$AA?9?$AAu?$AAs?$AA?$AA@ 100aff80     libcpmt:winapinls.obj
 0002:00027f8c       ??_C@_1M@LAKFNPAN@?$AAe?$AAn?$AA?9?$AAz?$AAa?$AA?$AA@ 100aff8c     libcpmt:winapinls.obj
 0002:00027f98       ??_C@_1M@MFNHNHEO@?$AAe?$AAn?$AA?9?$AAz?$AAw?$AA?$AA@ 100aff98     libcpmt:winapinls.obj
 0002:00027fa4       ??_C@_1M@EJEINPHM@?$AAe?$AAs?$AA?9?$AAa?$AAr?$AA?$AA@ 100affa4     libcpmt:winapinls.obj
 0002:00027fb0       ??_C@_1M@GNKPCCJA@?$AAe?$AAs?$AA?9?$AAb?$AAo?$AA?$AA@ 100affb0     libcpmt:winapinls.obj
 0002:00027fbc       ??_C@_1M@LEEGFONL@?$AAe?$AAs?$AA?9?$AAc?$AAl?$AA?$AA@ 100affbc     libcpmt:winapinls.obj
 0002:00027fc8       ??_C@_1M@KGPDPBDF@?$AAe?$AAs?$AA?9?$AAc?$AAo?$AA?$AA@ 100affc8     libcpmt:winapinls.obj
 0002:00027fd4       ??_C@_1M@EIAHOHH@?$AAe?$AAs?$AA?9?$AAc?$AAr?$AA?$AA@ 100affd4     libcpmt:winapinls.obj
 0002:00027fe0       ??_C@_1M@LLPGMBIN@?$AAe?$AAs?$AA?9?$AAd?$AAo?$AA?$AA@ 100affe0     libcpmt:winapinls.obj
 0002:00027fec       ??_C@_1M@DKHMKNJA@?$AAe?$AAs?$AA?9?$AAe?$AAc?$AA?$AA@ 100affec     libcpmt:winapinls.obj
 0002:00027ff8       ??_C@_1M@GKGFPKAP@?$AAe?$AAs?$AA?9?$AAe?$AAs?$AA?$AA@ 100afff8     libcpmt:winapinls.obj
 0002:00028004       ??_C@_1M@LKHKGDLN@?$AAe?$AAs?$AA?9?$AAg?$AAt?$AA?$AA@ 100b0004     libcpmt:winapinls.obj
 0002:00028010       ??_C@_1M@HEIIGGJD@?$AAe?$AAs?$AA?9?$AAh?$AAn?$AA?$AA@ 100b0010     libcpmt:winapinls.obj
 0002:0002801c       ??_C@_1M@FBDHPPGD@?$AAe?$AAs?$AA?9?$AAm?$AAx?$AA?$AA@ 100b001c     libcpmt:winapinls.obj
 0002:00028028       ??_C@_1M@DPAGLNDH@?$AAe?$AAs?$AA?9?$AAn?$AAi?$AA?$AA@ 100b0028     libcpmt:winapinls.obj
 0002:00028034       ??_C@_1M@MDGOPGDD@?$AAe?$AAs?$AA?9?$AAp?$AAa?$AA?$AA@ 100b0034     libcpmt:winapinls.obj
 0002:00028040       ??_C@_1M@EMAMGBGE@?$AAe?$AAs?$AA?9?$AAp?$AAe?$AA?$AA@ 100b0040     libcpmt:winapinls.obj
 0002:0002804c       ??_C@_1M@IBMCAOEC@?$AAe?$AAs?$AA?9?$AAp?$AAr?$AA?$AA@ 100b004c     libcpmt:winapinls.obj
 0002:00028058       ??_C@_1M@FGMDIJED@?$AAe?$AAs?$AA?9?$AAp?$AAy?$AA?$AA@ 100b0058     libcpmt:winapinls.obj
 0002:00028064       ??_C@_1M@IIDEOLLL@?$AAe?$AAs?$AA?9?$AAs?$AAv?$AA?$AA@ 100b0064     libcpmt:winapinls.obj
 0002:00028070       ??_C@_1M@GAOBIPA@?$AAe?$AAs?$AA?9?$AAu?$AAy?$AA?$AA@ 100b0070     libcpmt:winapinls.obj
 0002:0002807c       ??_C@_1M@JKFFICHJ@?$AAe?$AAs?$AA?9?$AAv?$AAe?$AA?$AA@ 100b007c     libcpmt:winapinls.obj
 0002:00028088       ??_C@_1M@PNMLOJDF@?$AAe?$AAt?$AA?9?$AAe?$AAe?$AA?$AA@ 100b0088     libcpmt:winapinls.obj
 0002:00028094       ??_C@_1M@GHHLIKEI@?$AAe?$AAu?$AA?9?$AAe?$AAs?$AA?$AA@ 100b0094     libcpmt:winapinls.obj
 0002:000280a0       ??_C@_1M@PBNONODE@?$AAf?$AAa?$AA?9?$AAi?$AAr?$AA?$AA@ 100b00a0     libcpmt:winapinls.obj
 0002:000280ac       ??_C@_1M@JEEHPMIL@?$AAf?$AAi?$AA?9?$AAf?$AAi?$AA?$AA@ 100b00ac     libcpmt:winapinls.obj
 0002:000280b8       ??_C@_1M@LMDCNDBA@?$AAf?$AAo?$AA?9?$AAf?$AAo?$AA?$AA@ 100b00b8     libcpmt:winapinls.obj
 0002:000280c4       ??_C@_1M@JKEOHLDK@?$AAf?$AAr?$AA?9?$AAb?$AAe?$AA?$AA@ 100b00c4     libcpmt:winapinls.obj
 0002:000280d0       ??_C@_1M@NOHADPMI@?$AAf?$AAr?$AA?9?$AAc?$AAa?$AA?$AA@ 100b00d0     libcpmt:winapinls.obj
 0002:000280dc       ??_C@_1M@KDHIHAEC@?$AAf?$AAr?$AA?9?$AAc?$AAh?$AA?$AA@ 100b00dc     libcpmt:winapinls.obj
 0002:000280e8       ??_C@_1M@MMBBFGAK@?$AAf?$AAr?$AA?9?$AAf?$AAr?$AA?$AA@ 100b00e8     libcpmt:winapinls.obj
 0002:000280f4       ??_C@_1M@PAFNENNF@?$AAf?$AAr?$AA?9?$AAl?$AAu?$AA?$AA@ 100b00f4     libcpmt:winapinls.obj
 0002:00028100       ??_C@_1M@EOHDJGDD@?$AAf?$AAr?$AA?9?$AAm?$AAc?$AA?$AA@ 100b0100     libcpmt:winapinls.obj
 0002:0002810c       ??_C@_1M@FAPLLOPF@?$AAg?$AAl?$AA?9?$AAe?$AAs?$AA?$AA@ 100b010c     libcpmt:winapinls.obj
 0002:00028118       ??_C@_1M@FOPBFLOO@?$AAg?$AAu?$AA?9?$AAi?$AAn?$AA?$AA@ 100b0118     libcpmt:winapinls.obj
 0002:00028124       ??_C@_1M@KBMCINPM@?$AAh?$AAe?$AA?9?$AAi?$AAl?$AA?$AA@ 100b0124     libcpmt:winapinls.obj
 0002:00028130       ??_C@_1M@BBPHKFPJ@?$AAh?$AAi?$AA?9?$AAi?$AAn?$AA?$AA@ 100b0130     libcpmt:winapinls.obj
 0002:0002813c       ??_C@_1M@PMBNDPHD@?$AAh?$AAr?$AA?9?$AAb?$AAa?$AA?$AA@ 100b013c     libcpmt:winapinls.obj
 0002:00028148       ??_C@_1M@BPCKOEGE@?$AAh?$AAr?$AA?9?$AAh?$AAr?$AA?$AA@ 100b0148     libcpmt:winapinls.obj
 0002:00028154       ??_C@_1M@GACBMHKE@?$AAh?$AAu?$AA?9?$AAh?$AAu?$AA?$AA@ 100b0154     libcpmt:winapinls.obj
 0002:00028160       ??_C@_1M@MILPAJJC@?$AAh?$AAy?$AA?9?$AAa?$AAm?$AA?$AA@ 100b0160     libcpmt:winapinls.obj
 0002:0002816c       ??_C@_1M@BABBICEC@?$AAi?$AAd?$AA?9?$AAi?$AAd?$AA?$AA@ 100b016c     libcpmt:winapinls.obj
 0002:00028178       ??_C@_1M@BIKNHHPF@?$AAi?$AAs?$AA?9?$AAi?$AAs?$AA?$AA@ 100b0178     libcpmt:winapinls.obj
 0002:00028184       ??_C@_1M@NMPCJPHE@?$AAi?$AAt?$AA?9?$AAc?$AAh?$AA?$AA@ 100b0184     libcpmt:winapinls.obj
 0002:00028190       ??_C@_1M@GHKGFEDF@?$AAi?$AAt?$AA?9?$AAi?$AAt?$AA?$AA@ 100b0190     libcpmt:winapinls.obj
 0002:0002819c       ??_C@_1M@NIEJCJJA@?$AAj?$AAa?$AA?9?$AAj?$AAp?$AA?$AA@ 100b019c     libcpmt:winapinls.obj
 0002:000281a8       ??_C@_1M@JILFNBIM@?$AAk?$AAa?$AA?9?$AAg?$AAe?$AA?$AA@ 100b01a8     libcpmt:winapinls.obj
 0002:000281b4       ??_C@_1M@PACPMGPH@?$AAk?$AAk?$AA?9?$AAk?$AAz?$AA?$AA@ 100b01b4     libcpmt:winapinls.obj
 0002:000281c0       ??_C@_1M@IELFGMHA@?$AAk?$AAn?$AA?9?$AAi?$AAn?$AA?$AA@ 100b01c0     libcpmt:winapinls.obj
 0002:000281cc       ??_C@_1M@DMHAEOGC@?$AAk?$AAo?$AA?9?$AAk?$AAr?$AA?$AA@ 100b01cc     libcpmt:winapinls.obj
 0002:000281d8       ??_C@_1O@IBBJHCH@?$AAk?$AAo?$AAk?$AA?9?$AAi?$AAn?$AA?$AA@ 100b01d8     libcpmt:winapinls.obj
 0002:000281e8       ??_C@_1M@HBAHBIGA@?$AAk?$AAy?$AA?9?$AAk?$AAg?$AA?$AA@ 100b01e8     libcpmt:winapinls.obj
 0002:000281f4       ??_C@_1M@KPMILCJG@?$AAl?$AAt?$AA?9?$AAl?$AAt?$AA?$AA@ 100b01f4     libcpmt:winapinls.obj
 0002:00028200       ??_C@_1M@BDEKKCA@?$AAl?$AAv?$AA?9?$AAl?$AAv?$AA?$AA@ 100b0200     libcpmt:winapinls.obj
 0002:0002820c       ??_C@_1M@ELCKCCJJ@?$AAm?$AAi?$AA?9?$AAn?$AAz?$AA?$AA@ 100b020c     libcpmt:winapinls.obj
 0002:00028218       ??_C@_1M@CBOOLAPA@?$AAm?$AAk?$AA?9?$AAm?$AAk?$AA?$AA@ 100b0218     libcpmt:winapinls.obj
 0002:00028224       ??_C@_1M@GPHNBJKN@?$AAm?$AAl?$AA?9?$AAi?$AAn?$AA?$AA@ 100b0224     libcpmt:winapinls.obj
 0002:00028230       ??_C@_1M@PABJILIG@?$AAm?$AAn?$AA?9?$AAm?$AAn?$AA?$AA@ 100b0230     libcpmt:winapinls.obj
 0002:0002823c       ??_C@_1M@FGBKKIPG@?$AAm?$AAr?$AA?9?$AAi?$AAn?$AA?$AA@ 100b023c     libcpmt:winapinls.obj
 0002:00028248       ??_C@_1M@NDBPDDAL@?$AAm?$AAs?$AA?9?$AAb?$AAn?$AA?$AA@ 100b0248     libcpmt:winapinls.obj
 0002:00028254       ??_C@_1M@OPIHOOPI@?$AAm?$AAs?$AA?9?$AAm?$AAy?$AA?$AA@ 100b0254     libcpmt:winapinls.obj
 0002:00028260       ??_C@_1M@PPDBCNFM@?$AAm?$AAt?$AA?9?$AAm?$AAt?$AA?$AA@ 100b0260     libcpmt:winapinls.obj
 0002:0002826c       ??_C@_1M@KDJDKMDD@?$AAn?$AAb?$AA?9?$AAn?$AAo?$AA?$AA@ 100b026c     libcpmt:winapinls.obj
 0002:00028278       ??_C@_1M@KFCFLMJP@?$AAn?$AAl?$AA?9?$AAb?$AAe?$AA?$AA@ 100b0278     libcpmt:winapinls.obj
 0002:00028284       ??_C@_1M@KPOPDDGO@?$AAn?$AAl?$AA?9?$AAn?$AAl?$AA?$AA@ 100b0284     libcpmt:winapinls.obj
 0002:00028290       ??_C@_1M@LJKPEMLN@?$AAn?$AAn?$AA?9?$AAn?$AAo?$AA?$AA@ 100b0290     libcpmt:winapinls.obj
 0002:0002829c       ??_C@_1M@BDGHHBFL@?$AAn?$AAs?$AA?9?$AAz?$AAa?$AA?$AA@ 100b029c     libcpmt:winapinls.obj
 0002:000282a8       ??_C@_1M@IDEHOAP@?$AAp?$AAa?$AA?9?$AAi?$AAn?$AA?$AA@ 100b02a8     libcpmt:winapinls.obj
 0002:000282b4       ??_C@_1M@HDBKGOGH@?$AAp?$AAl?$AA?9?$AAp?$AAl?$AA?$AA@ 100b02b4     libcpmt:winapinls.obj
 0002:000282c0       ??_C@_1M@LJLLCMEH@?$AAp?$AAt?$AA?9?$AAb?$AAr?$AA?$AA@ 100b02c0     libcpmt:winapinls.obj
 0002:000282cc       ??_C@_1M@NCMONAAL@?$AAp?$AAt?$AA?9?$AAp?$AAt?$AA?$AA@ 100b02cc     libcpmt:winapinls.obj
 0002:000282d8       ??_C@_1O@EAKMAJDN@?$AAq?$AAu?$AAz?$AA?9?$AAb?$AAo?$AA?$AA@ 100b02d8     libcpmt:winapinls.obj
 0002:000282e8       ??_C@_1O@BHHPIGDN@?$AAq?$AAu?$AAz?$AA?9?$AAe?$AAc?$AA?$AA@ 100b02e8     libcpmt:winapinls.obj
 0002:000282f8       ??_C@_1O@GBAPEKMJ@?$AAq?$AAu?$AAz?$AA?9?$AAp?$AAe?$AA?$AA@ 100b02f8     libcpmt:winapinls.obj
 0002:00028308       ??_C@_1M@CLGLEFBO@?$AAr?$AAo?$AA?9?$AAr?$AAo?$AA?$AA@ 100b0308     libcpmt:winapinls.obj
 0002:00028314       ??_C@_1M@CEEDODME@?$AAr?$AAu?$AA?9?$AAr?$AAu?$AA?$AA@ 100b0314     libcpmt:winapinls.obj
 0002:00028320       ??_C@_1M@HPKKKMPP@?$AAs?$AAa?$AA?9?$AAi?$AAn?$AA?$AA@ 100b0320     libcpmt:winapinls.obj
 0002:0002832c       ??_C@_1M@BKMAIGOJ@?$AAs?$AAe?$AA?9?$AAf?$AAi?$AA?$AA@ 100b032c     libcpmt:winapinls.obj
 0002:00028338       ??_C@_1M@NDPIFLFI@?$AAs?$AAe?$AA?9?$AAn?$AAo?$AA?$AA@ 100b0338     libcpmt:winapinls.obj
 0002:00028344       ??_C@_1M@DANKKHJ@?$AAs?$AAe?$AA?9?$AAs?$AAe?$AA?$AA@ 100b0344     libcpmt:winapinls.obj
 0002:00028350       ??_C@_1M@PNBLONPJ@?$AAs?$AAk?$AA?9?$AAs?$AAk?$AA?$AA@ 100b0350     libcpmt:winapinls.obj
 0002:0002835c       ??_C@_1M@LFMODOAL@?$AAs?$AAl?$AA?9?$AAs?$AAi?$AA?$AA@ 100b035c     libcpmt:winapinls.obj
 0002:00028368       ??_C@_1O@DFKOMPG@?$AAs?$AAm?$AAa?$AA?9?$AAn?$AAo?$AA?$AA@ 100b0368     libcpmt:winapinls.obj
 0002:00028378       ??_C@_1O@NDKPBNNH@?$AAs?$AAm?$AAa?$AA?9?$AAs?$AAe?$AA?$AA@ 100b0378     libcpmt:winapinls.obj
 0002:00028388       ??_C@_1O@PLLKBHAB@?$AAs?$AAm?$AAj?$AA?9?$AAn?$AAo?$AA?$AA@ 100b0388     libcpmt:winapinls.obj
 0002:00028398       ??_C@_1O@CLEPOGCA@?$AAs?$AAm?$AAj?$AA?9?$AAs?$AAe?$AA?$AA@ 100b0398     libcpmt:winapinls.obj
 0002:000283a8       ??_C@_1O@DLGJGKMK@?$AAs?$AAm?$AAn?$AA?9?$AAf?$AAi?$AA?$AA@ 100b03a8     libcpmt:winapinls.obj
 0002:000283b8       ??_C@_1O@OJDJGAJC@?$AAs?$AAm?$AAs?$AA?9?$AAf?$AAi?$AA?$AA@ 100b03b8     libcpmt:winapinls.obj
 0002:000283c8       ??_C@_1M@BOFOGHPB@?$AAs?$AAq?$AA?9?$AAa?$AAl?$AA?$AA@ 100b03c8     libcpmt:winapinls.obj
 0002:000283d4       ??_C@_1BG@LJBBIPGB@?$AAs?$AAr?$AA?9?$AAb?$AAa?$AA?9?$AAc?$AAy?$AAr?$AAl?$AA?$AA@ 100b03d4     libcpmt:winapinls.obj
 0002:000283ec       ??_C@_1BG@JLBENFOE@?$AAs?$AAr?$AA?9?$AAb?$AAa?$AA?9?$AAl?$AAa?$AAt?$AAn?$AA?$AA@ 100b03ec     libcpmt:winapinls.obj
 0002:00028404       ??_C@_1BG@KODPNHE@?$AAs?$AAr?$AA?9?$AAs?$AAp?$AA?9?$AAc?$AAy?$AAr?$AAl?$AA?$AA@ 100b0404     libcpmt:winapinls.obj
 0002:0002841c       ??_C@_1BG@CIOGKHPB@?$AAs?$AAr?$AA?9?$AAs?$AAp?$AA?9?$AAl?$AAa?$AAt?$AAn?$AA?$AA@ 100b041c     libcpmt:winapinls.obj
 0002:00028434       ??_C@_1M@NGFJLMAC@?$AAs?$AAv?$AA?9?$AAf?$AAi?$AA?$AA@ 100b0434     libcpmt:winapinls.obj
 0002:00028440       ??_C@_1M@MPJEJAJC@?$AAs?$AAv?$AA?9?$AAs?$AAe?$AA?$AA@ 100b0440     libcpmt:winapinls.obj
 0002:0002844c       ??_C@_1M@MPNDHLFK@?$AAs?$AAw?$AA?9?$AAk?$AAe?$AA?$AA@ 100b044c     libcpmt:winapinls.obj
 0002:00028458       ??_C@_1O@KOHBJJI@?$AAs?$AAy?$AAr?$AA?9?$AAs?$AAy?$AA?$AA@ 100b0458     libcpmt:winapinls.obj
 0002:00028468       ??_C@_1M@LDCEFHA@?$AAt?$AAa?$AA?9?$AAi?$AAn?$AA?$AA@ 100b0468     libcpmt:winapinls.obj
 0002:00028474       ??_C@_1M@CNJOFAK@?$AAt?$AAe?$AA?9?$AAi?$AAn?$AA?$AA@ 100b0474     libcpmt:winapinls.obj
 0002:00028480       ??_C@_1M@GNAECACD@?$AAt?$AAh?$AA?9?$AAt?$AAh?$AA?$AA@ 100b0480     libcpmt:winapinls.obj
 0002:0002848c       ??_C@_1M@CHBIHOJO@?$AAt?$AAn?$AA?9?$AAz?$AAa?$AA?$AA@ 100b048c     libcpmt:winapinls.obj
 0002:00028498       ??_C@_1M@GCCMIGPJ@?$AAt?$AAr?$AA?9?$AAt?$AAr?$AA?$AA@ 100b0498     libcpmt:winapinls.obj
 0002:000284a4       ??_C@_1M@CELMCNBK@?$AAt?$AAt?$AA?9?$AAr?$AAu?$AA?$AA@ 100b04a4     libcpmt:winapinls.obj
 0002:000284b0       ??_C@_1M@KLMCELGA@?$AAu?$AAk?$AA?9?$AAu?$AAa?$AA?$AA@ 100b04b0     libcpmt:winapinls.obj
 0002:000284bc       ??_C@_1M@EPAJJAJF@?$AAu?$AAr?$AA?9?$AAp?$AAk?$AA?$AA@ 100b04bc     libcpmt:winapinls.obj
 0002:000284c8       ??_C@_1BG@GEGPMCDJ@?$AAu?$AAz?$AA?9?$AAu?$AAz?$AA?9?$AAc?$AAy?$AAr?$AAl?$AA?$AA@ 100b04c8     libcpmt:winapinls.obj
 0002:000284e0       ??_C@_1BG@EGGKJILM@?$AAu?$AAz?$AA?9?$AAu?$AAz?$AA?9?$AAl?$AAa?$AAt?$AAn?$AA?$AA@ 100b04e0     libcpmt:winapinls.obj
 0002:000284f8       ??_C@_1M@GFOCLFF@?$AAv?$AAi?$AA?9?$AAv?$AAn?$AA?$AA@ 100b04f8     libcpmt:winapinls.obj
 0002:00028504       ??_C@_1M@CPAMEDFI@?$AAx?$AAh?$AA?9?$AAz?$AAa?$AA?$AA@ 100b0504     libcpmt:winapinls.obj
 0002:00028510       ??_C@_1O@EBKIFIGN@?$AAz?$AAh?$AA?9?$AAc?$AAh?$AAs?$AA?$AA@ 100b0510     libcpmt:winapinls.obj
 0002:00028520       ??_C@_1O@NMHPGANE@?$AAz?$AAh?$AA?9?$AAc?$AAh?$AAt?$AA?$AA@ 100b0520     libcpmt:winapinls.obj
 0002:00028530       ??_C@_1M@LPINJOMC@?$AAz?$AAh?$AA?9?$AAc?$AAn?$AA?$AA@ 100b0530     libcpmt:winapinls.obj
 0002:0002853c       ??_C@_1M@OCJEJODD@?$AAz?$AAh?$AA?9?$AAh?$AAk?$AA?$AA@ 100b053c     libcpmt:winapinls.obj
 0002:00028548       ??_C@_1M@DNDLJINH@?$AAz?$AAh?$AA?9?$AAm?$AAo?$AA?$AA@ 100b0548     libcpmt:winapinls.obj
 0002:00028554       ??_C@_1M@MBFDNDND@?$AAz?$AAh?$AA?9?$AAs?$AAg?$AA?$AA@ 100b0554     libcpmt:winapinls.obj
 0002:00028560       ??_C@_1M@IMEPLEPE@?$AAz?$AAh?$AA?9?$AAt?$AAw?$AA?$AA@ 100b0560     libcpmt:winapinls.obj
 0002:0002856c       ??_C@_1M@BBGHNHJP@?$AAz?$AAu?$AA?9?$AAz?$AAa?$AA?$AA@ 100b056c     libcpmt:winapinls.obj
 0002:00028580       __pDefaultRawDllMain       100b0580     LIBCMT:dll_dllmain.obj
 0002:00028580       __pRawDllMain              100b0580     LIBCMT:dll_dllmain.obj
 0002:00028588       ??_7type_info@@6B@         100b0588     LIBCMT:std_type_info_static.obj
 0002:00028590       ??_7bad_array_new_length@std@@6B@ 100b0590     LIBCMT:throw_bad_alloc.obj
 0002:00028598       ??_C@_0BF@KINCDENJ@bad?5array?5new?5length?$AA@ 100b0598     LIBCMT:throw_bad_alloc.obj
 0002:000285b0       ??_7_com_error@@6B@        100b05b0     comsuppw:comraise.obj
 0002:000285b4       _CLSID_WbemLocator         100b05b4     wbemuuid:wbemcli_i.obj
 0002:000285c4       _IID_IWbemLocator          100b05c4     wbemuuid:wbemcli_i.obj
 0002:000285d4       __pDestructExceptionObject 100b05d4     libvcruntime:frame.obj
 0002:000285dc       ??_7bad_exception@std@@6B@ 100b05dc     libvcruntime:frame.obj
 0002:000285e4       ??_C@_0O@DPKOEFFH@bad?5exception?$AA@ 100b05e4     libvcruntime:frame.obj
 0002:00028624       ??_C@_1BC@DNHGCMLG@?$AAa?$AAd?$AAv?$AAa?$AAp?$AAi?$AA3?$AA2?$AA?$AA@ 100b0624     libvcruntime:winapi_downlevel.obj
 0002:00028638       ??_C@_1DM@KHCHBNEB@?$AAa?$AAp?$AAi?$AA?9?$AAm?$AAs?$AA?9?$AAw?$AAi?$AAn?$AA?9?$AAc?$AAo?$AAr?$AAe?$AA?9?$AAf?$AAi?$AAb?$AAe?$AAr?$AAs?$AA?9?$AAl?$AA1?$AA?9?$AA1?$AA?9?$AA1?$AA?$AA@ 100b0638     libvcruntime:winapi_downlevel.obj
 0002:00028674       ??_C@_1DK@LPPGFMPP@?$AAa?$AAp?$AAi?$AA?9?$AAm?$AAs?$AA?9?$AAw?$AAi?$AAn?$AA?9?$AAc?$AAo?$AAr?$AAe?$AA?9?$AAs?$AAy?$AAn?$AAc?$AAh?$AA?9?$AAl?$AA1?$AA?9?$AA2?$AA?9?$AA0?$AA?$AA@ 100b0674     libvcruntime:winapi_downlevel.obj
 0002:000286b0       ??_C@_1BC@GDMECMAK@?$AAk?$AAe?$AAr?$AAn?$AAe?$AAl?$AA3?$AA2?$AA?$AA@ 100b06b0     libvcruntime:winapi_downlevel.obj
 0002:00028880       ??_C@_08EHJDFFNH@__based?$CI?$AA@ 100b0880     libvcruntime:undname.obj
 0002:0002888c       ??_C@_07KOLFKCDI@__cdecl?$AA@ 100b088c     libvcruntime:undname.obj
 0002:00028894       ??_C@_08GHMPAG@__pascal?$AA@ 100b0894     libvcruntime:undname.obj
 0002:000288a0       ??_C@_09IFJBGAPI@__stdcall?$AA@ 100b08a0     libvcruntime:undname.obj
 0002:000288ac       ??_C@_0L@NPHFGOKO@__thiscall?$AA@ 100b08ac     libvcruntime:undname.obj
 0002:000288b8       ??_C@_0L@JMKHOMEK@__fastcall?$AA@ 100b08b8     libvcruntime:undname.obj
 0002:000288c4       ??_C@_0N@BCKKPABJ@__vectorcall?$AA@ 100b08c4     libvcruntime:undname.obj
 0002:000288d4       ??_C@_09HIJEGCPM@__clrcall?$AA@ 100b08d4     libvcruntime:undname.obj
 0002:000288e0       ??_C@_06GHPCKEAG@__eabi?$AA@ 100b08e0     libvcruntime:undname.obj
 0002:000288e8       ??_C@_07JOMMBBKO@__ptr64?$AA@ 100b08e8     libvcruntime:undname.obj
 0002:000288f0       ??_C@_0L@PILCLIHE@__restrict?$AA@ 100b08f0     libvcruntime:undname.obj
 0002:000288fc       ??_C@_0M@GFIIJFMG@__unaligned?$AA@ 100b08fc     libvcruntime:undname.obj
 0002:00028908       ??_C@_09DHDLOLLB@restrict?$CI?$AA@ 100b0908     libvcruntime:undname.obj
 0002:00028914       ??_C@_04NIHEBCM@?5new?$AA@ 100b0914     libvcruntime:undname.obj
 0002:0002891c       ??_C@_07FPCDHGMM@?5delete?$AA@ 100b091c     libvcruntime:undname.obj
 0002:00028924       ??_C@_02GPIOPFAK@?$DO?$DO?$AA@ 100b0924     libvcruntime:undname.obj
 0002:00028928       ??_C@_02FODMEDOG@?$DM?$DM?$AA@ 100b0928     libvcruntime:undname.obj
 0002:0002892c       ??_C@_01DCLJPIOD@?$CB?$AA@ 100b092c     libvcruntime:undname.obj
 0002:00028930       ??_C@_02EGOFBIJA@?$DN?$DN?$AA@ 100b0930     libvcruntime:undname.obj
 0002:00028934       ??_C@_02FDNJECIE@?$CB?$DN?$AA@ 100b0934     libvcruntime:undname.obj
 0002:00028938       ??_C@_02GPECMEKF@?$FL?$FN?$AA@ 100b0938     libvcruntime:undname.obj
 0002:0002893c       ??_C@_08LHJFAFGD@operator?$AA@ 100b093c     libvcruntime:undname.obj
 0002:00028948       ??_C@_02HBOOOICD@?9?$DO?$AA@ 100b0948     libvcruntime:undname.obj
 0002:0002894c       ??_C@_02ECNGHCIF@?$CL?$CL?$AA@ 100b094c     libvcruntime:undname.obj
 0002:00028950       ??_C@_01HNPIGOCE@?$CG?$AA@ 100b0950     libvcruntime:undname.obj
 0002:00028954       ??_C@_03MNHNFDLC@?9?$DO?$CK?$AA@ 100b0954     libvcruntime:undname.obj
 0002:00028958       ??_C@_01FGNFDNOH@?$CF?$AA@ 100b0958     libvcruntime:undname.obj
 0002:0002895c       ??_C@_01MNNFJEPP@?$DM?$AA@ 100b095c     libvcruntime:undname.obj
 0002:00028960       ??_C@_02EHCHHCKH@?$DM?$DN?$AA@ 100b0960     libvcruntime:undname.obj
 0002:00028964       ??_C@_01PPODPGHN@?$DO?$AA@ 100b0964     libvcruntime:undname.obj
 0002:00028968       ??_C@_02EEKDKGMJ@?$DO?$DN?$AA@ 100b0968     libvcruntime:undname.obj
 0002:0002896c       ??_C@_02HCKGKOFO@?$CI?$CJ?$AA@ 100b096c     libvcruntime:undname.obj
 0002:00028970       ??_C@_01PJKLJHI@?$HO?$AA@  100b0970     libvcruntime:undname.obj
 0002:00028974       ??_C@_01JKBOJNNK@?$FO?$AA@ 100b0974     libvcruntime:undname.obj
 0002:00028978       ??_C@_01DNKMNLPK@?$HM?$AA@ 100b0978     libvcruntime:undname.obj
 0002:0002897c       ??_C@_02PPKAJPJL@?$CG?$CG?$AA@ 100b097c     libvcruntime:undname.obj
 0002:00028980       ??_C@_02NONPIBCD@?$HM?$HM?$AA@ 100b0980     libvcruntime:undname.obj
 0002:00028984       ??_C@_02FPIMKNGF@?$CK?$DN?$AA@ 100b0984     libvcruntime:undname.obj
 0002:00028988       ??_C@_02FOEOMHFC@?$CL?$DN?$AA@ 100b0988     libvcruntime:undname.obj
 0002:0002898c       ??_C@_02FKMDLLOA@?9?$DN?$AA@ 100b098c     libvcruntime:undname.obj
 0002:00028990       ??_C@_02FJEHGPIO@?1?$DN?$AA@ 100b0990     libvcruntime:undname.obj
 0002:00028994       ??_C@_02FENAOKFI@?$CF?$DN?$AA@ 100b0994     libvcruntime:undname.obj
 0002:00028998       ??_C@_03IKFCCPFF@?$DO?$DO?$DN?$AA@ 100b0998     libvcruntime:undname.obj
 0002:0002899c       ??_C@_03CDNPDDLA@?$DM?$DM?$DN?$AA@ 100b099c     libvcruntime:undname.obj
 0002:000289a0       ??_C@_02FGJGFEAB@?$CG?$DN?$AA@ 100b09a0     libvcruntime:undname.obj
 0002:000289a4       ??_C@_02DHLNPPGH@?$HM?$DN?$AA@ 100b09a4     libvcruntime:undname.obj
 0002:000289a8       ??_C@_02MHEGNOJ@?$FO?$DN?$AA@ 100b09a8     libvcruntime:undname.obj
 0002:000289ac       ??_C@_09IFPLHPGF@?$GAvftable?8?$AA@ 100b09ac     libvcruntime:undname.obj
 0002:000289b8       ??_C@_09BLBHBJP@?$GAvbtable?8?$AA@ 100b09b8     libvcruntime:undname.obj
 0002:000289c4       ??_C@_07FEEIOKP@?$GAvcall?8?$AA@ 100b09c4     libvcruntime:undname.obj
 0002:000289cc       ??_C@_08LLFFHHDJ@?$GAtypeof?8?$AA@ 100b09cc     libvcruntime:undname.obj
 0002:000289d8       ??_C@_0BF@KDPPACIK@?$GAlocal?5static?5guard?8?$AA@ 100b09d8     libvcruntime:undname.obj
 0002:000289f0       ??_C@_08OBABFOLI@?$GAstring?8?$AA@ 100b09f0     libvcruntime:undname.obj
 0002:000289fc       ??_C@_0BD@JDLKDPAB@?$GAvbase?5destructor?8?$AA@ 100b09fc     libvcruntime:undname.obj
 0002:00028a10       ??_C@_0BN@DEGPLNFK@?$GAvector?5deleting?5destructor?8?$AA@ 100b0a10     libvcruntime:undname.obj
 0002:00028a30       ??_C@_0BO@OBMKPJIG@?$GAdefault?5constructor?5closure?8?$AA@ 100b0a30     libvcruntime:undname.obj
 0002:00028a50       ??_C@_0BN@IMDCHIKM@?$GAscalar?5deleting?5destructor?8?$AA@ 100b0a50     libvcruntime:undname.obj
 0002:00028a70       ??_C@_0BO@PFGOCPJJ@?$GAvector?5constructor?5iterator?8?$AA@ 100b0a70     libvcruntime:undname.obj
 0002:00028a90       ??_C@_0BN@LFPFMEDL@?$GAvector?5destructor?5iterator?8?$AA@ 100b0a90     libvcruntime:undname.obj
 0002:00028ab0       ??_C@_0CE@IKBNEHA@?$GAvector?5vbase?5constructor?5iterat@ 100b0ab0     libvcruntime:undname.obj
 0002:00028ad4       ??_C@_0BL@NILFHHPC@?$GAvirtual?5displacement?5map?8?$AA@ 100b0ad4     libvcruntime:undname.obj
 0002:00028af0       ??_C@_0CB@JONCMFFK@?$GAeh?5vector?5constructor?5iterator?8@ 100b0af0     libvcruntime:undname.obj
 0002:00028b14       ??_C@_0CA@GCEOPDGL@?$GAeh?5vector?5destructor?5iterator?8?$AA@ 100b0b14     libvcruntime:undname.obj
 0002:00028b34       ??_C@_0CH@OOJPLCPH@?$GAeh?5vector?5vbase?5constructor?5ite@ 100b0b34     libvcruntime:undname.obj
 0002:00028b5c       ??_C@_0BL@LLKPOHJI@?$GAcopy?5constructor?5closure?8?$AA@ 100b0b5c     libvcruntime:undname.obj
 0002:00028b78       ??_C@_0BA@KBCDOMBN@?$GAudt?5returning?8?$AA@ 100b0b78     libvcruntime:undname.obj
 0002:00028b88       ??_C@_03KLGMFNMG@?$GAEH?$AA@ 100b0b88     libvcruntime:undname.obj
 0002:00028b8c       ??_C@_05KHLCHHI@?$GARTTI?$AA@ 100b0b8c     libvcruntime:undname.obj
 0002:00028b94       ??_C@_0BA@KKLDJDLB@?$GAlocal?5vftable?8?$AA@ 100b0b94     libvcruntime:undname.obj
 0002:00028ba4       ??_C@_0CE@IIHCMGGL@?$GAlocal?5vftable?5constructor?5closu@ 100b0ba4     libvcruntime:undname.obj
 0002:00028bc8       ??_C@_06FHBGPFGH@?5new?$FL?$FN?$AA@ 100b0bc8     libvcruntime:undname.obj
 0002:00028bd0       ??_C@_09LBNFPBCA@?5delete?$FL?$FN?$AA@ 100b0bd0     libvcruntime:undname.obj
 0002:00028bdc       ??_C@_0P@HJKNJFNN@?$GAomni?5callsig?8?$AA@ 100b0bdc     libvcruntime:undname.obj
 0002:00028bec       ??_C@_0BL@CNOONJFP@?$GAplacement?5delete?5closure?8?$AA@ 100b0bec     libvcruntime:undname.obj
 0002:00028c08       ??_C@_0BN@CKNJLHMB@?$GAplacement?5delete?$FL?$FN?5closure?8?$AA@ 100b0c08     libvcruntime:undname.obj
 0002:00028c28       ??_C@_0CG@CFDHKGGD@?$GAmanaged?5vector?5constructor?5iter@ 100b0c28     libvcruntime:undname.obj
 0002:00028c50       ??_C@_0CF@IMGKMJNO@?$GAmanaged?5vector?5destructor?5itera@ 100b0c50     libvcruntime:undname.obj
 0002:00028c78       ??_C@_0CG@HLDDJMAG@?$GAeh?5vector?5copy?5constructor?5iter@ 100b0c78     libvcruntime:undname.obj
 0002:00028ca0       ??_C@_0CM@FCBBDIGB@?$GAeh?5vector?5vbase?5copy?5constructo@ 100b0ca0     libvcruntime:undname.obj
 0002:00028ccc       ??_C@_0BL@CLIPGLGB@?$GAdynamic?5initializer?5for?5?8?$AA@ 100b0ccc     libvcruntime:undname.obj
 0002:00028ce8       ??_C@_0CB@PDBIFEP@?$GAdynamic?5atexit?5destructor?5for?5?8@ 100b0ce8     libvcruntime:undname.obj
 0002:00028d0c       ??_C@_0CD@CGAJBKEJ@?$GAvector?5copy?5constructor?5iterato@ 100b0d0c     libvcruntime:undname.obj
 0002:00028d30       ??_C@_0CJ@GJELGAMM@?$GAvector?5vbase?5copy?5constructor?5i@ 100b0d30     libvcruntime:undname.obj
 0002:00028d5c       ??_C@_0CL@FGIJHLCE@?$GAmanaged?5vector?5copy?5constructor@ 100b0d5c     libvcruntime:undname.obj
 0002:00028d88       ??_C@_0BM@PMGGMLDN@?$GAlocal?5static?5thread?5guard?8?$AA@ 100b0d88     libvcruntime:undname.obj
 0002:00028da4       ??_C@_0N@BDNMDMOL@operator?5?$CC?$CC?5?$AA@ 100b0da4     libvcruntime:undname.obj
 0002:00028db4       ??_C@_0BC@DAFEJGAK@?5Type?5Descriptor?8?$AA@ 100b0db4     libvcruntime:undname.obj
 0002:00028dc8       ??_C@_0BM@LDKODKLH@?5Base?5Class?5Descriptor?5at?5?$CI?$AA@ 100b0dc8     libvcruntime:undname.obj
 0002:00028de4       ??_C@_0BD@LGICGFMM@?5Base?5Class?5Array?8?$AA@ 100b0de4     libvcruntime:undname.obj
 0002:00028df8       ??_C@_0BN@MECKDCOJ@?5Class?5Hierarchy?5Descriptor?8?$AA@ 100b0df8     libvcruntime:undname.obj
 0002:00028e18       ??_C@_0BK@CFCOFLF@?5Complete?5Object?5Locator?8?$AA@ 100b0e18     libvcruntime:undname.obj
 0002:00028e38       _standard_lookup_table     100b0e38     libucrt:output.obj
 0002:00028e94       ??_C@_1O@CEDCILHN@?$AA?$CI?$AAn?$AAu?$AAl?$AAl?$AA?$CJ?$AA?$AA@ 100b0e94     libucrt:output.obj
 0002:00029010       ??_C@_1BI@BGOHAHKC@?$AAm?$AAs?$AAc?$AAo?$AAr?$AAe?$AAe?$AA?4?$AAd?$AAl?$AAl?$AA?$AA@ 100b1010     libucrt:exit.obj
 0002:00029028       ??_C@_0P@MIGLKIOC@CorExitProcess?$AA@ 100b1028     libucrt:exit.obj
 0002:00029038       ?large_power_data@?1??multiply_by_power_of_ten@__crt_strtox@@YA_NAAUbig_integer@2@I@Z@4QBIB 100b1038     libucrt:input.obj
 0002:00029940       ?large_power_indices@?1??multiply_by_power_of_ten@__crt_strtox@@YA_NAAUbig_integer@2@I@Z@4QBUunpack_index@?1??12@YA_N0I@Z@B 100b1940     libucrt:input.obj
 0002:000299d8       ?small_powers_of_ten@?6??multiply_by_power_of_ten@__crt_strtox@@YA_NAAUbig_integer@2@I@Z@4QBIB 100b19d8     libucrt:input.obj
 0002:00029a00       ??_C@_1GE@DPGDJKLM@?$AAm?$AAi?$AAn?$AAk?$AAe?$AAr?$AAn?$AAe?$AAl?$AA?2?$AAc?$AAr?$AAt?$AAs?$AA?2?$AAu?$AAc?$AAr?$AAt?$AA?2?$AAi?$AAn?$AAc?$AA?2?$AAc?$AAo?$AAr?$AAe?$AAc?$AAr?$AAt?$AA_@ 100b1a00     libucrt:input.obj
 0002:00029a68       ??_C@_1FM@FELNCOBF@?$AA_?$AA_?$AAc?$AAr?$AAt?$AA_?$AAs?$AAt?$AAr?$AAt?$AAo?$AAx?$AA?3?$AA?3?$AAf?$AAl?$AAo?$AAa?$AAt?$AAi?$AAn?$AAg?$AA_?$AAp?$AAo?$AAi?$AAn?$AAt?$AA_?$AAv?$AAa?$AAl@ 100b1a68     libucrt:input.obj
 0002:00029ac4       ??_C@_1BG@GEMHBGAF@?$AA_?$AAi?$AAs?$AA_?$AAd?$AAo?$AAu?$AAb?$AAl?$AAe?$AA?$AA@ 100b1ac4     libucrt:input.obj
 0002:00029ae0       ??_C@_1FK@JOJELFFO@?$AA_?$AA_?$AAc?$AAr?$AAt?$AA_?$AAs?$AAt?$AAr?$AAt?$AAo?$AAx?$AA?3?$AA?3?$AAf?$AAl?$AAo?$AAa?$AAt?$AAi?$AAn?$AAg?$AA_?$AAp?$AAo?$AAi?$AAn?$AAt?$AA_?$AAv?$AAa?$AAl@ 100b1ae0     libucrt:input.obj
 0002:00029b3c       ??_C@_1BI@BANMPGJI@?$AA?$CB?$AA_?$AAi?$AAs?$AA_?$AAd?$AAo?$AAu?$AAb?$AAl?$AAe?$AA?$AA@ 100b1b3c     libucrt:input.obj
 0002:00029b58       ?constraints@?1??is_length_valid@__crt_stdio_input@@YA_NW4conversion_mode@2@W4length_modifier@2@@Z@4QAY0M@$$CBEA 100b1b58     libucrt:input.obj
 0002:00029bd0       ?inf_uppercase@?2???$parse_floating_point_possible_infinity@DV?$input_adapter_character_source@V?$string_input_adapter@D@__crt_stdio_input@@@__crt_strtox@@_K@__crt_strtox@@YA?AW4floating_point_parse_result@1@AADAAV?$input_adapter_character_source@V?$string_input_adapter@D@__crt_stdio_input@@@1@_K@Z@4QBDB 100b1bd0     libucrt:input.obj
 0002:00029bd4       ?inf_lowercase@?2???$parse_floating_point_possible_infinity@DV?$input_adapter_character_source@V?$string_input_adapter@D@__crt_stdio_input@@@__crt_strtox@@_K@__crt_strtox@@YA?AW4floating_point_parse_result@1@AADAAV?$input_adapter_character_source@V?$string_input_adapter@D@__crt_stdio_input@@@1@_K@Z@4QBDB 100b1bd4     libucrt:input.obj
 0002:00029bd8       ?inity_uppercase@?5???$parse_floating_point_possible_infinity@DV?$input_adapter_character_source@V?$string_input_adapter@D@__crt_stdio_input@@@__crt_strtox@@_K@__crt_strtox@@YA?AW4floating_point_parse_result@1@AADAAV?$input_adapter_character_source@V?$string_input_adapter@D@__crt_stdio_input@@@1@_K@Z@4QBDB 100b1bd8     libucrt:input.obj
 0002:00029be0       ?inity_lowercase@?5???$parse_floating_point_possible_infinity@DV?$input_adapter_character_source@V?$string_input_adapter@D@__crt_stdio_input@@@__crt_strtox@@_K@__crt_strtox@@YA?AW4floating_point_parse_result@1@AADAAV?$input_adapter_character_source@V?$string_input_adapter@D@__crt_stdio_input@@@1@_K@Z@4QBDB 100b1be0     libucrt:input.obj
 0002:00029be8       ?uppercase@?2???$parse_floating_point_possible_nan@DV?$input_adapter_character_source@V?$string_input_adapter@D@__crt_stdio_input@@@__crt_strtox@@_K@__crt_strtox@@YA?AW4floating_point_parse_result@1@AADAAV?$input_adapter_character_source@V?$string_input_adapter@D@__crt_stdio_input@@@1@_K@Z@4QBDB 100b1be8     libucrt:input.obj
 0002:00029bec       ?lowercase@?2???$parse_floating_point_possible_nan@DV?$input_adapter_character_source@V?$string_input_adapter@D@__crt_stdio_input@@@__crt_strtox@@_K@__crt_strtox@@YA?AW4floating_point_parse_result@1@AADAAV?$input_adapter_character_source@V?$string_input_adapter@D@__crt_stdio_input@@@1@_K@Z@4QBDB 100b1bec     libucrt:input.obj
 0002:00029bf0       ?uppercase@?1???$parse_floating_point_possible_nan_is_snan@DV?$input_adapter_character_source@V?$string_input_adapter@D@__crt_stdio_input@@@__crt_strtox@@@__crt_strtox@@YA_NAADAAV?$input_adapter_character_source@V?$string_input_adapter@D@__crt_stdio_input@@@1@@Z@4QBDB 100b1bf0     libucrt:input.obj
 0002:00029bf8       ?lowercase@?1???$parse_floating_point_possible_nan_is_snan@DV?$input_adapter_character_source@V?$string_input_adapter@D@__crt_stdio_input@@@__crt_strtox@@@__crt_strtox@@YA_NAADAAV?$input_adapter_character_source@V?$string_input_adapter@D@__crt_stdio_input@@@1@@Z@4QBDB 100b1bf8     libucrt:input.obj
 0002:00029c00       ?uppercase@?1???$parse_floating_point_possible_nan_is_ind@DV?$input_adapter_character_source@V?$string_input_adapter@D@__crt_stdio_input@@@__crt_strtox@@@__crt_strtox@@YA_NAADAAV?$input_adapter_character_source@V?$string_input_adapter@D@__crt_stdio_input@@@1@@Z@4QBDB 100b1c00     libucrt:input.obj
 0002:00029c04       ?lowercase@?1???$parse_floating_point_possible_nan_is_ind@DV?$input_adapter_character_source@V?$string_input_adapter@D@__crt_stdio_input@@@__crt_strtox@@@__crt_strtox@@YA_NAADAAV?$input_adapter_character_source@V?$string_input_adapter@D@__crt_stdio_input@@@1@@Z@4QBDB 100b1c04     libucrt:input.obj
 0002:00029f48       __wctype                   100b1f48     libucrt:ctype.obj
 0002:0002a150       ___newctype                100b2150     libucrt:ctype.obj
 0002:0002a450       ___newclmap                100b2450     libucrt:ctype.obj
 0002:0002a5d0       ___newcumap                100b25d0     libucrt:ctype.obj
 0002:0002a754       __half                     100b2754     libucrt:pow.obj
 0002:0002a760       ___acrt_exception_action_table 100b2760     libucrt:exception_filter.obj
 0002:0002a7f0       ___acrt_signal_action_table_count 100b27f0     libucrt:exception_filter.obj
 0002:0002a7f4       ___acrt_signal_action_table_size 100b27f4     libucrt:exception_filter.obj
 0002:0002a7f8       ___acrt_signal_action_first_fpe_index 100b27f8     libucrt:exception_filter.obj
 0002:0002a7fc       ___acrt_signal_action_fpe_count 100b27fc     libucrt:exception_filter.obj
 0002:0002a878       ??_C@_03OEIAHPBN@INF?$AA@  100b2878     libucrt:cvt.obj
 0002:0002a87c       ??_C@_03OJHLLCGB@inf?$AA@  100b287c     libucrt:cvt.obj
 0002:0002a880       ??_C@_03LKNCIKJB@NAN?$AA@  100b2880     libucrt:cvt.obj
 0002:0002a884       ??_C@_03LHCJEHON@nan?$AA@  100b2884     libucrt:cvt.obj
 0002:0002a888       ??_C@_09OFJJIMPC@NAN?$CISNAN?$CJ?$AA@ 100b2888     libucrt:cvt.obj
 0002:0002a894       ??_C@_09IPFBKMDL@nan?$CIsnan?$CJ?$AA@ 100b2894     libucrt:cvt.obj
 0002:0002a8a0       ??_C@_08IKHNHAJ@NAN?$CIIND?$CJ?$AA@ 100b28a0     libucrt:cvt.obj
 0002:0002a8ac       ??_C@_08OFCDMILK@nan?$CIind?$CJ?$AA@ 100b28ac     libucrt:cvt.obj
 0002:0002a8b8       ??_C@_05KLBDPFGC@e?$CL000?$AA@ 100b28b8     libucrt:cvt.obj
 0002:0002a8c0       ___lc_category             100b28c0     libucrt:wsetlocale.obj
 0002:0002a908       ??_C@_1O@GIFLHMA@?$AAL?$AAC?$AA_?$AAA?$AAL?$AAL?$AA?$AA@ 100b2908     libucrt:wsetlocale.obj
 0002:0002a918       ??_C@_1BG@PPOMIBNJ@?$AAL?$AAC?$AA_?$AAC?$AAO?$AAL?$AAL?$AAA?$AAT?$AAE?$AA?$AA@ 100b2918     libucrt:wsetlocale.obj
 0002:0002a930       ??_C@_1BC@FFJGAPJM@?$AAL?$AAC?$AA_?$AAC?$AAT?$AAY?$AAP?$AAE?$AA?$AA@ 100b2930     libucrt:wsetlocale.obj
 0002:0002a944       ??_C@_1BI@PCKFNJFB@?$AAL?$AAC?$AA_?$AAM?$AAO?$AAN?$AAE?$AAT?$AAA?$AAR?$AAY?$AA?$AA@ 100b2944     libucrt:wsetlocale.obj
 0002:0002a95c       ??_C@_1BG@ENIEDKID@?$AAL?$AAC?$AA_?$AAN?$AAU?$AAM?$AAE?$AAR?$AAI?$AAC?$AA?$AA@ 100b295c     libucrt:wsetlocale.obj
 0002:0002a974       ??_C@_1BA@HAAOMIIG@?$AAL?$AAC?$AA_?$AAT?$AAI?$AAM?$AAE?$AA?$AA@ 100b2974     libucrt:wsetlocale.obj
 0002:0002aa08       ??_C@_15NBPDDFIP@?$AA?$DN?$AA?$DL?$AA?$AA@ 100b2a08     libucrt:wsetlocale.obj
 0002:0002aa10       ??_C@_13PJJBFPED@?$AA?$DL?$AA?$AA@ 100b2a10     libucrt:wsetlocale.obj
 0002:0002aa14       ??_C@_13NMPKAAJP@?$AA?$DN?$AA?$AA@ 100b2a14     libucrt:wsetlocale.obj
 0002:0002aa18       ??_C@_13FHBKNHDA@?$AAC?$AA?$AA@ 100b2a18     libucrt:wsetlocale.obj
 0002:0002aa1c       ??_C@_17MBJJLFDM@?$AA_?$AA?4?$AA?0?$AA?$AA@ 100b2a1c     libucrt:wsetlocale.obj
 0002:0002aa24       ??_C@_13ENNFDPBH@?$AA_?$AA?$AA@ 100b2a24     libucrt:wsetlocale.obj
 0002:0002aa28       ??_C@_13JOFGPIOO@?$AA?4?$AA?$AA@ 100b2a28     libucrt:wsetlocale.obj
 0002:0002aa2c       ??_C@_03KOEHGMDN@Sun?$AA@  100b2a2c     libucrt:nlsdata.obj
 0002:0002aa30       ??_C@_03PDAGKDH@Mon?$AA@   100b2a30     libucrt:nlsdata.obj
 0002:0002aa34       ??_C@_03NAGEINEP@Tue?$AA@  100b2a34     libucrt:nlsdata.obj
 0002:0002aa38       ??_C@_03MHOMLAJA@Wed?$AA@  100b2a38     libucrt:nlsdata.obj
 0002:0002aa3c       ??_C@_03IOFIKPDN@Thu?$AA@  100b2a3c     libucrt:nlsdata.obj
 0002:0002aa40       ??_C@_03IDIOELNC@Fri?$AA@  100b2a40     libucrt:nlsdata.obj
 0002:0002aa44       ??_C@_03FEFJNEK@Sat?$AA@   100b2a44     libucrt:nlsdata.obj
 0002:0002aa48       ??_C@_06OOPIFAJ@Sunday?$AA@ 100b2a48     libucrt:nlsdata.obj
 0002:0002aa50       ??_C@_06JLEDEDGH@Monday?$AA@ 100b2a50     libucrt:nlsdata.obj
 0002:0002aa58       ??_C@_07BAAGCFCM@Tuesday?$AA@ 100b2a58     libucrt:nlsdata.obj
 0002:0002aa60       ??_C@_09DLIGFAKA@Wednesday?$AA@ 100b2a60     libucrt:nlsdata.obj
 0002:0002aa6c       ??_C@_08HACCIKIA@Thursday?$AA@ 100b2a6c     libucrt:nlsdata.obj
 0002:0002aa78       ??_C@_06JECMNKMI@Friday?$AA@ 100b2a78     libucrt:nlsdata.obj
 0002:0002aa80       ??_C@_08INBOOONO@Saturday?$AA@ 100b2a80     libucrt:nlsdata.obj
 0002:0002aa8c       ??_C@_07CGJPFGJA@January?$AA@ 100b2a8c     libucrt:nlsdata.obj
 0002:0002aa94       ??_C@_08GNJGEPFN@February?$AA@ 100b2a94     libucrt:nlsdata.obj
 0002:0002aaa0       ??_C@_05HPCKOFNC@March?$AA@ 100b2aa0     libucrt:nlsdata.obj
 0002:0002aaa8       ??_C@_05DMJDNLEJ@April?$AA@ 100b2aa8     libucrt:nlsdata.obj
 0002:0002aab0       ??_C@_04CNLMGBGM@June?$AA@ 100b2ab0     libucrt:nlsdata.obj
 0002:0002aab8       ??_C@_04MIEPOIFP@July?$AA@ 100b2ab8     libucrt:nlsdata.obj
 0002:0002aac0       ??_C@_06LBBHFDDG@August?$AA@ 100b2ac0     libucrt:nlsdata.obj
 0002:0002aac8       ??_C@_09BHHEALKD@September?$AA@ 100b2ac8     libucrt:nlsdata.obj
 0002:0002aad4       ??_C@_07JJNFCEND@October?$AA@ 100b2ad4     libucrt:nlsdata.obj
 0002:0002aadc       ??_C@_08HCHEGEOA@November?$AA@ 100b2adc     libucrt:nlsdata.obj
 0002:0002aae8       ??_C@_08EDHMEBNP@December?$AA@ 100b2ae8     libucrt:nlsdata.obj
 0002:0002aaf4       ??_C@_02DEDBPAFC@AM?$AA@   100b2af4     libucrt:nlsdata.obj
 0002:0002aaf8       ??_C@_02CJNFDJBF@PM?$AA@   100b2af8     libucrt:nlsdata.obj
 0002:0002aafc       ??_C@_08BPBNCDIB@MM?1dd?1yy?$AA@ 100b2afc     libucrt:nlsdata.obj
 0002:0002ab08       ??_C@_0BE@CKGJFCPC@dddd?0?5MMMM?5dd?0?5yyyy?$AA@ 100b2b08     libucrt:nlsdata.obj
 0002:0002ab1c       ??_C@_08JCCMCCIL@HH?3mm?3ss?$AA@ 100b2b1c     libucrt:nlsdata.obj
 0002:0002ab28       ??_C@_17MBGCMIPB@?$AAS?$AAu?$AAn?$AA?$AA@ 100b2b28     libucrt:nlsdata.obj
 0002:0002ab30       ??_C@_17KBOMKBF@?$AAM?$AAo?$AAn?$AA?$AA@ 100b2b30     libucrt:nlsdata.obj
 0002:0002ab38       ??_C@_17BMKGEGOJ@?$AAT?$AAu?$AAe?$AA?$AA@ 100b2b38     libucrt:nlsdata.obj
 0002:0002ab40       ??_C@_17CJEDCEPE@?$AAW?$AAe?$AAd?$AA?$AA@ 100b2b40     libucrt:nlsdata.obj
 0002:0002ab48       ??_C@_17PDPHAADD@?$AAT?$AAh?$AAu?$AA?$AA@ 100b2b48     libucrt:nlsdata.obj
 0002:0002ab50       ??_C@_17HFOLPPLP@?$AAF?$AAr?$AAi?$AA?$AA@ 100b2b50     libucrt:nlsdata.obj
 0002:0002ab58       ??_C@_17GGIBDPIH@?$AAS?$AAa?$AAt?$AA?$AA@ 100b2b58     libucrt:nlsdata.obj
 0002:0002ab60       ??_C@_1O@IHNHDHPB@?$AAS?$AAu?$AAn?$AAd?$AAa?$AAy?$AA?$AA@ 100b2b60     libucrt:nlsdata.obj
 0002:0002ab70       ??_C@_1O@MMNBFLIA@?$AAM?$AAo?$AAn?$AAd?$AAa?$AAy?$AA?$AA@ 100b2b70     libucrt:nlsdata.obj
 0002:0002ab80       ??_C@_1BA@ENFBFFEK@?$AAT?$AAu?$AAe?$AAs?$AAd?$AAa?$AAy?$AA?$AA@ 100b2b80     libucrt:nlsdata.obj
 0002:0002ab90       ??_C@_1BE@EBOGMDOH@?$AAW?$AAe?$AAd?$AAn?$AAe?$AAs?$AAd?$AAa?$AAy?$AA?$AA@ 100b2b90     libucrt:nlsdata.obj
 0002:0002aba4       ??_C@_1BC@HHMNLIHE@?$AAT?$AAh?$AAu?$AAr?$AAs?$AAd?$AAa?$AAy?$AA?$AA@ 100b2ba4     libucrt:nlsdata.obj
 0002:0002abb8       ??_C@_1O@PDICJHAG@?$AAF?$AAr?$AAi?$AAd?$AAa?$AAy?$AA?$AA@ 100b2bb8     libucrt:nlsdata.obj
 0002:0002abc8       ??_C@_1BC@ENMNNPAJ@?$AAS?$AAa?$AAt?$AAu?$AAr?$AAd?$AAa?$AAy?$AA?$AA@ 100b2bc8     libucrt:nlsdata.obj
 0002:0002abdc       ??_C@_17DKNBKCHM@?$AAJ?$AAa?$AAn?$AA?$AA@ 100b2bdc     libucrt:nlsdata.obj
 0002:0002abe4       ??_C@_17LMDJEKJN@?$AAF?$AAe?$AAb?$AA?$AA@ 100b2be4     libucrt:nlsdata.obj
 0002:0002abec       ??_C@_17CKNLEDEC@?$AAM?$AAa?$AAr?$AA?$AA@ 100b2bec     libucrt:nlsdata.obj
 0002:0002abf4       ??_C@_17LFPOIHDD@?$AAA?$AAp?$AAr?$AA?$AA@ 100b2bf4     libucrt:nlsdata.obj
 0002:0002abfc       ??_C@_17PNNKMEED@?$AAM?$AAa?$AAy?$AA?$AA@ 100b2bfc     libucrt:nlsdata.obj
 0002:0002ac04       ??_C@_17KCJGOCPB@?$AAJ?$AAu?$AAn?$AA?$AA@ 100b2c04     libucrt:nlsdata.obj
 0002:0002ac0c       ??_C@_17IJPCKHK@?$AAJ?$AAu?$AAl?$AA?$AA@ 100b2c0c     libucrt:nlsdata.obj
 0002:0002ac14       ??_C@_17ICPELBCN@?$AAA?$AAu?$AAg?$AA?$AA@ 100b2c14     libucrt:nlsdata.obj
 0002:0002ac1c       ??_C@_17HCHCOKMG@?$AAS?$AAe?$AAp?$AA?$AA@ 100b2c1c     libucrt:nlsdata.obj
 0002:0002ac24       ??_C@_17FNLKOI@?$AAO?$AAc?$AAt?$AA?$AA@ 100b2c24     libucrt:nlsdata.obj
 0002:0002ac2c       ??_C@_17BBDMLCIG@?$AAN?$AAo?$AAv?$AA?$AA@ 100b2c2c     libucrt:nlsdata.obj
 0002:0002ac34       ??_C@_17EGKACKIF@?$AAD?$AAe?$AAc?$AA?$AA@ 100b2c34     libucrt:nlsdata.obj
 0002:0002ac3c       ??_C@_1BA@EFMEIEBA@?$AAJ?$AAa?$AAn?$AAu?$AAa?$AAr?$AAy?$AA?$AA@ 100b2c3c     libucrt:nlsdata.obj
 0002:0002ac4c       ??_C@_1BC@JGDDFFAM@?$AAF?$AAe?$AAb?$AAr?$AAu?$AAa?$AAr?$AAy?$AA?$AA@ 100b2c4c     libucrt:nlsdata.obj
 0002:0002ac60       ??_C@_1M@IKEENEDF@?$AAM?$AAa?$AAr?$AAc?$AAh?$AA?$AA@ 100b2c60     libucrt:nlsdata.obj
 0002:0002ac6c       ??_C@_1M@GJNLMHFD@?$AAA?$AAp?$AAr?$AAi?$AAl?$AA?$AA@ 100b2c6c     libucrt:nlsdata.obj
 0002:0002ac78       ??_C@_19EPFLPGAP@?$AAJ?$AAu?$AAn?$AAe?$AA?$AA@ 100b2c78     libucrt:nlsdata.obj
 0002:0002ac84       ??_C@_19BIFMLPCD@?$AAJ?$AAu?$AAl?$AAy?$AA?$AA@ 100b2c84     libucrt:nlsdata.obj
 0002:0002ac90       ??_C@_1O@PAHLKOAC@?$AAA?$AAu?$AAg?$AAu?$AAs?$AAt?$AA?$AA@ 100b2c90     libucrt:nlsdata.obj
 0002:0002aca0       ??_C@_1BE@DKAAMBJL@?$AAS?$AAe?$AAp?$AAt?$AAe?$AAm?$AAb?$AAe?$AAr?$AA?$AA@ 100b2ca0     libucrt:nlsdata.obj
 0002:0002acb4       ??_C@_1BA@EPANDLNG@?$AAO?$AAc?$AAt?$AAo?$AAb?$AAe?$AAr?$AA?$AA@ 100b2cb4     libucrt:nlsdata.obj
 0002:0002acc4       ??_C@_1BC@BGLIFPF@?$AAN?$AAo?$AAv?$AAe?$AAm?$AAb?$AAe?$AAr?$AA?$AA@ 100b2cc4     libucrt:nlsdata.obj
 0002:0002acd8       ??_C@_1BC@FEMKIFH@?$AAD?$AAe?$AAc?$AAe?$AAm?$AAb?$AAe?$AAr?$AA?$AA@ 100b2cd8     libucrt:nlsdata.obj
 0002:0002acec       ??_C@_15ODEHAHHF@?$AAA?$AAM?$AA?$AA@ 100b2cec     libucrt:nlsdata.obj
 0002:0002acf4       ??_C@_15CLMNNGEL@?$AAP?$AAM?$AA?$AA@ 100b2cf4     libucrt:nlsdata.obj
 0002:0002acfc       ??_C@_1BC@IEBCMHCM@?$AAM?$AAM?$AA?1?$AAd?$AAd?$AA?1?$AAy?$AAy?$AA?$AA@ 100b2cfc     libucrt:nlsdata.obj
 0002:0002ad10       ??_C@_1CI@KNAKOEBC@?$AAd?$AAd?$AAd?$AAd?$AA?0?$AA?5?$AAM?$AAM?$AAM?$AAM?$AA?5?$AAd?$AAd?$AA?0?$AA?5?$AAy?$AAy?$AAy?$AAy?$AA?$AA@ 100b2d10     libucrt:nlsdata.obj
 0002:0002ad38       ??_C@_1BC@GDGBMEMK@?$AAH?$AAH?$AA?3?$AAm?$AAm?$AA?3?$AAs?$AAs?$AA?$AA@ 100b2d38     libucrt:nlsdata.obj
 0002:0002ad50       ___lc_time_c               100b2d50     libucrt:nlsdata.obj
 0002:0002af08       ??_C@_1EG@CNNIPFIM@?$AAa?$AAp?$AAi?$AA?9?$AAm?$AAs?$AA?9?$AAw?$AAi?$AAn?$AA?9?$AAa?$AAp?$AAp?$AAm?$AAo?$AAd?$AAe?$AAl?$AA?9?$AAr?$AAu?$AAn?$AAt?$AAi?$AAm?$AAe?$AA?9?$AAl?$AA1?$AA?9?$AA1@ 100b2f08     libucrt:winapi_thunks.obj
 0002:0002af50       ??_C@_1EA@JGEFHKEI@?$AAa?$AAp?$AAi?$AA?9?$AAm?$AAs?$AA?9?$AAw?$AAi?$AAn?$AA?9?$AAc?$AAo?$AAr?$AAe?$AA?9?$AAd?$AAa?$AAt?$AAe?$AAt?$AAi?$AAm?$AAe?$AA?9?$AAl?$AA1?$AA?9?$AA1?$AA?9?$AA1?$AA?$AA@ 100b2f50     libucrt:winapi_thunks.obj
 0002:0002af90       ??_C@_1DI@GCIAAENM@?$AAa?$AAp?$AAi?$AA?9?$AAm?$AAs?$AA?9?$AAw?$AAi?$AAn?$AA?9?$AAc?$AAo?$AAr?$AAe?$AA?9?$AAf?$AAi?$AAl?$AAe?$AA?9?$AAl?$AA2?$AA?9?$AA1?$AA?9?$AA1?$AA?$AA@ 100b2f90     libucrt:winapi_thunks.obj
 0002:0002afc8       ??_C@_1EI@MPIAOHOC@?$AAa?$AAp?$AAi?$AA?9?$AAm?$AAs?$AA?9?$AAw?$AAi?$AAn?$AA?9?$AAc?$AAo?$AAr?$AAe?$AA?9?$AAl?$AAo?$AAc?$AAa?$AAl?$AAi?$AAz?$AAa?$AAt?$AAi?$AAo?$AAn?$AA?9?$AAl?$AA1?$AA?9@ 100b2fc8     libucrt:winapi_thunks.obj
 0002:0002b010       ??_C@_1FK@FPHCKFIE@?$AAa?$AAp?$AAi?$AA?9?$AAm?$AAs?$AA?9?$AAw?$AAi?$AAn?$AA?9?$AAc?$AAo?$AAr?$AAe?$AA?9?$AAl?$AAo?$AAc?$AAa?$AAl?$AAi?$AAz?$AAa?$AAt?$AAi?$AAo?$AAn?$AA?9?$AAo?$AAb?$AAs@ 100b3010     libucrt:winapi_thunks.obj
 0002:0002b070       ??_C@_1EM@DILCGIIO@?$AAa?$AAp?$AAi?$AA?9?$AAm?$AAs?$AA?9?$AAw?$AAi?$AAn?$AA?9?$AAc?$AAo?$AAr?$AAe?$AA?9?$AAp?$AAr?$AAo?$AAc?$AAe?$AAs?$AAs?$AAt?$AAh?$AAr?$AAe?$AAa?$AAd?$AAs?$AA?9?$AAl@ 100b3070     libucrt:winapi_thunks.obj
 0002:0002b0bc       ??_C@_1DM@LNCGDDPN@?$AAa?$AAp?$AAi?$AA?9?$AAm?$AAs?$AA?9?$AAw?$AAi?$AAn?$AA?9?$AAc?$AAo?$AAr?$AAe?$AA?9?$AAs?$AAt?$AAr?$AAi?$AAn?$AAg?$AA?9?$AAl?$AA1?$AA?9?$AA1?$AA?9?$AA0?$AA?$AA@ 100b30bc     libucrt:winapi_thunks.obj
 0002:0002b0f8       ??_C@_1DO@FPAPJEMD@?$AAa?$AAp?$AAi?$AA?9?$AAm?$AAs?$AA?9?$AAw?$AAi?$AAn?$AA?9?$AAc?$AAo?$AAr?$AAe?$AA?9?$AAs?$AAy?$AAs?$AAi?$AAn?$AAf?$AAo?$AA?9?$AAl?$AA1?$AA?9?$AA2?$AA?9?$AA1?$AA?$AA@ 100b30f8     libucrt:winapi_thunks.obj
 0002:0002b138       ??_C@_1DK@NDHNAHIO@?$AAa?$AAp?$AAi?$AA?9?$AAm?$AAs?$AA?9?$AAw?$AAi?$AAn?$AA?9?$AAc?$AAo?$AAr?$AAe?$AA?9?$AAw?$AAi?$AAn?$AAr?$AAt?$AA?9?$AAl?$AA1?$AA?9?$AA1?$AA?9?$AA0?$AA?$AA@ 100b3138     libucrt:winapi_thunks.obj
 0002:0002b174       ??_C@_1DM@KGHDGBCM@?$AAa?$AAp?$AAi?$AA?9?$AAm?$AAs?$AA?9?$AAw?$AAi?$AAn?$AA?9?$AAc?$AAo?$AAr?$AAe?$AA?9?$AAx?$AAs?$AAt?$AAa?$AAt?$AAe?$AA?9?$AAl?$AA2?$AA?9?$AA1?$AA?9?$AA0?$AA?$AA@ 100b3174     libucrt:winapi_thunks.obj
 0002:0002b1b0       ??_C@_1EO@IJIOEFOH@?$AAa?$AAp?$AAi?$AA?9?$AAm?$AAs?$AA?9?$AAw?$AAi?$AAn?$AA?9?$AAr?$AAt?$AAc?$AAo?$AAr?$AAe?$AA?9?$AAn?$AAt?$AAu?$AAs?$AAe?$AAr?$AA?9?$AAw?$AAi?$AAn?$AAd?$AAo?$AAw?$AA?9@ 100b31b0     libucrt:winapi_thunks.obj
 0002:0002b200       ??_C@_1FG@HHGEKANL@?$AAa?$AAp?$AAi?$AA?9?$AAm?$AAs?$AA?9?$AAw?$AAi?$AAn?$AA?9?$AAs?$AAe?$AAc?$AAu?$AAr?$AAi?$AAt?$AAy?$AA?9?$AAs?$AAy?$AAs?$AAt?$AAe?$AAm?$AAf?$AAu?$AAn?$AAc?$AAt?$AAi@ 100b3200     libucrt:winapi_thunks.obj
 0002:0002b258       ??_C@_1FG@NCKKOLKO@?$AAe?$AAx?$AAt?$AA?9?$AAm?$AAs?$AA?9?$AAw?$AAi?$AAn?$AA?9?$AAk?$AAe?$AAr?$AAn?$AAe?$AAl?$AA3?$AA2?$AA?9?$AAp?$AAa?$AAc?$AAk?$AAa?$AAg?$AAe?$AA?9?$AAc?$AAu?$AAr?$AAr@ 100b3258     libucrt:winapi_thunks.obj
 0002:0002b2b0       ??_C@_1EG@DBIOJECG@?$AAe?$AAx?$AAt?$AA?9?$AAm?$AAs?$AA?9?$AAw?$AAi?$AAn?$AA?9?$AAn?$AAt?$AAu?$AAs?$AAe?$AAr?$AA?9?$AAd?$AAi?$AAa?$AAl?$AAo?$AAg?$AAb?$AAo?$AAx?$AA?9?$AAl?$AA1?$AA?9?$AA1@ 100b32b0     libucrt:winapi_thunks.obj
 0002:0002b2f8       ??_C@_1EO@FIHMJCLF@?$AAe?$AAx?$AAt?$AA?9?$AAm?$AAs?$AA?9?$AAw?$AAi?$AAn?$AA?9?$AAn?$AAt?$AAu?$AAs?$AAe?$AAr?$AA?9?$AAw?$AAi?$AAn?$AAd?$AAo?$AAw?$AAs?$AAt?$AAa?$AAt?$AAi?$AAo?$AAn?$AA?9@ 100b32f8     libucrt:winapi_thunks.obj
 0002:0002b348       ??_C@_1O@BCCLBEOE@?$AAu?$AAs?$AAe?$AAr?$AA3?$AA2?$AA?$AA@ 100b3348     libucrt:winapi_thunks.obj
 0002:0002b35c       ??_C@_0BA@FHFNEAED@AreFileApisANSI?$AA@ 100b335c     libucrt:winapi_thunks.obj
 0002:0002b37c       ??_C@_0BE@LJANKFHF@EnumSystemLocalesEx?$AA@ 100b337c     libucrt:winapi_thunks.obj
 0002:0002b3cc       ??_C@_0BJ@PBCCBIPI@GetUserDefaultLocaleName?$AA@ 100b33cc     libucrt:winapi_thunks.obj
 0002:0002b3f8       ??_C@_0BC@CELBKLLA@IsValidLocaleName?$AA@ 100b33f8     libucrt:winapi_thunks.obj
 0002:0002b41c       ??_C@_0BB@CDHDDLLP@LCIDToLocaleName?$AA@ 100b341c     libucrt:winapi_thunks.obj
 0002:0002b438       ??_C@_0BB@HBDEELFH@LocaleNameToLCID?$AA@ 100b3438     libucrt:winapi_thunks.obj
 0002:0002b44c       ?ccs@?BL@???$__acrt_stdio_parse_mode@D@@YA?AU__acrt_stdio_stream_mode@@QBD@Z@4QBDB 100b344c     libucrt:openfile.obj
 0002:0002b450       ?utf8_encoding@?BL@???$__acrt_stdio_parse_mode@D@@YA?AU__acrt_stdio_stream_mode@@QBD@Z@4QBDB 100b3450     libucrt:openfile.obj
 0002:0002b458       ?utf16_encoding@?BL@???$__acrt_stdio_parse_mode@D@@YA?AU__acrt_stdio_stream_mode@@QBD@Z@4QBDB 100b3458     libucrt:openfile.obj
 0002:0002b460       ?unicode_encoding@?BL@???$__acrt_stdio_parse_mode@D@@YA?AU__acrt_stdio_stream_mode@@QBD@Z@4QBDB 100b3460     libucrt:openfile.obj
 0002:0002b468       ?ccs@?BL@???$__acrt_stdio_parse_mode@_W@@YA?AU__acrt_stdio_stream_mode@@QB_W@Z@4QB_WB 100b3468     libucrt:openfile.obj
 0002:0002b470       ?utf8_encoding@?BL@???$__acrt_stdio_parse_mode@_W@@YA?AU__acrt_stdio_stream_mode@@QB_W@Z@4QB_WB 100b3470     libucrt:openfile.obj
 0002:0002b47c       ?utf16_encoding@?BL@???$__acrt_stdio_parse_mode@_W@@YA?AU__acrt_stdio_stream_mode@@QB_W@Z@4QB_WB 100b347c     libucrt:openfile.obj
 0002:0002b48c       ?unicode_encoding@?BL@???$__acrt_stdio_parse_mode@_W@@YA?AU__acrt_stdio_stream_mode@@QB_W@Z@4QB_WB 100b348c     libucrt:openfile.obj
 0002:0002b49c       __days                     100b349c     libucrt:days.obj
 0002:0002b4d0       __lpdays                   100b34d0     libucrt:days.obj
 0002:0002b504       ??_C@_1O@PNMIMBDD@?$AAC?$AAO?$AAN?$AAI?$AAN?$AA$?$AA?$AA@ 100b3504     libucrt:initconin.obj
 0002:0002b514       ??_C@_04FJHINJAO@tanh?$AA@ 100b3514     libucrt:fpexcept.obj
 0002:0002b51c       ??_C@_04FIHNOPOL@asin?$AA@ 100b351c     libucrt:fpexcept.obj
 0002:0002b524       ??_C@_04PDIFKINK@acos?$AA@ 100b3524     libucrt:fpexcept.obj
 0002:0002b52c       ??_C@_04MLLJIGOK@atan?$AA@ 100b352c     libucrt:fpexcept.obj
 0002:0002b534       ??_C@_05KNGEOGJB@atan2?$AA@ 100b3534     libucrt:fpexcept.obj
 0002:0002b53c       ??_C@_04EIAKFFMI@sqrt?$AA@ 100b353c     libucrt:fpexcept.obj
 0002:0002b544       ??_C@_03BLEJJJBH@sin?$AA@  100b3544     libucrt:fpexcept.obj
 0002:0002b548       ??_C@_03LALBNOCG@cos?$AA@  100b3548     libucrt:fpexcept.obj
 0002:0002b54c       ??_C@_03IIINPABG@tan?$AA@  100b354c     libucrt:fpexcept.obj
 0002:0002b550       ??_C@_04GFPJNGEK@ceil?$AA@ 100b3550     libucrt:fpexcept.obj
 0002:0002b558       ??_C@_05PBJFFIGL@floor?$AA@ 100b3558     libucrt:fpexcept.obj
 0002:0002b560       ??_C@_04ODHECPBC@fabs?$AA@ 100b3560     libucrt:fpexcept.obj
 0002:0002b568       ??_C@_04EHEDPDJG@modf?$AA@ 100b3568     libucrt:fpexcept.obj
 0002:0002b570       ??_C@_05CEJMAHNP@ldexp?$AA@ 100b3570     libucrt:fpexcept.obj
 0002:0002b578       ??_C@_05KBKMEMPO@_cabs?$AA@ 100b3578     libucrt:fpexcept.obj
 0002:0002b580       ??_C@_06MEIMCGCF@_hypot?$AA@ 100b3580     libucrt:fpexcept.obj
 0002:0002b588       ??_C@_04KEPJIHGP@fmod?$AA@ 100b3588     libucrt:fpexcept.obj
 0002:0002b590       ??_C@_05GKKHEGJL@frexp?$AA@ 100b3590     libucrt:fpexcept.obj
 0002:0002b598       ??_C@_03MJLDFKDL@_y0?$AA@  100b3598     libucrt:fpexcept.obj
 0002:0002b59c       ??_C@_03NAKIGLHK@_y1?$AA@  100b359c     libucrt:fpexcept.obj
 0002:0002b5a0       ??_C@_03ONILCKOB@_yn?$AA@  100b35a0     libucrt:fpexcept.obj
 0002:0002b5a4       ??_C@_05JGDBENOH@_logb?$AA@ 100b35a4     libucrt:fpexcept.obj
 0002:0002b5ac       ??_C@_0L@KDOEJCKC@_nextafter?$AA@ 100b35ac     libucrt:fpexcept.obj
 0002:0002b6a0       ??_C@_03KHJOGHMM@exp?$AA@  100b36a0     libucrt:fpexcept.obj
 0002:0002b6a4       ??_C@_03JGHBODFD@pow?$AA@  100b36a4     libucrt:fpexcept.obj
 0002:0002b6a8       ??_C@_03MGHMBJCF@log?$AA@  100b36a8     libucrt:fpexcept.obj
 0002:0002b6ac       ??_C@_05HGHHAHAP@log10?$AA@ 100b36ac     libucrt:fpexcept.obj
 0002:0002b6b4       ??_C@_04COOMCNPB@sinh?$AA@ 100b36b4     libucrt:fpexcept.obj
 0002:0002b6bc       ??_C@_04HPJJNFIM@cosh?$AA@ 100b36bc     libucrt:fpexcept.obj
 0002:0002b6c8       __d_inf                    100b36c8     libucrt:util.obj
 0002:0002b6d0       __d_max                    100b36d0     libucrt:util.obj
 0002:0002b6d8       __d_mzero                  100b36d8     libucrt:util.obj
 0002:0002b7c0       __infinity                 100b37c0     libucrt:87tran.obj
 0002:0002b7ca       __minfinity                100b37ca     libucrt:87tran.obj
 0002:0002b7d4       __logemax                  100b37d4     libucrt:87tran.obj
 0002:0002b7fa       __OP_EXPjmptab             100b37fa     libucrt:87tran.obj
 0002:0002b820       __indefinite               100b3820     libucrt:87disp.obj
 0002:0002b82a       __piby2                    100b382a     libucrt:87disp.obj
 0002:0002b834       __piby4                    100b3834     libucrt:87disp.obj
 0002:0002b868       __DEFAULT_CW_in_mem        100b3868     libucrt:common.obj
 0002:0002b86a       __pi_by_2_to_61            100b386a     libucrt:common.obj
 0002:0002b8b4       ??_C@_05DNEBIAHO@1?$CDINF?$AA@ 100b38b4     libucrt:cfout.obj
 0002:0002b8bc       ??_C@_06IMKFLFPG@1?$CDQNAN?$AA@ 100b38bc     libucrt:cfout.obj
 0002:0002b8c4       ??_C@_06PGGFOGJG@1?$CDSNAN?$AA@ 100b38c4     libucrt:cfout.obj
 0002:0002b8cc       ??_C@_05PHHOCPM@1?$CDIND?$AA@ 100b38cc     libucrt:cfout.obj
 0002:0002b8d4       ??_C@_1BC@LLOKLNP@?$AAa?$AAm?$AAe?$AAr?$AAi?$AAc?$AAa?$AAn?$AA?$AA@ 100b38d4     libucrt:get_qualified_locale.obj
 0002:0002b8e8       ??_C@_1CC@HEIGCDGG@?$AAa?$AAm?$AAe?$AAr?$AAi?$AAc?$AAa?$AAn?$AA?5?$AAe?$AAn?$AAg?$AAl?$AAi?$AAs?$AAh?$AA?$AA@ 100b38e8     libucrt:get_qualified_locale.obj
 0002:0002b90c       ??_C@_1CC@IHCNOMIN@?$AAa?$AAm?$AAe?$AAr?$AAi?$AAc?$AAa?$AAn?$AA?9?$AAe?$AAn?$AAg?$AAl?$AAi?$AAs?$AAh?$AA?$AA@ 100b390c     libucrt:get_qualified_locale.obj
 0002:0002b930       ??_C@_1BG@GKAGPCGG@?$AAa?$AAu?$AAs?$AAt?$AAr?$AAa?$AAl?$AAi?$AAa?$AAn?$AA?$AA@ 100b3930     libucrt:get_qualified_locale.obj
 0002:0002b948       ??_C@_1BA@GMENCENF@?$AAb?$AAe?$AAl?$AAg?$AAi?$AAa?$AAn?$AA?$AA@ 100b3948     libucrt:get_qualified_locale.obj
 0002:0002b958       ??_C@_1BC@PJMIIAAN@?$AAc?$AAa?$AAn?$AAa?$AAd?$AAi?$AAa?$AAn?$AA?$AA@ 100b3958     libucrt:get_qualified_locale.obj
 0002:0002b96c       ??_C@_17NOIMNFBF@?$AAc?$AAh?$AAh?$AA?$AA@ 100b396c     libucrt:get_qualified_locale.obj
 0002:0002b974       ??_C@_17GGDALCHA@?$AAc?$AAh?$AAi?$AA?$AA@ 100b3974     libucrt:get_qualified_locale.obj
 0002:0002b97c       ??_C@_1BA@NPNJKIBL@?$AAc?$AAh?$AAi?$AAn?$AAe?$AAs?$AAe?$AA?$AA@ 100b397c     libucrt:get_qualified_locale.obj
 0002:0002b98c       ??_C@_1CC@DINBAMMJ@?$AAc?$AAh?$AAi?$AAn?$AAe?$AAs?$AAe?$AA?9?$AAh?$AAo?$AAn?$AAg?$AAk?$AAo?$AAn?$AAg?$AA?$AA@ 100b398c     libucrt:get_qualified_locale.obj
 0002:0002b9b0       ??_C@_1CG@IOBJPACO@?$AAc?$AAh?$AAi?$AAn?$AAe?$AAs?$AAe?$AA?9?$AAs?$AAi?$AAm?$AAp?$AAl?$AAi?$AAf?$AAi?$AAe?$AAd?$AA?$AA@ 100b39b0     libucrt:get_qualified_locale.obj
 0002:0002b9d8       ??_C@_1CE@GAJNDCKG@?$AAc?$AAh?$AAi?$AAn?$AAe?$AAs?$AAe?$AA?9?$AAs?$AAi?$AAn?$AAg?$AAa?$AAp?$AAo?$AAr?$AAe?$AA?$AA@ 100b39d8     libucrt:get_qualified_locale.obj
 0002:0002b9fc       ??_C@_1CI@PAJPIOOD@?$AAc?$AAh?$AAi?$AAn?$AAe?$AAs?$AAe?$AA?9?$AAt?$AAr?$AAa?$AAd?$AAi?$AAt?$AAi?$AAo?$AAn?$AAa?$AAl?$AA?$AA@ 100b39fc     libucrt:get_qualified_locale.obj
 0002:0002ba24       ??_C@_1BM@NILJBMMD@?$AAd?$AAu?$AAt?$AAc?$AAh?$AA?9?$AAb?$AAe?$AAl?$AAg?$AAi?$AAa?$AAn?$AA?$AA@ 100b3a24     libucrt:get_qualified_locale.obj
 0002:0002ba40       ??_C@_1CC@OOJPJNEJ@?$AAe?$AAn?$AAg?$AAl?$AAi?$AAs?$AAh?$AA?9?$AAa?$AAm?$AAe?$AAr?$AAi?$AAc?$AAa?$AAn?$AA?$AA@ 100b3a40     libucrt:get_qualified_locale.obj
 0002:0002ba64       ??_C@_1BI@IOLFEEM@?$AAe?$AAn?$AAg?$AAl?$AAi?$AAs?$AAh?$AA?9?$AAa?$AAu?$AAs?$AA?$AA@ 100b3a64     libucrt:get_qualified_locale.obj
 0002:0002ba7c       ??_C@_1BO@HFFNLENJ@?$AAe?$AAn?$AAg?$AAl?$AAi?$AAs?$AAh?$AA?9?$AAb?$AAe?$AAl?$AAi?$AAz?$AAe?$AA?$AA@ 100b3a7c     libucrt:get_qualified_locale.obj
 0002:0002ba9c       ??_C@_1BI@HAPKJMPO@?$AAe?$AAn?$AAg?$AAl?$AAi?$AAs?$AAh?$AA?9?$AAc?$AAa?$AAn?$AA?$AA@ 100b3a9c     libucrt:get_qualified_locale.obj
 0002:0002bab4       ??_C@_1CE@HLNDMIOJ@?$AAe?$AAn?$AAg?$AAl?$AAi?$AAs?$AAh?$AA?9?$AAc?$AAa?$AAr?$AAi?$AAb?$AAb?$AAe?$AAa?$AAn?$AA?$AA@ 100b3ab4     libucrt:get_qualified_locale.obj
 0002:0002bad8       ??_C@_1BI@LDHJHHAC@?$AAe?$AAn?$AAg?$AAl?$AAi?$AAs?$AAh?$AA?9?$AAi?$AAr?$AAe?$AA?$AA@ 100b3ad8     libucrt:get_qualified_locale.obj
 0002:0002baf0       ??_C@_1CA@NJMMCFOC@?$AAe?$AAn?$AAg?$AAl?$AAi?$AAs?$AAh?$AA?9?$AAj?$AAa?$AAm?$AAa?$AAi?$AAc?$AAa?$AA?$AA@ 100b3af0     libucrt:get_qualified_locale.obj
 0002:0002bb10       ??_C@_1BG@BHJEBBGG@?$AAe?$AAn?$AAg?$AAl?$AAi?$AAs?$AAh?$AA?9?$AAn?$AAz?$AA?$AA@ 100b3b10     libucrt:get_qualified_locale.obj
 0002:0002bb28       ??_C@_1CK@FGOEJJCO@?$AAe?$AAn?$AAg?$AAl?$AAi?$AAs?$AAh?$AA?9?$AAs?$AAo?$AAu?$AAt?$AAh?$AA?5?$AAa?$AAf?$AAr?$AAi?$AAc?$AAa?$AA?$AA@ 100b3b28     libucrt:get_qualified_locale.obj
 0002:0002bb54       ??_C@_1DE@PDBJPCJ@?$AAe?$AAn?$AAg?$AAl?$AAi?$AAs?$AAh?$AA?9?$AAt?$AAr?$AAi?$AAn?$AAi?$AAd?$AAa?$AAd?$AA?5?$AAy?$AA?5?$AAt?$AAo?$AAb?$AAa?$AAg?$AAo?$AA?$AA@ 100b3b54     libucrt:get_qualified_locale.obj
 0002:0002bb88       ??_C@_1BG@JGCANDME@?$AAe?$AAn?$AAg?$AAl?$AAi?$AAs?$AAh?$AA?9?$AAu?$AAk?$AA?$AA@ 100b3b88     libucrt:get_qualified_locale.obj
 0002:0002bba0       ??_C@_1BG@DINKMLE@?$AAe?$AAn?$AAg?$AAl?$AAi?$AAs?$AAh?$AA?9?$AAu?$AAs?$AA?$AA@ 100b3ba0     libucrt:get_qualified_locale.obj
 0002:0002bbb8       ??_C@_1BI@NMFDBHJE@?$AAe?$AAn?$AAg?$AAl?$AAi?$AAs?$AAh?$AA?9?$AAu?$AAs?$AAa?$AA?$AA@ 100b3bb8     libucrt:get_qualified_locale.obj
 0002:0002bbd0       ??_C@_1BO@OIHKJKII@?$AAf?$AAr?$AAe?$AAn?$AAc?$AAh?$AA?9?$AAb?$AAe?$AAl?$AAg?$AAi?$AAa?$AAn?$AA?$AA@ 100b3bd0     libucrt:get_qualified_locale.obj
 0002:0002bbf0       ??_C@_1CA@NKAELJKI@?$AAf?$AAr?$AAe?$AAn?$AAc?$AAh?$AA?9?$AAc?$AAa?$AAn?$AAa?$AAd?$AAi?$AAa?$AAn?$AA?$AA@ 100b3bf0     libucrt:get_qualified_locale.obj
 0002:0002bc10       ??_C@_1CE@MGKCNLGN@?$AAf?$AAr?$AAe?$AAn?$AAc?$AAh?$AA?9?$AAl?$AAu?$AAx?$AAe?$AAm?$AAb?$AAo?$AAu?$AAr?$AAg?$AA?$AA@ 100b3c10     libucrt:get_qualified_locale.obj
 0002:0002bc34       ??_C@_1BK@CEGEAILM@?$AAf?$AAr?$AAe?$AAn?$AAc?$AAh?$AA?9?$AAs?$AAw?$AAi?$AAs?$AAs?$AA?$AA@ 100b3c34     libucrt:get_qualified_locale.obj
 0002:0002bc50       ??_C@_1CA@PAFKEOCC@?$AAg?$AAe?$AAr?$AAm?$AAa?$AAn?$AA?9?$AAa?$AAu?$AAs?$AAt?$AAr?$AAi?$AAa?$AAn?$AA?$AA@ 100b3c50     libucrt:get_qualified_locale.obj
 0002:0002bc70       ??_C@_1CI@HCFHGOFD@?$AAg?$AAe?$AAr?$AAm?$AAa?$AAn?$AA?9?$AAl?$AAi?$AAc?$AAh?$AAt?$AAe?$AAn?$AAs?$AAt?$AAe?$AAi?$AAn?$AA?$AA@ 100b3c70     libucrt:get_qualified_locale.obj
 0002:0002bc98       ??_C@_1CE@FEDDNPDG@?$AAg?$AAe?$AAr?$AAm?$AAa?$AAn?$AA?9?$AAl?$AAu?$AAx?$AAe?$AAm?$AAb?$AAo?$AAu?$AAr?$AAg?$AA?$AA@ 100b3c98     libucrt:get_qualified_locale.obj
 0002:0002bcbc       ??_C@_1BK@LIMINNMN@?$AAg?$AAe?$AAr?$AAm?$AAa?$AAn?$AA?9?$AAs?$AAw?$AAi?$AAs?$AAs?$AA?$AA@ 100b3cbc     libucrt:get_qualified_locale.obj
 0002:0002bcd8       ??_C@_1BM@LGMDBEPD@?$AAi?$AAr?$AAi?$AAs?$AAh?$AA?9?$AAe?$AAn?$AAg?$AAl?$AAi?$AAs?$AAh?$AA?$AA@ 100b3cd8     libucrt:get_qualified_locale.obj
 0002:0002bcf4       ??_C@_1BM@NNCFBAEE@?$AAi?$AAt?$AAa?$AAl?$AAi?$AAa?$AAn?$AA?9?$AAs?$AAw?$AAi?$AAs?$AAs?$AA?$AA@ 100b3cf4     libucrt:get_qualified_locale.obj
 0002:0002bd10       ??_C@_1BE@FEDJNPIB@?$AAn?$AAo?$AAr?$AAw?$AAe?$AAg?$AAi?$AAa?$AAn?$AA?$AA@ 100b3d10     libucrt:get_qualified_locale.obj
 0002:0002bd24       ??_C@_1CC@CILKDEIE@?$AAn?$AAo?$AAr?$AAw?$AAe?$AAg?$AAi?$AAa?$AAn?$AA?9?$AAb?$AAo?$AAk?$AAm?$AAa?$AAl?$AA?$AA@ 100b3d24     libucrt:get_qualified_locale.obj
 0002:0002bd48       ??_C@_1CE@DHMMHEPL@?$AAn?$AAo?$AAr?$AAw?$AAe?$AAg?$AAi?$AAa?$AAn?$AA?9?$AAn?$AAy?$AAn?$AAo?$AAr?$AAs?$AAk?$AA?$AA@ 100b3d48     libucrt:get_qualified_locale.obj
 0002:0002bd6c       ??_C@_1CK@OPNMHECD@?$AAp?$AAo?$AAr?$AAt?$AAu?$AAg?$AAu?$AAe?$AAs?$AAe?$AA?9?$AAb?$AAr?$AAa?$AAz?$AAi?$AAl?$AAi?$AAa?$AAn?$AA?$AA@ 100b3d6c     libucrt:get_qualified_locale.obj
 0002:0002bd98       ??_C@_1CE@KEEHCDB@?$AAs?$AAp?$AAa?$AAn?$AAi?$AAs?$AAh?$AA?9?$AAa?$AAr?$AAg?$AAe?$AAn?$AAt?$AAi?$AAn?$AAa?$AA?$AA@ 100b3d98     libucrt:get_qualified_locale.obj
 0002:0002bdbc       ??_C@_1CA@GIAOLHJD@?$AAs?$AAp?$AAa?$AAn?$AAi?$AAs?$AAh?$AA?9?$AAb?$AAo?$AAl?$AAi?$AAv?$AAi?$AAa?$AA?$AA@ 100b3dbc     libucrt:get_qualified_locale.obj
 0002:0002bddc       ??_C@_1BM@OJNDFNPD@?$AAs?$AAp?$AAa?$AAn?$AAi?$AAs?$AAh?$AA?9?$AAc?$AAh?$AAi?$AAl?$AAe?$AA?$AA@ 100b3ddc     libucrt:get_qualified_locale.obj
 0002:0002bdf8       ??_C@_1CC@OCOLPALL@?$AAs?$AAp?$AAa?$AAn?$AAi?$AAs?$AAh?$AA?9?$AAc?$AAo?$AAl?$AAo?$AAm?$AAb?$AAi?$AAa?$AA?$AA@ 100b3df8     libucrt:get_qualified_locale.obj
 0002:0002be1c       ??_C@_1CG@BPOFMKBB@?$AAs?$AAp?$AAa?$AAn?$AAi?$AAs?$AAh?$AA?9?$AAc?$AAo?$AAs?$AAt?$AAa?$AA?5?$AAr?$AAi?$AAc?$AAa?$AA?$AA@ 100b3e1c     libucrt:get_qualified_locale.obj
 0002:0002be44       ??_C@_1DG@IGOBAPBB@?$AAs?$AAp?$AAa?$AAn?$AAi?$AAs?$AAh?$AA?9?$AAd?$AAo?$AAm?$AAi?$AAn?$AAi?$AAc?$AAa?$AAn?$AA?5?$AAr?$AAe?$AAp?$AAu?$AAb?$AAl?$AAi?$AAc?$AA?$AA@ 100b3e44     libucrt:get_qualified_locale.obj
 0002:0002be7c       ??_C@_1CA@JHAPGEGI@?$AAs?$AAp?$AAa?$AAn?$AAi?$AAs?$AAh?$AA?9?$AAe?$AAc?$AAu?$AAa?$AAd?$AAo?$AAr?$AA?$AA@ 100b3e7c     libucrt:get_qualified_locale.obj
 0002:0002be9c       ??_C@_1CI@LAPALJPP@?$AAs?$AAp?$AAa?$AAn?$AAi?$AAs?$AAh?$AA?9?$AAe?$AAl?$AA?5?$AAs?$AAa?$AAl?$AAv?$AAa?$AAd?$AAo?$AAr?$AA?$AA@ 100b3e9c     libucrt:get_qualified_locale.obj
 0002:0002bec4       ??_C@_1CE@PDGBOFOM@?$AAs?$AAp?$AAa?$AAn?$AAi?$AAs?$AAh?$AA?9?$AAg?$AAu?$AAa?$AAt?$AAe?$AAm?$AAa?$AAl?$AAa?$AA?$AA@ 100b3ec4     libucrt:get_qualified_locale.obj
 0002:0002bee8       ??_C@_1CC@NBEBAODI@?$AAs?$AAp?$AAa?$AAn?$AAi?$AAs?$AAh?$AA?9?$AAh?$AAo?$AAn?$AAd?$AAu?$AAr?$AAa?$AAs?$AA?$AA@ 100b3ee8     libucrt:get_qualified_locale.obj
 0002:0002bf0c       ??_C@_1CA@LLKGHBMF@?$AAs?$AAp?$AAa?$AAn?$AAi?$AAs?$AAh?$AA?9?$AAm?$AAe?$AAx?$AAi?$AAc?$AAa?$AAn?$AA?$AA@ 100b3f0c     libucrt:get_qualified_locale.obj
 0002:0002bf2c       ??_C@_1BO@LKNDOIGD@?$AAs?$AAp?$AAa?$AAn?$AAi?$AAs?$AAh?$AA?9?$AAm?$AAo?$AAd?$AAe?$AAr?$AAn?$AA?$AA@ 100b3f2c     libucrt:get_qualified_locale.obj
 0002:0002bf4c       ??_C@_1CE@NMDMOEEB@?$AAs?$AAp?$AAa?$AAn?$AAi?$AAs?$AAh?$AA?9?$AAn?$AAi?$AAc?$AAa?$AAr?$AAa?$AAg?$AAu?$AAa?$AA?$AA@ 100b3f4c     libucrt:get_qualified_locale.obj
 0002:0002bf70       ??_C@_1BO@LLCBEJGB@?$AAs?$AAp?$AAa?$AAn?$AAi?$AAs?$AAh?$AA?9?$AAp?$AAa?$AAn?$AAa?$AAm?$AAa?$AA?$AA@ 100b3f70     libucrt:get_qualified_locale.obj
 0002:0002bf90       ??_C@_1CC@FKPGGIHO@?$AAs?$AAp?$AAa?$AAn?$AAi?$AAs?$AAh?$AA?9?$AAp?$AAa?$AAr?$AAa?$AAg?$AAu?$AAa?$AAy?$AA?$AA@ 100b3f90     libucrt:get_qualified_locale.obj
 0002:0002bfb4       ??_C@_1BK@CDEIHOOP@?$AAs?$AAp?$AAa?$AAn?$AAi?$AAs?$AAh?$AA?9?$AAp?$AAe?$AAr?$AAu?$AA?$AA@ 100b3fb4     libucrt:get_qualified_locale.obj
 0002:0002bfd0       ??_C@_1CI@GAHAKKGP@?$AAs?$AAp?$AAa?$AAn?$AAi?$AAs?$AAh?$AA?9?$AAp?$AAu?$AAe?$AAr?$AAt?$AAo?$AA?5?$AAr?$AAi?$AAc?$AAo?$AA?$AA@ 100b3fd0     libucrt:get_qualified_locale.obj
 0002:0002bff8       ??_C@_1CA@NKJBCAGP@?$AAs?$AAp?$AAa?$AAn?$AAi?$AAs?$AAh?$AA?9?$AAu?$AAr?$AAu?$AAg?$AAu?$AAa?$AAy?$AA?$AA@ 100b3ff8     libucrt:get_qualified_locale.obj
 0002:0002c018       ??_C@_1CE@ODILCONM@?$AAs?$AAp?$AAa?$AAn?$AAi?$AAs?$AAh?$AA?9?$AAv?$AAe?$AAn?$AAe?$AAz?$AAu?$AAe?$AAl?$AAa?$AA?$AA@ 100b4018     libucrt:get_qualified_locale.obj
 0002:0002c03c       ??_C@_1CA@OBNMCGFO@?$AAs?$AAw?$AAe?$AAd?$AAi?$AAs?$AAh?$AA?9?$AAf?$AAi?$AAn?$AAl?$AAa?$AAn?$AAd?$AA?$AA@ 100b403c     libucrt:get_qualified_locale.obj
 0002:0002c05c       ??_C@_1M@PIPDDPPI@?$AAs?$AAw?$AAi?$AAs?$AAs?$AA?$AA@ 100b405c     libucrt:get_qualified_locale.obj
 0002:0002c068       ??_C@_15GMFIMNFM@?$AAu?$AAs?$AA?$AA@ 100b4068     libucrt:get_qualified_locale.obj
 0002:0002c070       ??_C@_17HAEBFAGL@?$AAu?$AAs?$AAa?$AA?$AA@ 100b4070     libucrt:get_qualified_locale.obj
 0002:0002c078       ??_C@_1BA@DPFJEPHB@?$AAa?$AAm?$AAe?$AAr?$AAi?$AAc?$AAa?$AA?$AA@ 100b4078     libucrt:get_qualified_locale.obj
 0002:0002c088       ??_C@_1BA@ELOGGFK@?$AAb?$AAr?$AAi?$AAt?$AAa?$AAi?$AAn?$AA?$AA@ 100b4088     libucrt:get_qualified_locale.obj
 0002:0002c098       ??_C@_1M@GHBGIGDA@?$AAc?$AAh?$AAi?$AAn?$AAa?$AA?$AA@ 100b4098     libucrt:get_qualified_locale.obj
 0002:0002c0a4       ??_C@_1M@NCHEJOPO@?$AAc?$AAz?$AAe?$AAc?$AAh?$AA?$AA@ 100b40a4     libucrt:get_qualified_locale.obj
 0002:0002c0b0       ??_C@_1BA@BKPAPBLA@?$AAe?$AAn?$AAg?$AAl?$AAa?$AAn?$AAd?$AA?$AA@ 100b40b0     libucrt:get_qualified_locale.obj
 0002:0002c0c0       ??_C@_1BM@HKBCKIPC@?$AAg?$AAr?$AAe?$AAa?$AAt?$AA?5?$AAb?$AAr?$AAi?$AAt?$AAa?$AAi?$AAn?$AA?$AA@ 100b40c0     libucrt:get_qualified_locale.obj
 0002:0002c0dc       ??_C@_1BA@PPCHPGJB@?$AAh?$AAo?$AAl?$AAl?$AAa?$AAn?$AAd?$AA?$AA@ 100b40dc     libucrt:get_qualified_locale.obj
 0002:0002c0ec       ??_C@_1BE@JBMPEGDG@?$AAh?$AAo?$AAn?$AAg?$AA?9?$AAk?$AAo?$AAn?$AAg?$AA?$AA@ 100b40ec     libucrt:get_qualified_locale.obj
 0002:0002c100       ??_C@_1BI@KOELBBPJ@?$AAn?$AAe?$AAw?$AA?9?$AAz?$AAe?$AAa?$AAl?$AAa?$AAn?$AAd?$AA?$AA@ 100b4100     libucrt:get_qualified_locale.obj
 0002:0002c118       ??_C@_15HIEBHAIO@?$AAn?$AAz?$AA?$AA@ 100b4118     libucrt:get_qualified_locale.obj
 0002:0002c120       ??_C@_1BC@CHBCPFPI@?$AAp?$AAr?$AA?5?$AAc?$AAh?$AAi?$AAn?$AAa?$AA?$AA@ 100b4120     libucrt:get_qualified_locale.obj
 0002:0002c134       ??_C@_1BC@JAOIIFKD@?$AAp?$AAr?$AA?9?$AAc?$AAh?$AAi?$AAn?$AAa?$AA?$AA@ 100b4134     libucrt:get_qualified_locale.obj
 0002:0002c148       ??_C@_1BI@BEHPPHKC@?$AAp?$AAu?$AAe?$AAr?$AAt?$AAo?$AA?9?$AAr?$AAi?$AAc?$AAo?$AA?$AA@ 100b4148     libucrt:get_qualified_locale.obj
 0002:0002c160       ??_C@_1O@PAEOFKDI@?$AAs?$AAl?$AAo?$AAv?$AAa?$AAk?$AA?$AA@ 100b4160     libucrt:get_qualified_locale.obj
 0002:0002c170       ??_C@_1BK@FIHMCKAM@?$AAs?$AAo?$AAu?$AAt?$AAh?$AA?5?$AAa?$AAf?$AAr?$AAi?$AAc?$AAa?$AA?$AA@ 100b4170     libucrt:get_qualified_locale.obj
 0002:0002c18c       ??_C@_1BI@NAEOODKB@?$AAs?$AAo?$AAu?$AAt?$AAh?$AA?5?$AAk?$AAo?$AAr?$AAe?$AAa?$AA?$AA@ 100b418c     libucrt:get_qualified_locale.obj
 0002:0002c1a4       ??_C@_1BK@FBDGGIFF@?$AAs?$AAo?$AAu?$AAt?$AAh?$AA?9?$AAa?$AAf?$AAr?$AAi?$AAc?$AAa?$AA?$AA@ 100b41a4     libucrt:get_qualified_locale.obj
 0002:0002c1c0       ??_C@_1BI@GHLEJDPK@?$AAs?$AAo?$AAu?$AAt?$AAh?$AA?9?$AAk?$AAo?$AAr?$AAe?$AAa?$AA?$AA@ 100b41c0     libucrt:get_qualified_locale.obj
 0002:0002c1d8       ??_C@_1CE@PLHLOMJF@?$AAt?$AAr?$AAi?$AAn?$AAi?$AAd?$AAa?$AAd?$AA?5?$AA?$CG?$AA?5?$AAt?$AAo?$AAb?$AAa?$AAg?$AAo?$AA?$AA@ 100b41d8     libucrt:get_qualified_locale.obj
 0002:0002c1fc       ??_C@_1BO@MODIMHHI@?$AAu?$AAn?$AAi?$AAt?$AAe?$AAd?$AA?9?$AAk?$AAi?$AAn?$AAg?$AAd?$AAo?$AAm?$AA?$AA@ 100b41fc     libucrt:get_qualified_locale.obj
 0002:0002c21c       ??_C@_1BM@FFHJONBJ@?$AAu?$AAn?$AAi?$AAt?$AAe?$AAd?$AA?9?$AAs?$AAt?$AAa?$AAt?$AAe?$AAs?$AA?$AA@ 100b421c     libucrt:get_qualified_locale.obj
 0002:0002c238       ___acrt_rg_language        100b4238     libucrt:get_qualified_locale.obj
 0002:0002c544       ___acrt_rg_language_count  100b4544     libucrt:get_qualified_locale.obj
 0002:0002c548       ___acrt_rg_country         100b4548     libucrt:get_qualified_locale.obj
 0002:0002c65c       ___acrt_rg_country_count   100b465c     libucrt:get_qualified_locale.obj
 0002:0002c660       ??_C@_17DNCLJFIF@?$AAA?$AAC?$AAP?$AA?$AA@ 100b4660     libucrt:get_qualified_locale.obj
 0002:0002c668       ??_C@_17CIKBIHLH@?$AAO?$AAC?$AAP?$AA?$AA@ 100b4668     libucrt:get_qualified_locale.obj
 0002:0002c670       ___rglangidNotDefault      100b4670     libucrt:getqloc_downlevel.obj
 0002:0002d4c8       ___acrt_pow_rcp_t1         100b54c8     libucrt:pow_tables.obj
 0002:0002d8e0       ___acrt_pow_log2_t1        100b58e0     libucrt:pow_tables.obj
 0002:0002e0f0       ___acrt_pow_rcp_t2         100b60f0     libucrt:pow_tables.obj
 0002:0002e500       ___acrt_pow_log2_t2        100b6500     libucrt:pow_tables.obj
 0002:0002ed10       ___acrt_pow_rcp_t3         100b6d10     libucrt:pow_tables.obj
 0002:0002f520       ___acrt_pow_log2_t3        100b7520     libucrt:pow_tables.obj
 0002:00030530       ___acrt_pow_clv            100b8530     libucrt:pow_tables.obj
 0002:00030550       ___acrt_pow_exp2_tbl       100b8550     libucrt:pow_tables.obj
 0002:00030da8       ??_C@_1BA@BALFACEM@?$AAC?$AAO?$AAN?$AAO?$AAU?$AAT?$AA$?$AA?$AA@ 100b8da8     libucrt:initcon.obj
 0002:00030ec0       ___acrt_log10_table_t      100b8ec0     libucrt:log10_tables.obj
 0002:000312d0       ___acrt_log10_table_cb     100b92d0     libucrt:log10_tables.obj
 0002:000316e0       ??_C@_1BK@DBDEIDLH@?$AAK?$AAE?$AAR?$AAN?$AAE?$AAL?$AA3?$AA2?$AA?4?$AAD?$AAL?$AAL?$AA?$AA@ 100b96e0     DelayImp:delayhlp.obj
 0002:000316fc       ___pfnDliFailureHook2      100b96fc     DelayImp:delayhk1.obj
 0002:00031700       __load_config_used         100b9700     LIBCMT:loadcfg.obj
 0002:0003175c       ??_C@_0BC@BDKFLDHL@unknown?5exception?$AA@ 100b975c     DeviceQuery.obj
 0002:00031770       ??_C@_0BA@ELKIONDK@bad?5locale?5name?$AA@ 100b9770     DeviceQuery.obj
 0002:00031780       ??_C@_00CNPNBAHC@?$AA@     100b9780     DeviceQuery.obj
 0002:00031784       ??_C@_02LMMGGCAJ@?3?5?$AA@ 100b9784     DeviceQuery.obj
 0002:00031788       ??_C@_08LLGCOLLL@iostream?$AA@ 100b9788     DeviceQuery.obj
 0002:00031794       ??_C@_0BG@PADBLCHM@iostream?5stream?5error?$AA@ 100b9794     DeviceQuery.obj
 0002:000317ac       ??_C@_0BF@PHHKMMFD@ios_base?3?3badbit?5set?$AA@ 100b97ac     DeviceQuery.obj
 0002:000317c4       ??_C@_0BG@FMKFHCIL@ios_base?3?3failbit?5set?$AA@ 100b97c4     DeviceQuery.obj
 0002:000317dc       ??_C@_0BF@OOHOMBOF@ios_base?3?3eofbit?5set?$AA@ 100b97dc     DeviceQuery.obj
 0002:000317f4       ??_C@_0BK@CCNLFCGP@Wrong?5number?5of?5arguments?$AA@ 100b97f4     DeviceQuery.obj
 0002:00031810       ??_C@_0BJ@DCHEONEH@argumnets?5must?5be?5number?$AA@ 100b9810     DeviceQuery.obj
 0002:0003182c       ??_C@_01IHBHIGKO@?0?$AA@   100b982c     DeviceQuery.obj
 0002:00031830       ??_C@_05MMNJDHIJ@None?0?$AA@ 100b9830     DeviceQuery.obj
 0002:00031838       ??_C@_04OHJIHAFH@None?$AA@ 100b9838     DeviceQuery.obj
 0002:00031840       ??_C@_05LLAMLEHD@?$CFI64d?$AA@ 100b9840     DeviceQuery.obj
 0002:00031848       ??_C@_05EFCIJCKE@GetDC?$AA@ 100b9848     DeviceQuery.obj
 0002:00031850       ??_C@_0BG@LJKMFHOO@?4?4?2src?2DeviceQuery?4cc?$AA@ 100b9850     DeviceQuery.obj
 0002:00031868       ??_C@_0M@EJCBEEAC@DeviceQuery?$AA@ 100b9868     DeviceQuery.obj
 0002:00031874       ??_C@_0BA@JFNIOLAK@string?5too?5long?$AA@ 100b9874     DeviceQuery.obj
 0002:00031884       ??_C@_0BI@CFPLBAOH@invalid?5string?5position?$AA@ 100b9884     DeviceQuery.obj
 0002:0003189c       ??_7exception@stdext@@6B@  100b989c     DeviceQuery.obj
 0002:000318a8       ??_C@_0GH@NENIOPOG@SELECT?5?$CK?5FROM?5Win32_NetworkAdapt@ 100b98a8     WMI_DeviceQuery.obj
 0002:00031910       ??_C@_1BI@BKNKDINM@?$AAP?$AAN?$AAP?$AAD?$AAe?$AAv?$AAi?$AAc?$AAe?$AAI?$AAD?$AA?$AA@ 100b9910     WMI_DeviceQuery.obj
 0002:00031928       ??_C@_0GH@JMAINGEB@SELECT?5?$CK?5FROM?5Win32_DiskDrive?5WH@ 100b9928     WMI_DeviceQuery.obj
 0002:00031990       ??_C@_1BK@GBMCOKGG@?$AAS?$AAe?$AAr?$AAi?$AAa?$AAl?$AAN?$AAu?$AAm?$AAb?$AAe?$AAr?$AA?$AA@ 100b9990     WMI_DeviceQuery.obj
 0002:000319ac       ??_C@_0DP@POFPNGJI@SELECT?5?$CK?5FROM?5Win32_BaseBoard?5WH@ 100b99ac     WMI_DeviceQuery.obj
 0002:000319ec       ??_C@_0DO@FOCBDFEE@SELECT?5?$CK?5FROM?5Win32_Processor?5WH@ 100b99ec     WMI_DeviceQuery.obj
 0002:00031a2c       ??_C@_1BI@EKGBHAHH@?$AAP?$AAr?$AAo?$AAc?$AAe?$AAs?$AAs?$AAo?$AAr?$AAI?$AAd?$AA?$AA@ 100b9a2c     WMI_DeviceQuery.obj
 0002:00031a44       ??_C@_0DK@HBAJEIFF@SELECT?5?$CK?5FROM?5Win32_BIOS?5WHERE?5?$CI@ 100b9a44     WMI_DeviceQuery.obj
 0002:00031a80       ??_C@_0DK@FICMHEEL@SELECT?5?$CK?5FROM?5Win32_BaseBoard?5WH@ 100b9a80     WMI_DeviceQuery.obj
 0002:00031abc       ??_C@_1BA@NMFLIJJO@?$AAP?$AAr?$AAo?$AAd?$AAu?$AAc?$AAt?$AA?$AA@ 100b9abc     WMI_DeviceQuery.obj
 0002:00031acc       ??_C@_1BG@MPHODBAD@?$AAM?$AAA?$AAC?$AAA?$AAd?$AAd?$AAr?$AAe?$AAs?$AAs?$AA?$AA@ 100b9acc     WMI_DeviceQuery.obj
 0002:00031ae4       ??_C@_04GBDIODIA@?2?2?4?2?$AA@ 100b9ae4     WMI_DeviceQuery.obj
 0002:00031af0       ??_C@_0CI@ENHEKOKC@?$CD?$HLad498944?9762f?911d0?98dcb?900c04f@ 100b9af0     WMI_DeviceQuery.obj
 0002:00031b18       ??_C@_04JFFKLGJF@?$CF02X?$AA@ 100b9b18     WMI_DeviceQuery.obj
 0002:00031b20       ??_C@_1BG@BJADHBOD@?$AAR?$AAO?$AAO?$AAT?$AA?2?$AAC?$AAI?$AAM?$AAV?$AA2?$AA?$AA@ 100b9b20     WMI_DeviceQuery.obj
 0002:00031b38       ??_C@_03LJNDFDHG@WQL?$AA@  100b9b38     WMI_DeviceQuery.obj
 0002:00031b3c       ??_C@_0BD@OLBABOEK@vector?$DMT?$DO?5too?5long?$AA@ 100b9b3c     WMI_DeviceQuery.obj
 0002:00031b88       ___pfnDliNotifyHook2       100b9b88     win_delay_load_hook.obj
 0002:00031b8c       ??_C@_0BE@JBDFGGOO@?2?2?4?2PhysicalDrive?$CFd?$AA@ 100b9b8c     IOCTL_DeviceQuery.obj
 0002:00031ba0       ??_C@_0BB@NDICMINA@?2?2?4?2IDE21201?4VXD?$AA@ 100b9ba0     IOCTL_DeviceQuery.obj
 0002:00031bb8       ??_C@_0IB@DEOEAJMG@e1885f94882d3af43945de523bca4763@ 100b9bb8     RSA_EncryptData.obj
 0002:00031c3c       ??_C@_0BC@OFCFGFCC@Encrypt?5failed?$CB?1n?$AA@ 100b9c3c     RSA_EncryptData.obj
 0002:00031c50       ??_C@_08HCOMDCCD@iojs?4exe?$AA@ 100b9c50     win_delay_load_hook.obj
 0002:00031c5c       ??_C@_08JDDNMFDB@node?4exe?$AA@ 100b9c5c     win_delay_load_hook.obj
 0002:00031cc4       __tls_used                 100b9cc4     LIBCMT:tlssup.obj
 0002:00031cdc       ??_R4exception@std@@6B@    100b9cdc     libcpmt:cout.obj
 0002:00031cf0       ??_R3exception@std@@8      100b9cf0     libcpmt:cout.obj
 0002:00031d00       ??_R2exception@std@@8      100b9d00     libcpmt:cout.obj
 0002:00031d08       ??_R1A@?0A@EA@exception@std@@8 100b9d08     libcpmt:cout.obj
 0002:00031d24       ??_R4ios_base@std@@6B@     100b9d24     libcpmt:cout.obj
 0002:00031d38       ??_R3ios_base@std@@8       100b9d38     libcpmt:cout.obj
 0002:00031d48       ??_R2ios_base@std@@8       100b9d48     libcpmt:cout.obj
 0002:00031d54       ??_R1A@?0A@EA@ios_base@std@@8 100b9d54     libcpmt:cout.obj
 0002:00031d70       ??_R17?0A@EA@?$_Iosb@H@std@@8 100b9d70     libcpmt:cout.obj
 0002:00031d8c       ??_R3?$_Iosb@H@std@@8      100b9d8c     libcpmt:cout.obj
 0002:00031d9c       ??_R2?$_Iosb@H@std@@8      100b9d9c     libcpmt:cout.obj
 0002:00031da4       ??_R1A@?0A@EA@?$_Iosb@H@std@@8 100b9da4     libcpmt:cout.obj
 0002:00031dc0       ??_R4?$basic_ios@DU?$char_traits@D@std@@@std@@6B@ 100b9dc0     libcpmt:cout.obj
 0002:00031dd4       ??_R3?$basic_ios@DU?$char_traits@D@std@@@std@@8 100b9dd4     libcpmt:cout.obj
 0002:00031de4       ??_R2?$basic_ios@DU?$char_traits@D@std@@@std@@8 100b9de4     libcpmt:cout.obj
 0002:00031df4       ??_R1A@?0A@EA@?$basic_ios@DU?$char_traits@D@std@@@std@@8 100b9df4     libcpmt:cout.obj
 0002:00031e10       ??_R4?$basic_streambuf@DU?$char_traits@D@std@@@std@@6B@ 100b9e10     libcpmt:cout.obj
 0002:00031e24       ??_R3?$basic_streambuf@DU?$char_traits@D@std@@@std@@8 100b9e24     libcpmt:cout.obj
 0002:00031e34       ??_R2?$basic_streambuf@DU?$char_traits@D@std@@@std@@8 100b9e34     libcpmt:cout.obj
 0002:00031e3c       ??_R1A@?0A@EA@?$basic_streambuf@DU?$char_traits@D@std@@@std@@8 100b9e3c     libcpmt:cout.obj
 0002:00031e58       ??_R1A@A@3FA@?$basic_ios@DU?$char_traits@D@std@@@std@@8 100b9e58     libcpmt:cout.obj
 0002:00031e74       ??_R1A@A@3EA@ios_base@std@@8 100b9e74     libcpmt:cout.obj
 0002:00031e90       ??_R17A@3EA@?$_Iosb@H@std@@8 100b9e90     libcpmt:cout.obj
 0002:00031eac       ??_R4?$basic_ostream@DU?$char_traits@D@std@@@std@@6B@ 100b9eac     libcpmt:cout.obj
 0002:00031ec0       ??_R3?$basic_ostream@DU?$char_traits@D@std@@@std@@8 100b9ec0     libcpmt:cout.obj
 0002:00031ed0       ??_R2?$basic_ostream@DU?$char_traits@D@std@@@std@@8 100b9ed0     libcpmt:cout.obj
 0002:00031ee4       ??_R1A@?0A@EA@?$basic_ostream@DU?$char_traits@D@std@@@std@@8 100b9ee4     libcpmt:cout.obj
 0002:00031f00       ??_R4?$basic_filebuf@DU?$char_traits@D@std@@@std@@6B@ 100b9f00     libcpmt:cout.obj
 0002:00031f14       ??_R3?$basic_filebuf@DU?$char_traits@D@std@@@std@@8 100b9f14     libcpmt:cout.obj
 0002:00031f24       ??_R2?$basic_filebuf@DU?$char_traits@D@std@@@std@@8 100b9f24     libcpmt:cout.obj
 0002:00031f30       ??_R1A@?0A@EA@?$basic_filebuf@DU?$char_traits@D@std@@@std@@8 100b9f30     libcpmt:cout.obj
 0002:00031f4c       ??_R4runtime_error@std@@6B@ 100b9f4c     libcpmt:cout.obj
 0002:00031f60       ??_R3runtime_error@std@@8  100b9f60     libcpmt:cout.obj
 0002:00031f70       ??_R2runtime_error@std@@8  100b9f70     libcpmt:cout.obj
 0002:00031f7c       ??_R1A@?0A@EA@runtime_error@std@@8 100b9f7c     libcpmt:cout.obj
 0002:00031f98       ??_R4bad_cast@std@@6B@     100b9f98     libcpmt:cout.obj
 0002:00031fac       ??_R3bad_cast@std@@8       100b9fac     libcpmt:cout.obj
 0002:00031fbc       ??_R2bad_cast@std@@8       100b9fbc     libcpmt:cout.obj
 0002:00031fc8       ??_R1A@?0A@EA@bad_cast@std@@8 100b9fc8     libcpmt:cout.obj
 0002:00031fe4       ??_R4_Facet_base@std@@6B@  100b9fe4     libcpmt:cout.obj
 0002:00031ff8       ??_R3_Facet_base@std@@8    100b9ff8     libcpmt:cout.obj
 0002:00032008       ??_R2_Facet_base@std@@8    100ba008     libcpmt:cout.obj
 0002:00032010       ??_R1A@?0A@EA@_Facet_base@std@@8 100ba010     libcpmt:cout.obj
 0002:0003202c       ??_R1A@?0A@EA@facet@locale@std@@8 100ba02c     libcpmt:cout.obj
 0002:00032048       ??_R3facet@locale@std@@8   100ba048     libcpmt:cout.obj
 0002:00032058       ??_R2facet@locale@std@@8   100ba058     libcpmt:cout.obj
 0002:00032068       ??_R13?0A@EA@_Crt_new_delete@std@@8 100ba068     libcpmt:cout.obj
 0002:00032084       ??_R3_Crt_new_delete@std@@8 100ba084     libcpmt:cout.obj
 0002:00032094       ??_R2_Crt_new_delete@std@@8 100ba094     libcpmt:cout.obj
 0002:0003209c       ??_R1A@?0A@EA@_Crt_new_delete@std@@8 100ba09c     libcpmt:cout.obj
 0002:000320b8       ??_R3codecvt_base@std@@8   100ba0b8     libcpmt:cout.obj
 0002:000320c8       ??_R2codecvt_base@std@@8   100ba0c8     libcpmt:cout.obj
 0002:000320dc       ??_R1A@?0A@EA@codecvt_base@std@@8 100ba0dc     libcpmt:cout.obj
 0002:000320f8       ??_R3ctype_base@std@@8     100ba0f8     libcpmt:cout.obj
 0002:00032108       ??_R2ctype_base@std@@8     100ba108     libcpmt:cout.obj
 0002:0003211c       ??_R1A@?0A@EA@ctype_base@std@@8 100ba11c     libcpmt:cout.obj
 0002:00032138       ??_R4?$ctype@D@std@@6B@    100ba138     libcpmt:cout.obj
 0002:0003214c       ??_R3?$ctype@D@std@@8      100ba14c     libcpmt:cout.obj
 0002:0003215c       ??_R2?$ctype@D@std@@8      100ba15c     libcpmt:cout.obj
 0002:00032174       ??_R1A@?0A@EA@?$ctype@D@std@@8 100ba174     libcpmt:cout.obj
 0002:00032190       ??_R4error_category@std@@6B@ 100ba190     libcpmt:cout.obj
 0002:000321a4       ??_R3error_category@std@@8 100ba1a4     libcpmt:cout.obj
 0002:000321b4       ??_R2error_category@std@@8 100ba1b4     libcpmt:cout.obj
 0002:000321bc       ??_R1A@?0A@EA@error_category@std@@8 100ba1bc     libcpmt:cout.obj
 0002:000321d8       ??_R4_System_error@std@@6B@ 100ba1d8     libcpmt:cout.obj
 0002:000321ec       ??_R3_System_error@std@@8  100ba1ec     libcpmt:cout.obj
 0002:000321fc       ??_R2_System_error@std@@8  100ba1fc     libcpmt:cout.obj
 0002:0003220c       ??_R1A@?0A@EA@_System_error@std@@8 100ba20c     libcpmt:cout.obj
 0002:00032228       ??_R4system_error@std@@6B@ 100ba228     libcpmt:cout.obj
 0002:0003223c       ??_R3system_error@std@@8   100ba23c     libcpmt:cout.obj
 0002:0003224c       ??_R2system_error@std@@8   100ba24c     libcpmt:cout.obj
 0002:00032260       ??_R1A@?0A@EA@system_error@std@@8 100ba260     libcpmt:cout.obj
 0002:0003227c       ??_R3_Generic_error_category@std@@8 100ba27c     libcpmt:cout.obj
 0002:0003228c       ??_R2_Generic_error_category@std@@8 100ba28c     libcpmt:cout.obj
 0002:00032298       ??_R1A@?0A@EA@_Generic_error_category@std@@8 100ba298     libcpmt:cout.obj
 0002:000322b4       ??_R4_Iostream_error_category@std@@6B@ 100ba2b4     libcpmt:cout.obj
 0002:000322c8       ??_R3_Iostream_error_category@std@@8 100ba2c8     libcpmt:cout.obj
 0002:000322d8       ??_R2_Iostream_error_category@std@@8 100ba2d8     libcpmt:cout.obj
 0002:000322e8       ??_R1A@?0A@EA@_Iostream_error_category@std@@8 100ba2e8     libcpmt:cout.obj
 0002:00032304       ??_R4failure@ios_base@std@@6B@ 100ba304     libcpmt:cout.obj
 0002:00032318       ??_R3failure@ios_base@std@@8 100ba318     libcpmt:cout.obj
 0002:00032328       ??_R2failure@ios_base@std@@8 100ba328     libcpmt:cout.obj
 0002:00032340       ??_R1A@?0A@EA@failure@ios_base@std@@8 100ba340     libcpmt:cout.obj
 0002:0003235c       ??_R4?$codecvt@DDU_Mbstatet@@@std@@6B@ 100ba35c     libcpmt:cout.obj
 0002:00032370       ??_R3?$codecvt@DDU_Mbstatet@@@std@@8 100ba370     libcpmt:cout.obj
 0002:00032380       ??_R2?$codecvt@DDU_Mbstatet@@@std@@8 100ba380     libcpmt:cout.obj
 0002:00032398       ??_R1A@?0A@EA@?$codecvt@DDU_Mbstatet@@@std@@8 100ba398     libcpmt:cout.obj
 0002:000323b4       ??_R4_Locimp@locale@std@@6B@ 100ba3b4     libcpmt:locale0.obj
 0002:000323c8       ??_R3_Locimp@locale@std@@8 100ba3c8     libcpmt:locale0.obj
 0002:000323d8       ??_R2_Locimp@locale@std@@8 100ba3d8     libcpmt:locale0.obj
 0002:000323ec       ??_R1A@?0A@EA@_Locimp@locale@std@@8 100ba3ec     libcpmt:locale0.obj
 0002:00032408       ??_R4bad_alloc@std@@6B@    100ba408     libcpmt:xthrow.obj
 0002:0003241c       ??_R3bad_alloc@std@@8      100ba41c     libcpmt:xthrow.obj
 0002:0003242c       ??_R2bad_alloc@std@@8      100ba42c     libcpmt:xthrow.obj
 0002:00032438       ??_R1A@?0A@EA@bad_alloc@std@@8 100ba438     libcpmt:xthrow.obj
 0002:00032454       ??_R4logic_error@std@@6B@  100ba454     libcpmt:xthrow.obj
 0002:00032468       ??_R3logic_error@std@@8    100ba468     libcpmt:xthrow.obj
 0002:00032478       ??_R2logic_error@std@@8    100ba478     libcpmt:xthrow.obj
 0002:00032484       ??_R1A@?0A@EA@logic_error@std@@8 100ba484     libcpmt:xthrow.obj
 0002:000324a0       ??_R4length_error@std@@6B@ 100ba4a0     libcpmt:xthrow.obj
 0002:000324b4       ??_R3length_error@std@@8   100ba4b4     libcpmt:xthrow.obj
 0002:000324c4       ??_R2length_error@std@@8   100ba4c4     libcpmt:xthrow.obj
 0002:000324d4       ??_R1A@?0A@EA@length_error@std@@8 100ba4d4     libcpmt:xthrow.obj
 0002:000324f0       ??_R4out_of_range@std@@6B@ 100ba4f0     libcpmt:xthrow.obj
 0002:00032504       ??_R3out_of_range@std@@8   100ba504     libcpmt:xthrow.obj
 0002:00032514       ??_R2out_of_range@std@@8   100ba514     libcpmt:xthrow.obj
 0002:00032524       ??_R1A@?0A@EA@out_of_range@std@@8 100ba524     libcpmt:xthrow.obj
 0002:00032540       ??_R4type_info@@6B@        100ba540     LIBCMT:std_type_info_static.obj
 0002:00032554       ??_R3type_info@@8          100ba554     LIBCMT:std_type_info_static.obj
 0002:00032564       ??_R2type_info@@8          100ba564     LIBCMT:std_type_info_static.obj
 0002:0003256c       ??_R1A@?0A@EA@type_info@@8 100ba56c     LIBCMT:std_type_info_static.obj
 0002:00032588       ??_R4bad_array_new_length@std@@6B@ 100ba588     LIBCMT:throw_bad_alloc.obj
 0002:0003259c       ??_R3bad_array_new_length@std@@8 100ba59c     LIBCMT:throw_bad_alloc.obj
 0002:000325ac       ??_R2bad_array_new_length@std@@8 100ba5ac     LIBCMT:throw_bad_alloc.obj
 0002:000325bc       ??_R1A@?0A@EA@bad_array_new_length@std@@8 100ba5bc     LIBCMT:throw_bad_alloc.obj
 0002:000325d8       ??_R4bad_exception@std@@6B@ 100ba5d8     libvcruntime:frame.obj
 0002:000325ec       ??_R3bad_exception@std@@8  100ba5ec     libvcruntime:frame.obj
 0002:000325fc       ??_R2bad_exception@std@@8  100ba5fc     libvcruntime:frame.obj
 0002:00032608       ??_R1A@?0A@EA@bad_exception@std@@8 100ba608     libvcruntime:frame.obj
 0002:00032630       ___safe_se_handler_table   100ba630     <linker-defined>
 0002:00032afc       ___rtc_iaa                 100baafc     LIBCMT:_initsect_.obj
 0002:00032b00       ___rtc_izz                 100bab00     LIBCMT:_initsect_.obj
 0002:00032b04       ___rtc_taa                 100bab04     LIBCMT:_initsect_.obj
 0002:00032b08       ___rtc_tzz                 100bab08     LIBCMT:_initsect_.obj
 0002:00032cb8       __CT??_R0?AVexception@std@@@8??0exception@std@@QAE@ABV01@@Z12 100bacb8     libcpmt:cout.obj
 0002:00032cd4       __TI2?AVbad_cast@std@@     100bacd4     libcpmt:cout.obj
 0002:00032ce4       __CTA2?AVbad_cast@std@@    100bace4     libcpmt:cout.obj
 0002:00032cf0       __CT??_R0?AVbad_cast@std@@@8??0bad_cast@std@@QAE@ABV01@@Z12 100bacf0     libcpmt:cout.obj
 0002:00032d64       __TI2?AVbad_alloc@std@@    100bad64     libcpmt:xthrow.obj
 0002:00032d74       __CTA2?AVbad_alloc@std@@   100bad74     libcpmt:xthrow.obj
 0002:00032d80       __CT??_R0?AVbad_alloc@std@@@8??0bad_alloc@std@@QAE@ABV01@@Z12 100bad80     libcpmt:xthrow.obj
 0002:00032d9c       __CT??_R0?AVlogic_error@std@@@8??0logic_error@std@@QAE@ABV01@@Z12 100bad9c     libcpmt:xthrow.obj
 0002:00032db8       __TI3?AVlength_error@std@@ 100badb8     libcpmt:xthrow.obj
 0002:00032dc8       __CTA3?AVlength_error@std@@ 100badc8     libcpmt:xthrow.obj
 0002:00032dd8       __CT??_R0?AVlength_error@std@@@8??0length_error@std@@QAE@ABV01@@Z12 100badd8     libcpmt:xthrow.obj
 0002:00032df4       __TI3?AVout_of_range@std@@ 100badf4     libcpmt:xthrow.obj
 0002:00032e04       __CTA3?AVout_of_range@std@@ 100bae04     libcpmt:xthrow.obj
 0002:00032e14       __CT??_R0?AVout_of_range@std@@@8??0out_of_range@std@@QAE@ABV01@@Z12 100bae14     libcpmt:xthrow.obj
 0002:00032ed4       __TI3?AVbad_array_new_length@std@@ 100baed4     LIBCMT:throw_bad_alloc.obj
 0002:00032ee4       __CTA3?AVbad_array_new_length@std@@ 100baee4     LIBCMT:throw_bad_alloc.obj
 0002:00032ef4       __CT??_R0?AVbad_array_new_length@std@@@8??0bad_array_new_length@std@@QAE@ABV01@@Z12 100baef4     LIBCMT:throw_bad_alloc.obj
 0002:00032f84       __TI1?AV_com_error@@       100baf84     comsuppw:comraise.obj
 0002:00032f94       __CTA1?AV_com_error@@      100baf94     comsuppw:comraise.obj
 0002:00032f9c       __CT??_R0?AV_com_error@@@8??0_com_error@@QAE@ABV0@@Z16 100baf9c     comsuppw:comraise.obj
 0002:000330bc       __TI2?AVbad_exception@std@@ 100bb0bc     libvcruntime:frame.obj
 0002:000330cc       __CTA2?AVbad_exception@std@@ 100bb0cc     libvcruntime:frame.obj
 0002:000330d8       __CT??_R0?AVbad_exception@std@@@8??0bad_exception@std@@QAE@ABV01@@Z12 100bb0d8     libvcruntime:frame.obj
 0002:000337e4       __DELAY_IMPORT_DESCRIPTOR_node_exe 100bb7e4     node:node.exe
 0002:00033804       __NULL_DELAY_IMPORT_DESCRIPTOR 100bb804     node:node.exe
 0002:00033858       \177node_NULL_THUNK_DATA_DLN 100bb858     node:node.exe
 0002:00033b78       \177node_NULL_THUNK_DATA_DLB 100bbb78     node:node.exe
 0002:00033c28       __IMPORT_DESCRIPTOR_KERNEL32 100bbc28     kernel32:KERNEL32.dll
 0002:00033c3c       __IMPORT_DESCRIPTOR_USER32 100bbc3c     user32:USER32.dll
 0002:00033c50       __IMPORT_DESCRIPTOR_ole32  100bbc50     ole32:ole32.dll
 0002:00033c64       __IMPORT_DESCRIPTOR_OLEAUT32 100bbc64     oleaut32:OLEAUT32.dll
 0002:00033c78       __IMPORT_DESCRIPTOR_ADVAPI32 100bbc78     advapi32:ADVAPI32.dll
 0002:00033c8c       __NULL_IMPORT_DESCRIPTOR   100bbc8c     kernel32:KERNEL32.dll
 0003:0000033c       _rand_ssleay_meth          100bd33c     libeay32:md_rand.obj
 0003:0000088c       _default_pctx              100bd88c     libeay32:tasn_prn.obj
 0003:00000f3c       ?_Sync@ios_base@std@@0_NA  100bdf3c     libcpmt:ios.obj
 0003:00000f48       ?_PJP_CPP_Copyright@@3PADA 100bdf48     libcpmt:iosptrs.obj
 0003:00000f9c       __Init_global_epoch        100bdf9c     LIBCMT:thread_safe_statics.obj
 0003:00000fa0       ___scrt_native_dllmain_reason 100bdfa0     LIBCMT:utility.obj
 0003:00000fb0       __fltused                  100bdfb0     LIBCMT:fltused.obj
 0003:00000fb4       ___security_cookie_complement 100bdfb4     LIBCMT:gs_cookie.obj
 0003:00000fb8       ___security_cookie         100bdfb8     LIBCMT:gs_cookie.obj
 0003:00000fc0       ___isa_enabled             100bdfc0     LIBCMT:_cpu_disp_.obj
 0003:00000fd0       ?__errorPfn@@3P6GXJPAUIErrorInfo@@@ZA 100bdfd0     comsuppw:comsupp.obj
 0003:00000fd8       ?vtMissing@@3V_variant_t@@A 100bdfd8     comsuppw:comutil.obj
 0003:00001000       __NLG_Destination          100be000     libvcruntime:_exsup_.obj
 0003:00001010       ___abort_behavior          100be010     libucrt:abort.obj
 0003:00001020       __iob                      100be020     libucrt:_file.obj
 0003:000010d4       __pctype                   100be0d4     libucrt:ctype.obj
 0003:000010d8       __pwctype                  100be0d8     libucrt:ctype.obj
 0003:000010e0       ___acrt_lconv_static_decimal 100be0e0     libucrt:localeconv.obj
 0003:000010e4       ___acrt_lconv_static_W_decimal 100be0e4     libucrt:localeconv.obj
 0003:000010e8       ___acrt_lconv_c            100be0e8     libucrt:localeconv.obj
 0003:00001138       ___acrt_lconv              100be138     libucrt:localeconv.obj
 0003:00001148       ___mb_cur_max              100be148     libucrt:nlsdata.obj
 0003:00001150       ___acrt_initial_locale_data 100be150     libucrt:nlsdata.obj
 0003:00001208       ___acrt_initial_locale_pointers 100be208     libucrt:nlsdata.obj
 0003:00001210       ___acrt_wide_c_locale_string 100be210     libucrt:nlsdata.obj
 0003:00001218       ___badioinfo               100be218     libucrt:ioinit.obj
 0003:00001248       __lookuptrailbytes         100be248     libucrt:read.obj
 0003:000013d0       ___dcrt_lowio_console_input_handle 100be3d0     libucrt:initconin.obj
 0003:000013d4       ___globallocalestatus      100be3d4     libucrt:glstatus.obj
 0003:000014d8       __mbctype                  100be4d8     libucrt:mbctype.obj
 0003:000015e0       __mbcasemap                100be5e0     libucrt:mbctype.obj
 0003:000016e0       ___acrt_initial_multibyte_data 100be6e0     libucrt:mbctype.obj
 0003:00001900       ___acrt_current_multibyte_data 100be900     libucrt:mbctype.obj
 0003:00001910       ___dcrt_lowio_console_output_handle 100be910     libucrt:initcon.obj
 0003:00001948       ??_R0?AVruntime_error@std@@@8 100be948     libcpmt:cout.obj
 0003:00001968       ??_R0?AVexception@std@@@8  100be968     libcpmt:cout.obj
 0003:00001984       ??_R0?AVfailure@ios_base@std@@@8 100be984     libcpmt:cout.obj
 0003:000019a8       ??_R0?AVsystem_error@std@@@8 100be9a8     libcpmt:cout.obj
 0003:000019c8       ??_R0?AV_System_error@std@@@8 100be9c8     libcpmt:cout.obj
 0003:000019e8       ??_R0?AVbad_cast@std@@@8   100be9e8     libcpmt:cout.obj
 0003:00001a04       ??_R0?AVios_base@std@@@8   100bea04     libcpmt:cout.obj
 0003:00001a20       ??_R0?AV?$_Iosb@H@std@@@8  100bea20     libcpmt:cout.obj
 0003:00001a3c       ??_R0?AV?$basic_ios@DU?$char_traits@D@std@@@std@@@8 100bea3c     libcpmt:cout.obj
 0003:00001a74       ??_R0?AV?$basic_streambuf@DU?$char_traits@D@std@@@std@@@8 100bea74     libcpmt:cout.obj
 0003:00001ab0       ??_R0?AV?$basic_ostream@DU?$char_traits@D@std@@@std@@@8 100beab0     libcpmt:cout.obj
 0003:00001aec       ??_R0?AV?$basic_filebuf@DU?$char_traits@D@std@@@std@@@8 100beaec     libcpmt:cout.obj
 0003:00001b28       ??_R0?AV_Facet_base@std@@@8 100beb28     libcpmt:cout.obj
 0003:00001b48       ??_R0?AVfacet@locale@std@@@8 100beb48     libcpmt:cout.obj
 0003:00001b68       ??_R0?AU_Crt_new_delete@std@@@8 100beb68     libcpmt:cout.obj
 0003:00001b8c       ??_R0?AVcodecvt_base@std@@@8 100beb8c     libcpmt:cout.obj
 0003:00001bac       ??_R0?AUctype_base@std@@@8 100bebac     libcpmt:cout.obj
 0003:00001bcc       ??_R0?AV?$ctype@D@std@@@8  100bebcc     libcpmt:cout.obj
 0003:00001be8       ??_R0?AVerror_category@std@@@8 100bebe8     libcpmt:cout.obj
 0003:00001c0c       ??_R0?AV_Generic_error_category@std@@@8 100bec0c     libcpmt:cout.obj
 0003:00001c38       ??_R0?AV_Iostream_error_category@std@@@8 100bec38     libcpmt:cout.obj
 0003:00001c64       ??_R0?AV?$codecvt@DDU_Mbstatet@@@std@@@8 100bec64     libcpmt:cout.obj
 0003:00001c90       ??_R0?AV_Locimp@locale@std@@@8 100bec90     libcpmt:locale0.obj
 0003:00001cb4       ??_R0?AVbad_alloc@std@@@8  100becb4     libcpmt:xthrow.obj
 0003:00001cd0       ??_R0?AVlogic_error@std@@@8 100becd0     libcpmt:xthrow.obj
 0003:00001cf0       ??_R0?AVlength_error@std@@@8 100becf0     libcpmt:xthrow.obj
 0003:00001d10       ??_R0?AVout_of_range@std@@@8 100bed10     libcpmt:xthrow.obj
 0003:00001d30       ??_R0?AVtype_info@@@8      100bed30     LIBCMT:std_type_info_static.obj
 0003:00001d48       ??_R0?AVbad_array_new_length@std@@@8 100bed48     LIBCMT:throw_bad_alloc.obj
 0003:00001d70       ??_R0?AV_com_error@@@8     100bed70     comsuppw:comraise.obj
 0003:00001d8c       ??_R0?AVbad_exception@std@@@8 100bed8c     libvcruntime:frame.obj
 0003:00001dac       __imp_?ThrowException@Isolate@v8@@QAE?AV?$Local@VValue@v8@@@2@V32@@Z 100bedac     node:node.exe
 0003:00001db0       __imp_?GetCurrent@Isolate@v8@@SAPAV12@XZ 100bedb0     node:node.exe
 0003:00001db4       __imp_??1HandleScope@v8@@QAE@XZ 100bedb4     node:node.exe
 0003:00001db8       __imp_??0HandleScope@v8@@QAE@PAVIsolate@1@@Z 100bedb8     node:node.exe
 0003:00001dbc       __imp_?TypeError@Exception@v8@@SA?AV?$Local@VValue@v8@@@2@V?$Local@VString@v8@@@2@@Z 100bedbc     node:node.exe
 0003:00001dc0       __imp_?GetFunction@FunctionTemplate@v8@@QAE?AV?$Local@VFunction@v8@@@2@XZ 100bedc0     node:node.exe
 0003:00001dc4       __imp_?New@FunctionTemplate@v8@@SA?AV?$Local@VFunctionTemplate@v8@@@2@PAVIsolate@2@P6AXABV?$FunctionCallbackInfo@VValue@v8@@@2@@ZV?$Local@VValue@v8@@@2@V?$Local@VSignature@v8@@@2@H@Z 100bedc4     node:node.exe
 0003:00001dc8       __imp_?NumberValue@Value@v8@@QBENXZ 100bedc8     node:node.exe
 0003:00001dcc       __imp_?IsNumber@Value@v8@@QBE_NXZ 100bedcc     node:node.exe
 0003:00001dd0       __imp_?NewFromUtf8@String@v8@@SA?AV?$Local@VString@v8@@@2@PAVIsolate@2@PBDW4NewStringType@12@H@Z 100bedd0     node:node.exe
 0003:00001dd4       __imp_?Set@Object@v8@@QAE_NV?$Local@VValue@v8@@@2@0@Z 100bedd4     node:node.exe
 0003:00001dd8       __imp_?SetName@Function@v8@@QAEXV?$Local@VString@v8@@@2@@Z 100bedd8     node:node.exe
 0003:00001ddc       __imp__node_module_register 100beddc     node:node.exe
 0003:00001de0       \177node_NULL_THUNK_DATA_DLA 100bede0     node:node.exe
 0003:00001df0       __hmod__node_exe           100bedf0     node:node.exe
 0003:000034b4       _OPENSSL_NONPIC_relocated  100c04b4     libeay32:cryptlib.obj
 0003:00003990       _obj_cleanup_defer         100c0990     libeay32:obj_dat.obj
 0003:000039b0       _app_pkey_methods          100c09b0     libeay32:pmeth_lib.obj
 0003:00003d20       ?cout@std@@3V?$basic_ostream@DU?$char_traits@D@std@@@1@A 100c0d20     libcpmt:cout.obj
 0003:00003dc8       ?id@?$codecvt@DDU_Mbstatet@@@std@@2V0locale@2@A 100c0dc8     libcpmt:cout.obj
 0003:00003dcc       ?_Stinit@?1??_Init@?$basic_filebuf@DU?$char_traits@D@std@@@std@@IAEXPAU_iobuf@@W4_Initfl@23@@Z@4U_Mbstatet@@A 100c0dcc     libcpmt:cout.obj
 0003:00003dd4       ?_Psave@?$_Facetptr@V?$codecvt@DDU_Mbstatet@@@std@@@std@@2PBVfacet@locale@2@B 100c0dd4     libcpmt:cout.obj
 0003:00003dd8       ?_Id_cnt@id@locale@std@@0HA 100c0dd8     libcpmt:locale0.obj
 0003:00003ddc       ?_Clocptr@_Locimp@locale@std@@0PAV123@A 100c0ddc     libcpmt:locale0.obj
 0003:00003de8       ?id@?$ctype@G@std@@2V0locale@2@A 100c0de8     libcpmt:locale0.obj
 0003:00003dec       ?id@?$codecvt@_WDU_Mbstatet@@@std@@2V0locale@2@A 100c0dec     libcpmt:locale0.obj
 0003:00003df0       ?id@?$codecvt@GDU_Mbstatet@@@std@@2V0locale@2@A 100c0df0     libcpmt:locale0.obj
 0003:00003df4       ?id@?$ctype@_W@std@@2V0locale@2@A 100c0df4     libcpmt:locale0.obj
 0003:00003df8       ?id@?$ctype@D@std@@2V0locale@2@A 100c0df8     libcpmt:locale0.obj
 0003:00003e08       ?_Raise_handler@std@@3P6AXABVexception@stdext@@@ZA 100c0e08     libcpmt:raisehan.obj
 0003:00003e0c       ?_Index@ios_base@std@@0HA  100c0e0c     libcpmt:ios.obj
 0003:00003e44       ?_Ptr_cin@std@@3PAV?$basic_istream@DU?$char_traits@D@std@@@1@A 100c0e44     libcpmt:iosptrs.obj
 0003:00003e48       ?_Ptr_cout@std@@3PAV?$basic_ostream@DU?$char_traits@D@std@@@1@A 100c0e48     libcpmt:iosptrs.obj
 0003:00003e4c       ?_Ptr_cerr@std@@3PAV?$basic_ostream@DU?$char_traits@D@std@@@1@A 100c0e4c     libcpmt:iosptrs.obj
 0003:00003e50       ?_Ptr_clog@std@@3PAV?$basic_ostream@DU?$char_traits@D@std@@@1@A 100c0e50     libcpmt:iosptrs.obj
 0003:00003e54       ?_Ptr_wcin@std@@3PAV?$basic_istream@_WU?$char_traits@_W@std@@@1@A 100c0e54     libcpmt:iosptrs.obj
 0003:00003e58       ?_Ptr_wcout@std@@3PAV?$basic_ostream@_WU?$char_traits@_W@std@@@1@A 100c0e58     libcpmt:iosptrs.obj
 0003:00003e5c       ?_Ptr_wcerr@std@@3PAV?$basic_ostream@_WU?$char_traits@_W@std@@@1@A 100c0e5c     libcpmt:iosptrs.obj
 0003:00003e60       ?_Ptr_wclog@std@@3PAV?$basic_ostream@_WU?$char_traits@_W@std@@@1@A 100c0e60     libcpmt:iosptrs.obj
 0003:00003e90       ?id@?$num_get@DV?$istreambuf_iterator@DU?$char_traits@D@std@@@std@@@std@@2V0locale@2@A 100c0e90     libcpmt:locale.obj
 0003:00003e94       ?id@?$num_put@DV?$ostreambuf_iterator@DU?$char_traits@D@std@@@std@@@std@@2V0locale@2@A 100c0e94     libcpmt:locale.obj
 0003:00003e98       ?id@?$numpunct@D@std@@2V0locale@2@A 100c0e98     libcpmt:locale.obj
 0003:00003ea0       ___encodedKERNEL32Functions 100c0ea0     libcpmt:winapisupp.obj
 0003:00003f40       ?id@?$time_put@_WV?$ostreambuf_iterator@_WU?$char_traits@_W@std@@@std@@@std@@2V0locale@2@A 100c0f40     libcpmt:wlocale.obj
 0003:00003f44       ?id@?$num_get@_WV?$istreambuf_iterator@_WU?$char_traits@_W@std@@@std@@@std@@2V0locale@2@A 100c0f44     libcpmt:wlocale.obj
 0003:00003f48       ?id@?$num_put@_WV?$ostreambuf_iterator@_WU?$char_traits@_W@std@@@std@@@std@@2V0locale@2@A 100c0f48     libcpmt:wlocale.obj
 0003:00003f4c       ?id@?$numpunct@_W@std@@2V0locale@2@A 100c0f4c     libcpmt:wlocale.obj
 0003:00003f50       ?id@?$collate@_W@std@@2V0locale@2@A 100c0f50     libcpmt:wlocale.obj
 0003:00003f54       ?id@?$messages@_W@std@@2V0locale@2@A 100c0f54     libcpmt:wlocale.obj
 0003:00003f58       ?id@?$money_get@_WV?$istreambuf_iterator@_WU?$char_traits@_W@std@@@std@@@std@@2V0locale@2@A 100c0f58     libcpmt:wlocale.obj
 0003:00003f5c       ?id@?$money_put@_WV?$ostreambuf_iterator@_WU?$char_traits@_W@std@@@std@@@std@@2V0locale@2@A 100c0f5c     libcpmt:wlocale.obj
 0003:00003f60       ?id@?$moneypunct@_W$0A@@std@@2V0locale@2@A 100c0f60     libcpmt:wlocale.obj
 0003:00003f64       ?id@?$moneypunct@_W$00@std@@2V0locale@2@A 100c0f64     libcpmt:wlocale.obj
 0003:00003f68       ?id@?$time_get@_WV?$istreambuf_iterator@_WU?$char_traits@_W@std@@@std@@@std@@2V0locale@2@A 100c0f68     libcpmt:wlocale.obj
 0003:00003f6c       ?id@?$num_get@GV?$istreambuf_iterator@GU?$char_traits@G@std@@@std@@@std@@2V0locale@2@A 100c0f6c     libcpmt:wlocale.obj
 0003:00003f70       ?id@?$num_put@GV?$ostreambuf_iterator@GU?$char_traits@G@std@@@std@@@std@@2V0locale@2@A 100c0f70     libcpmt:wlocale.obj
 0003:00003f74       ?id@?$numpunct@G@std@@2V0locale@2@A 100c0f74     libcpmt:wlocale.obj
 0003:00003f78       ?id@?$collate@G@std@@2V0locale@2@A 100c0f78     libcpmt:wlocale.obj
 0003:00003f7c       ?id@?$messages@G@std@@2V0locale@2@A 100c0f7c     libcpmt:wlocale.obj
 0003:00003f80       ?id@?$money_get@GV?$istreambuf_iterator@GU?$char_traits@G@std@@@std@@@std@@2V0locale@2@A 100c0f80     libcpmt:wlocale.obj
 0003:00003f84       ?id@?$money_put@GV?$ostreambuf_iterator@GU?$char_traits@G@std@@@std@@@std@@2V0locale@2@A 100c0f84     libcpmt:wlocale.obj
 0003:00003f88       ?id@?$moneypunct@G$0A@@std@@2V0locale@2@A 100c0f88     libcpmt:wlocale.obj
 0003:00003f8c       ?id@?$moneypunct@G$00@std@@2V0locale@2@A 100c0f8c     libcpmt:wlocale.obj
 0003:00003f90       ?id@?$time_get@GV?$istreambuf_iterator@GU?$char_traits@G@std@@@std@@@std@@2V0locale@2@A 100c0f90     libcpmt:wlocale.obj
 0003:00003f94       ?id@?$time_put@GV?$ostreambuf_iterator@GU?$char_traits@G@std@@@std@@@std@@2V0locale@2@A 100c0f94     libcpmt:wlocale.obj
 0003:00003f98       ?id@?$collate@D@std@@2V0locale@2@A 100c0f98     libcpmt:xlocale.obj
 0003:00003f9c       ?id@?$messages@D@std@@2V0locale@2@A 100c0f9c     libcpmt:xlocale.obj
 0003:00003fa0       ?id@?$money_get@DV?$istreambuf_iterator@DU?$char_traits@D@std@@@std@@@std@@2V0locale@2@A 100c0fa0     libcpmt:xlocale.obj
 0003:00003fa4       ?id@?$money_put@DV?$ostreambuf_iterator@DU?$char_traits@D@std@@@std@@@std@@2V0locale@2@A 100c0fa4     libcpmt:xlocale.obj
 0003:00003fa8       ?id@?$moneypunct@D$0A@@std@@2V0locale@2@A 100c0fa8     libcpmt:xlocale.obj
 0003:00003fac       ?id@?$moneypunct@D$00@std@@2V0locale@2@A 100c0fac     libcpmt:xlocale.obj
 0003:00003fb0       ?id@?$time_get@DV?$istreambuf_iterator@DU?$char_traits@D@std@@@std@@@std@@2V0locale@2@A 100c0fb0     libcpmt:xlocale.obj
 0003:00003fb4       ?id@?$time_put@DV?$ostreambuf_iterator@DU?$char_traits@D@std@@@std@@@std@@2V0locale@2@A 100c0fb4     libcpmt:xlocale.obj
 0003:00003fe0       ___scrt_current_native_startup_state 100c0fe0     LIBCMT:utility.obj
 0003:00003fe4       ___scrt_native_startup_lock 100c0fe4     LIBCMT:utility.obj
 0003:00004328       ___scrt_debugger_hook_flag 100c1328     LIBCMT:utility_desktop.obj
 0003:0000432c       __tls_index                100c132c     LIBCMT:tlssup.obj
 0003:00004330       ___isa_available           100c1330     LIBCMT:_cpu_disp_.obj
 0003:00004334       ___favor                   100c1334     LIBCMT:_cpu_disp_.obj
 0003:00004338       ?__type_info_root_node@@3U__type_info_node@@A 100c1338     LIBCMT:tncleanup.obj
 0003:00004340       ?g_OutOfMemoryExceptionCallback@@3P6GPAXXZA 100c1340     libvcruntime:frame.obj
 0003:00004378       ___pPurecall               100c1378     libvcruntime:purevirt_data.obj
 0003:000043c0       ?pArgList@UnDecorator@@0PAVReplicator@@A 100c13c0     libvcruntime:undname.obj
 0003:000043c4       ?pZNameList@UnDecorator@@0PAVReplicator@@A 100c13c4     libvcruntime:undname.obj
 0003:000043c8       ?pTemplateArgList@UnDecorator@@0PAVReplicator@@A 100c13c8     libvcruntime:undname.obj
 0003:000043cc       ?gName@UnDecorator@@0PBDB  100c13cc     libvcruntime:undname.obj
 0003:000043d0       ?name@UnDecorator@@0PBDB   100c13d0     libvcruntime:undname.obj
 0003:000043d4       ?outputString@UnDecorator@@0PADA 100c13d4     libvcruntime:undname.obj
 0003:000043d8       ?maxStringLength@UnDecorator@@0HA 100c13d8     libvcruntime:undname.obj
 0003:000043dc       ?disableFlags@UnDecorator@@0KA 100c13dc     libvcruntime:undname.obj
 0003:000043e0       ?fExplicitTemplateParams@UnDecorator@@0_NA 100c13e0     libvcruntime:undname.obj
 0003:000043e1       ?fGetTemplateArgumentList@UnDecorator@@0_NA 100c13e1     libvcruntime:undname.obj
 0003:000043e4       ?m_pGetParameter@UnDecorator@@0P6APADJ@ZA 100c13e4     libvcruntime:undname.obj
 0003:00004400       __nstream                  100c1400     libucrt:_file.obj
 0003:00004404       ___piob                    100c1404     libucrt:_file.obj
 0003:00004408       __cflush                   100c1408     libucrt:_file.obj
 0003:00004564       ___acrt_lconv_static_null  100c1564     libucrt:localeconv.obj
 0003:00004568       ___acrt_lconv_static_W_null 100c1568     libucrt:localeconv.obj
 0003:00004678       __environ_table            100c1678     libucrt:environment_initialization.obj
 0003:0000467c       __wenviron_table           100c167c     libucrt:environment_initialization.obj
 0003:00004680       ___dcrt_initial_wide_environment 100c1680     libucrt:environment_initialization.obj
 0003:00004684       ___dcrt_initial_narrow_environment 100c1684     libucrt:environment_initialization.obj
 0003:00004688       ___acrt_atexit_table       100c1688     libucrt:onexit.obj
 0003:00004694       ___acrt_at_quick_exit_table 100c1694     libucrt:onexit.obj
 0003:000046a4       ___acrt_stdout_buffer      100c16a4     libucrt:_sftbuf.obj
 0003:000046a8       ___acrt_stderr_buffer      100c16a8     libucrt:_sftbuf.obj
 0003:000046ac       ___acrt_locale_changed_data 100c16ac     libucrt:wsetlocale.obj
 0003:000046b0       ___acrt_current_locale_data 100c16b0     libucrt:nlsdata.obj
 0003:000046b8       ___pioinfo                 100c16b8     libucrt:ioinit.obj
 0003:000048b8       __nhandle                  100c18b8     libucrt:ioinit.obj
 0003:00004998       __fmode                    100c1998     libucrt:txtmode.obj
 0003:0000499c       ?_timezone@@3V?$dual_state_global@J@__crt_state_management@@A 100c199c     libucrt:timeset.obj
 0003:000049a0       ?_daylight@@3V?$dual_state_global@H@__crt_state_management@@A 100c19a0     libucrt:timeset.obj
 0003:000049a4       ?_dstbias@@3V?$dual_state_global@J@__crt_state_management@@A 100c19a4     libucrt:timeset.obj
 0003:00004a68       ___acrt_heap               100c1a68     libucrt:heap_handle.obj
 0003:00004a6c       ___fastflag                100c1a6c     libucrt:fp_flags.obj
 0003:00004a70       ___mblocalename            100c1a70     libucrt:mbctype.obj
 0003:00004a74       ___mbcodepage              100c1a74     libucrt:mbctype.obj
 0003:00004a78       ___ismbcodepage            100c1a78     libucrt:mbctype.obj
 0003:00004a7c       ___mbulinfo                100c1a7c     libucrt:mbctype.obj
 0003:00004a90       ___argc                    100c1a90     libucrt:argv_data.obj
 0003:00004a94       ___argv                    100c1a94     libucrt:argv_data.obj
 0003:00004a98       ___wargv                   100c1a98     libucrt:argv_data.obj
 0003:00004a9c       __acmdln                   100c1a9c     libucrt:argv_data.obj
 0003:00004aa0       __wcmdln                   100c1aa0     libucrt:argv_data.obj
 0003:00004aa4       __pgmptr                   100c1aa4     libucrt:argv_data.obj
 0003:00004aac       __commode                  100c1aac     libucrt:ncommode.obj
 0003:00004ab8       __umaskval                 100c1ab8     libucrt:umask.obj
 0003:00004abc       ?DloadKernel32@@3PAUHINSTANCE__@@A 100c1abc     DelayImp:delayhlp.obj
 0003:00004ac0       ?DloadAcquireSRWLockExclusive@@3P6GXPAK@ZA 100c1ac0     DelayImp:delayhlp.obj
 0003:00004ac4       ?DloadReleaseSRWLockExclusive@@3P6GXPAK@ZA 100c1ac4     DelayImp:delayhlp.obj
 0003:00004ac8       ?DloadSrwLock@@3KA         100c1ac8     DelayImp:delayhlp.obj
 0003:00004acc       ?DloadSectionLockCount@@3KA 100c1acc     DelayImp:delayhlp.obj
 0003:00004ad0       ?DloadSectionOldProtection@@3KA 100c1ad0     DelayImp:delayhlp.obj
 0003:00004ad4       ?DloadSectionCommitPermanent@@3KA 100c1ad4     DelayImp:delayhlp.obj
 0003:00004ad8       ?$TSS0@?1???$_Immortalize@V_Iostream_error_category@std@@@std@@YAAAV_Iostream_error_category@1@XZ@4HA 100c1ad8     DeviceQuery.obj
 0003:00004ae0       ?_OptionsStorage@?1??__local_stdio_printf_options@@9@4_KA 100c1ae0     DeviceQuery.obj
 0003:00004ae8       ?_Static@?1???$_Immortalize@V_Iostream_error_category@std@@@std@@YAAAV_Iostream_error_category@1@XZ@4U?$_Immortalizer@V_Iostream_error_category@std@@@1@A 100c1ae8     DeviceQuery.obj
 0003:00004af0       ?_Psave@?$_Facetptr@V?$ctype@D@std@@@std@@2PBVfacet@locale@2@B 100c1af0     DeviceQuery.obj
 0003:00004af4       ?m_instance@DiskInfo@@0PAV1@A 100c1af4     IOCTL_DeviceQuery.obj
 0003:000052f0       _sigx_app                  100c22f0     <common>
 0003:000052f4       _sig_app                   100c22f4     <common>
 0003:000052f8       ?_OptionsStorage@?1??__local_stdio_scanf_options@@9@9 100c22f8     <common>
 0003:00005300       ___dyn_tls_init_callback   100c2300     <common>
 0003:00005304       ___scrt_ucrt_dll_is_in_use 100c2304     <common>
 0003:00005308       __pmatherr                 100c2308     <common>
 0003:0000530c       ___use_sse2_mathfcns       100c230c     <common>
 0005:00000000       __tls_start                100c4000     LIBCMT:tlssup.obj
 0005:00000004       __Init_thread_epoch        100c4004     LIBCMT:thread_safe_statics.obj
 0005:00000008       __tls_end                  100c4008     LIBCMT:tlssup.obj

 entry point at        0001:00063d9a

 Static symbols

 0000:fff32000       .debug$S                   10000000     oleaut32:OLEAUT32.dll
 0000:fff32000       .debug$S                   10000000     node:node.exe
 0000:fff32000       .debug$S                   10000000     node:node.exe
 0000:fff32000       .debug$S                   10000000     node:node.exe
 0000:fff32000       .debug$S                   10000000     node:node.exe
 0000:fff32000       .debug$S                   10000000     node:node.exe
 0000:fff32000       .debug$S                   10000000     node:node.exe
 0000:fff32000       .debug$S                   10000000     node:node.exe
 0000:fff32000       .debug$S                   10000000     oleaut32:OLEAUT32.dll
 0000:fff32000       .debug$S                   10000000     oleaut32:OLEAUT32.dll
 0000:fff32000       .debug$S                   10000000     oleaut32:OLEAUT32.dll
 0000:fff32000       .debug$S                   10000000     oleaut32:OLEAUT32.dll
 0000:fff32000       .debug$S                   10000000     oleaut32:OLEAUT32.dll
 0000:fff32000       .debug$S                   10000000     oleaut32:OLEAUT32.dll
 0000:fff32000       .debug$S                   10000000     oleaut32:OLEAUT32.dll
 0000:fff32000       .debug$S                   10000000     DeviceQuery.exp
 0000:fff32000       .debug$S                   10000000     node:node.exe
 0000:fff32000       .debug$S                   10000000     ole32:ole32.dll
 0000:fff32000       .debug$S                   10000000     ole32:ole32.dll
 0000:fff32000       .debug$S                   10000000     ole32:ole32.dll
 0000:fff32000       .debug$S                   10000000     ole32:ole32.dll
 0000:fff32000       .debug$S                   10000000     node:node.exe
 0000:fff32000       .debug$S                   10000000     kernel32:KERNEL32.dll
 0000:fff32000       .debug$S                   10000000     kernel32:KERNEL32.dll
 0000:fff32000       .debug$S                   10000000     kernel32:KERNEL32.dll
 0000:fff32000       .debug$S                   10000000     kernel32:KERNEL32.dll
 0000:fff32000       .debug$S                   10000000     kernel32:KERNEL32.dll
 0000:fff32000       .debug$S                   10000000     kernel32:KERNEL32.dll
 0000:fff32000       .debug$S                   10000000     kernel32:KERNEL32.dll
 0000:fff32000       .debug$S                   10000000     kernel32:KERNEL32.dll
 0000:fff32000       .debug$S                   10000000     kernel32:KERNEL32.dll
 0000:fff32000       .debug$S                   10000000     kernel32:KERNEL32.dll
 0000:fff32000       .debug$S                   10000000     kernel32:KERNEL32.dll
 0000:fff32000       .debug$S                   10000000     kernel32:KERNEL32.dll
 0000:fff32000       .debug$S                   10000000     kernel32:KERNEL32.dll
 0000:fff32000       .debug$S                   10000000     kernel32:KERNEL32.dll
 0000:fff32000       .debug$S                   10000000     kernel32:KERNEL32.dll
 0000:fff32000       .debug$S                   10000000     kernel32:KERNEL32.dll
 0000:fff32000       .debug$S                   10000000     kernel32:KERNEL32.dll
 0000:fff32000       .debug$S                   10000000     kernel32:KERNEL32.dll
 0000:fff32000       .debug$S                   10000000     kernel32:KERNEL32.dll
 0000:fff32000       .debug$S                   10000000     kernel32:KERNEL32.dll
 0000:fff32000       .debug$S                   10000000     kernel32:KERNEL32.dll
 0000:fff32000       .debug$S                   10000000     kernel32:KERNEL32.dll
 0000:fff32000       .debug$S                   10000000     kernel32:KERNEL32.dll
 0000:fff32000       .debug$S                   10000000     kernel32:KERNEL32.dll
 0000:fff32000       .debug$S                   10000000     kernel32:KERNEL32.dll
 0000:fff32000       .debug$S                   10000000     kernel32:KERNEL32.dll
 0000:fff32000       .debug$S                   10000000     kernel32:KERNEL32.dll
 0000:fff32000       .debug$S                   10000000     kernel32:KERNEL32.dll
 0000:fff32000       .debug$S                   10000000     kernel32:KERNEL32.dll
 0000:fff32000       .debug$S                   10000000     kernel32:KERNEL32.dll
 0000:fff32000       .debug$S                   10000000     kernel32:KERNEL32.dll
 0000:fff32000       .debug$S                   10000000     kernel32:KERNEL32.dll
 0000:fff32000       .debug$S                   10000000     kernel32:KERNEL32.dll
 0000:fff32000       .debug$S                   10000000     kernel32:KERNEL32.dll
 0000:fff32000       .debug$S                   10000000     kernel32:KERNEL32.dll
 0000:fff32000       .debug$S                   10000000     kernel32:KERNEL32.dll
 0000:fff32000       .debug$S                   10000000     kernel32:KERNEL32.dll
 0000:fff32000       .debug$S                   10000000     kernel32:KERNEL32.dll
 0000:fff32000       .debug$S                   10000000     kernel32:KERNEL32.dll
 0000:fff32000       .debug$S                   10000000     kernel32:KERNEL32.dll
 0000:fff32000       .debug$S                   10000000     kernel32:KERNEL32.dll
 0000:fff32000       .debug$S                   10000000     kernel32:KERNEL32.dll
 0000:fff32000       .debug$S                   10000000     kernel32:KERNEL32.dll
 0000:fff32000       .debug$S                   10000000     kernel32:KERNEL32.dll
 0000:fff32000       .debug$S                   10000000     kernel32:KERNEL32.dll
 0000:fff32000       .debug$S                   10000000     kernel32:KERNEL32.dll
 0000:fff32000       .debug$S                   10000000     kernel32:KERNEL32.dll
 0000:fff32000       .debug$S                   10000000     kernel32:KERNEL32.dll
 0000:fff32000       .debug$S                   10000000     kernel32:KERNEL32.dll
 0000:fff32000       .debug$S                   10000000     kernel32:KERNEL32.dll
 0000:fff32000       .debug$S                   10000000     kernel32:KERNEL32.dll
 0000:fff32000       .debug$S                   10000000     kernel32:KERNEL32.dll
 0000:fff32000       .debug$S                   10000000     kernel32:KERNEL32.dll
 0000:fff32000       .debug$S                   10000000     kernel32:KERNEL32.dll
 0000:fff32000       .debug$S                   10000000     kernel32:KERNEL32.dll
 0000:fff32000       .debug$S                   10000000     kernel32:KERNEL32.dll
 0000:fff32000       .debug$S                   10000000     kernel32:KERNEL32.dll
 0000:fff32000       .debug$S                   10000000     kernel32:KERNEL32.dll
 0000:fff32000       .debug$S                   10000000     kernel32:KERNEL32.dll
 0000:fff32000       .debug$S                   10000000     kernel32:KERNEL32.dll
 0000:fff32000       .debug$S                   10000000     kernel32:KERNEL32.dll
 0000:fff32000       .debug$S                   10000000     kernel32:KERNEL32.dll
 0000:fff32000       .debug$S                   10000000     kernel32:KERNEL32.dll
 0000:fff32000       .debug$S                   10000000     kernel32:KERNEL32.dll
 0000:fff32000       .debug$S                   10000000     kernel32:KERNEL32.dll
 0000:fff32000       .debug$S                   10000000     kernel32:KERNEL32.dll
 0000:fff32000       .debug$S                   10000000     kernel32:KERNEL32.dll
 0000:fff32000       .debug$S                   10000000     kernel32:KERNEL32.dll
 0000:fff32000       .debug$S                   10000000     kernel32:KERNEL32.dll
 0000:fff32000       .debug$S                   10000000     kernel32:KERNEL32.dll
 0000:fff32000       .debug$S                   10000000     kernel32:KERNEL32.dll
 0000:fff32000       .debug$S                   10000000     kernel32:KERNEL32.dll
 0000:fff32000       .debug$S                   10000000     kernel32:KERNEL32.dll
 0000:fff32000       .debug$S                   10000000     kernel32:KERNEL32.dll
 0000:fff32000       .debug$S                   10000000     kernel32:KERNEL32.dll
 0000:fff32000       .debug$S                   10000000     kernel32:KERNEL32.dll
 0000:fff32000       .debug$S                   10000000     kernel32:KERNEL32.dll
 0000:fff32000       .debug$S                   10000000     kernel32:KERNEL32.dll
 0000:fff32000       .debug$S                   10000000     kernel32:KERNEL32.dll
 0000:fff32000       .debug$S                   10000000     kernel32:KERNEL32.dll
 0000:fff32000       .debug$S                   10000000     kernel32:KERNEL32.dll
 0000:fff32000       .debug$S                   10000000     kernel32:KERNEL32.dll
 0000:fff32000       .debug$S                   10000000     kernel32:KERNEL32.dll
 0000:fff32000       .debug$S                   10000000     kernel32:KERNEL32.dll
 0000:fff32000       .debug$S                   10000000     kernel32:KERNEL32.dll
 0000:fff32000       .debug$S                   10000000     kernel32:KERNEL32.dll
 0000:fff32000       .debug$S                   10000000     kernel32:KERNEL32.dll
 0000:fff32000       .debug$S                   10000000     kernel32:KERNEL32.dll
 0000:fff32000       .debug$S                   10000000     kernel32:KERNEL32.dll
 0000:fff32000       .debug$S                   10000000     kernel32:KERNEL32.dll
 0000:fff32000       .debug$S                   10000000     kernel32:KERNEL32.dll
 0000:fff32000       .debug$S                   10000000     kernel32:KERNEL32.dll
 0000:fff32000       .debug$S                   10000000     kernel32:KERNEL32.dll
 0000:fff32000       .debug$S                   10000000     kernel32:KERNEL32.dll
 0000:fff32000       .debug$S                   10000000     kernel32:KERNEL32.dll
 0000:fff32000       .debug$S                   10000000     kernel32:KERNEL32.dll
 0000:fff32000       .debug$S                   10000000     kernel32:KERNEL32.dll
 0000:fff32000       .debug$S                   10000000     kernel32:KERNEL32.dll
 0000:fff32000       .debug$S                   10000000     kernel32:KERNEL32.dll
 0000:fff32000       .debug$S                   10000000     kernel32:KERNEL32.dll
 0000:fff32000       .debug$S                   10000000     kernel32:KERNEL32.dll
 0000:fff32000       .debug$S                   10000000     kernel32:KERNEL32.dll
 0000:fff32000       .debug$S                   10000000     kernel32:KERNEL32.dll
 0000:fff32000       .debug$S                   10000000     kernel32:KERNEL32.dll
 0000:fff32000       .debug$S                   10000000     kernel32:KERNEL32.dll
 0000:fff32000       .debug$S                   10000000     kernel32:KERNEL32.dll
 0000:fff32000       .debug$S                   10000000     kernel32:KERNEL32.dll
 0000:fff32000       .debug$S                   10000000     kernel32:KERNEL32.dll
 0000:fff32000       .debug$S                   10000000     kernel32:KERNEL32.dll
 0000:fff32000       .debug$S                   10000000     kernel32:KERNEL32.dll
 0000:fff32000       .debug$S                   10000000     kernel32:KERNEL32.dll
 0000:fff32000       .debug$S                   10000000     node:node.exe
 0000:fff32000       .debug$S                   10000000     user32:USER32.dll
 0000:fff32000       .debug$S                   10000000     user32:USER32.dll
 0000:fff32000       .debug$S                   10000000     user32:USER32.dll
 0000:fff32000       .debug$S                   10000000     user32:USER32.dll
 0000:fff32000       .debug$S                   10000000     user32:USER32.dll
 0000:fff32000       .debug$S                   10000000     user32:USER32.dll
 0000:fff32000       .debug$S                   10000000     node:node.exe
 0000:fff32000       .debug$S                   10000000     gdi32:GDI32.dll
 0000:fff32000       .debug$S                   10000000     gdi32:GDI32.dll
 0000:fff32000       .debug$S                   10000000     gdi32:GDI32.dll
 0000:fff32000       .debug$S                   10000000     gdi32:GDI32.dll
 0000:fff32000       .debug$S                   10000000     gdi32:GDI32.dll
 0002:fff78000       .idata$6                   10000000     gdi32:GDI32.dll
 0000:fff32000       .debug$S                   10000000     advapi32:ADVAPI32.dll
 0000:fff32000       .debug$S                   10000000     advapi32:ADVAPI32.dll
 0000:fff32000       .debug$S                   10000000     advapi32:ADVAPI32.dll
 0000:fff32000       .debug$S                   10000000     node:node.exe
 0000:fff32000       .debug$S                   10000000     ole32:ole32.dll
 0000:fff32000       .debug$S                   10000000     node:node.exe
 0001:00000000       ??__Einitlocks@std@@YAXXZ  10001000 f   libcpmt:xlock.obj
 0001:00000016       ??__Ecout@std@@YAXXZ       10001016 f   libcpmt:cout.obj
 0001:00000035       ??__Efout@std@@YAXXZ       10001035 f   libcpmt:cout.obj
 0001:0000006f       ??__Einit_cout@std@@YAXXZ  1000106f f   libcpmt:cout.obj
 0001:00000079       ??__Einitlocks@@YAXXZ      10001079 f   libcpmt:cout.obj
 0001:0000008f       ??__E_Fac_tidy_reg@std@@YAXXZ 1000108f f   libcpmt:locale0.obj
 0001:0000009b       ??__Eclassic_locale@std@@YAXXZ 1000109b f   libcpmt:locale0.obj
 0001:000000a7       ??__Einit_atexit@@YAXXZ    100010a7 f   libcpmt:iosptrs.obj
 0001:000000b3       ??__Einitlocks@std@@YAXXZ  100010b3 f   libcpmt:iosptrs.obj
 0001:000000d0       ??__EvtMissing@@YAXXZ      100010d0 f   comsuppw:comutil.obj
 0001:00000c40       ?StringValidateDestAndLengthA@@YGJPBDIPAII@Z 10001c40 f   DeviceQuery.obj
 0001:00001180       __register_DeviceQuery     10002180 f   DeviceQuery.obj
 0001:00002520       ?WMI_DoWithPNPDeviceID@@YAHPBDPADI@Z 10003520 f   WMI_DeviceQuery.obj
 0001:000026a0       ?WMI_DoWithHarddiskSerialNumber@@YAHPADI@Z 100036a0 f   WMI_DeviceQuery.obj
 0001:000027f0       ?WMI_DoWithProperty@@YAHHPADI@Z 100037f0 f   WMI_DeviceQuery.obj
 0001:00002870       ?isSupportDiskWMI@@YAHXZ   10003870 f   WMI_DeviceQuery.obj
 0001:00002fb8       $LN51                      10003fb8     IOCTL_DeviceQuery.obj
 0001:00002ffc       $LN46                      10003ffc     IOCTL_DeviceQuery.obj
 0001:00003a40       ?load_exe_hook@@YGP6GHXZIPAUDelayLoadInfo@@@Z 10004a40 f   win_delay_load_hook.obj
 0001:00003fec       $LN71                      10004fec     libeay32:bn_lib.obj
 0001:00004630       _bn_expand_internal        10005630 f   libeay32:bn_lib.obj
 0001:00005080       _rsa_get_public_exp        10006080 f   libeay32:rsa_crpt.obj
 0001:00005470       _default_malloc_ex         10006470 f   libeay32:mem.obj
 0001:00005480       _default_realloc_ex        10006480 f   libeay32:mem.obj
 0001:000054a0       _default_malloc_locked_ex  100064a0 f   libeay32:mem.obj
 0001:00005750       _int_err_get               10006750 f   libeay32:err.obj
 0001:000057d0       _int_err_del               100067d0 f   libeay32:err.obj
 0001:00005820       _int_err_get_item          10006820 f   libeay32:err.obj
 0001:000058c0       _int_err_set_item          100068c0 f   libeay32:err.obj
 0001:00005960       _int_err_del_item          10006960 f   libeay32:err.obj
 0001:00005a00       _int_thread_get            10006a00 f   libeay32:err.obj
 0001:00005a90       _int_thread_release        10006a90 f   libeay32:err.obj
 0001:00005ad0       _int_thread_get_item       10006ad0 f   libeay32:err.obj
 0001:00005b90       _int_thread_set_item       10006b90 f   libeay32:err.obj
 0001:00005c50       _int_thread_del_item       10006c50 f   libeay32:err.obj
 0001:00005d50       _int_err_get_next_lib      10006d50 f   libeay32:err.obj
 0001:00005d90       _ERR_STATE_free            10006d90 f   libeay32:err.obj
 0001:00006350       _err_state_LHASH_COMP      10007350 f   libeay32:err.obj
 0001:00006350       _app_info_LHASH_COMP       10007350 f   libeay32:mem_dbg.obj
 0001:00006360       _err_state_LHASH_HASH      10007360 f   libeay32:err.obj
 0001:00006370       _err_string_data_LHASH_HASH 10007370 f   libeay32:err.obj
 0001:000063b0       _file_write                100073b0 f   libeay32:bss_file.obj
 0001:000063e0       _file_read                 100073e0 f   libeay32:bss_file.obj
 0001:00006460       _file_puts                 10007460 f   libeay32:bss_file.obj
 0001:000064b0       _file_gets                 100074b0 f   libeay32:bss_file.obj
 0001:000064f0       _file_ctrl                 100074f0 f   libeay32:bss_file.obj
 0001:0000676c       $LN48                      1000776c     libeay32:bss_file.obj
 0001:00006798       $LN41                      10007798     libeay32:bss_file.obj
 0001:00006820       _file_new                  10007820 f   libeay32:bss_file.obj
 0001:00006850       _file_free                 10007850 f   libeay32:bss_file.obj
 0001:00006990       _file_fopen                10007990 f   libeay32:bss_file.obj
 0001:000074b0       __dopr                     100084b0 f   libeay32:b_print.obj
 0001:00007a20       $LN138                     10008a20     libeay32:b_print.obj
 0001:00007a3c       $LN139                     10008a3c     libeay32:b_print.obj
 0001:00007a54       $LN118                     10008a54     libeay32:b_print.obj
 0001:00007a68       $LN140                     10008a68     libeay32:b_print.obj
 0001:00007a7c       $LN119                     10008a7c     libeay32:b_print.obj
 0001:00007aa4       $LN141                     10008aa4     libeay32:b_print.obj
 0001:00007ad4       $LN120                     10008ad4     libeay32:b_print.obj
 0001:00007b30       _doapr_outch               10008b30 f   libeay32:b_print.obj
 0001:00007bf0       _fmtfp                     10008bf0 f   libeay32:b_print.obj
 0001:00008000       _fmtint                    10009000 f   libeay32:b_print.obj
 0001:000082c0       _fmtstr                    100092c0 f   libeay32:b_print.obj
 0001:00008e30       _BN_POOL_finish            10009e30 f   libeay32:bn_ctx.obj
 0001:00008e80       _BN_POOL_get               10009e80 f   libeay32:bn_ctx.obj
 0001:00008f40       _BN_POOL_release           10009f40 f   libeay32:bn_ctx.obj
 0001:00008f80       _BN_STACK_push             10009f80 f   libeay32:bn_ctx.obj
 0001:00009c64       $LN52                      1000ac64     libeay32:bn_mul.obj
 0001:0000a044       $LN43                      1000b044     libeay32:bn_mul.obj
 0001:0000a870       _BN_mod_inverse_no_branch  1000b870 f   libeay32:bn_gcd.obj
 0001:0000ab40       _euclid                    1000bb40 f   libeay32:bn_gcd.obj
 0001:0000b1e0       _int_new_class             1000c1e0 f   libeay32:ex_data.obj
 0001:0000b220       _int_cleanup               1000c220 f   libeay32:ex_data.obj
 0001:0000b270       _int_get_new_index         1000c270 f   libeay32:ex_data.obj
 0001:0000b290       _int_new_ex_data           1000c290 f   libeay32:ex_data.obj
 0001:0000b3d0       _int_dup_ex_data           1000c3d0 f   libeay32:ex_data.obj
 0001:0000b560       _int_free_ex_data          1000c560 f   libeay32:ex_data.obj
 0001:0000b830       _def_add_index             1000c830 f   libeay32:ex_data.obj
 0001:0000b930       _def_cleanup_cb            1000c930 f   libeay32:ex_data.obj
 0001:0000b950       _def_cleanup_util_cb       1000c950 f   libeay32:ex_data.obj
 0001:0000b960       _def_get_class             1000c960 f   libeay32:ex_data.obj
 0001:0000ba60       _err_string_data_LHASH_COMP 1000ca60 f   libeay32:err.obj
 0001:0000ba60       _table_cmp_BSEARCH_CMP_FN  1000ca60 f   libeay32:a_strnid.obj
 0001:0000ba60       _sig_cmp_BSEARCH_CMP_FN    1000ca60 f   libeay32:obj_xref.obj
 0001:0000ba60       _ex_class_item_LHASH_COMP  1000ca60 f   libeay32:ex_data.obj
 0001:0000ba60       _nid_cmp_BSEARCH_CMP_FN    1000ca60 f   libeay32:v3_purp.obj
 0001:0000ba70       _ex_data_check             1000ca70 f   libeay32:ex_data.obj
 0001:0000bad0       _RSA_eay_public_encrypt    1000cad0 f   libeay32:rsa_eay.obj
 0001:0000bd74       $LN38                      1000cd74     libeay32:rsa_eay.obj
 0001:0000bd90       _RSA_eay_private_encrypt   1000cd90 f   libeay32:rsa_eay.obj
 0001:0000c110       _RSA_eay_public_decrypt    1000d110 f   libeay32:rsa_eay.obj
 0001:0000c3e0       _RSA_eay_private_decrypt   1000d3e0 f   libeay32:rsa_eay.obj
 0001:0000c738       $LN53                      1000d738     libeay32:rsa_eay.obj
 0001:0000c750       _RSA_eay_mod_exp           1000d750 f   libeay32:rsa_eay.obj
 0001:0000cc40       _RSA_eay_init              1000dc40 f   libeay32:rsa_eay.obj
 0001:0000cc50       _RSA_eay_finish            1000dc50 f   libeay32:rsa_eay.obj
 0001:0000cca0       _rsa_blinding_convert      1000dca0 f   libeay32:rsa_eay.obj
 0001:0000cd10       _rsa_get_blinding          1000dd10 f   libeay32:rsa_eay.obj
 0001:0000d27c       $LN17                      1000e27c     libeay32:mem_dbg.obj
 0001:0000d5b0       _app_info_LHASH_HASH       1000e5b0 f   libeay32:mem_dbg.obj
 0001:0000d5f0       _pop_info                  1000e5f0 f   libeay32:mem_dbg.obj
 0001:0000d820       _contract                  1000e820 f   libeay32:lhash.obj
 0001:0000d8c0       _doall_util_fn             1000e8c0 f   libeay32:lhash.obj
 0001:0000d920       _expand                    1000e920 f   libeay32:lhash.obj
 0001:0000d9f0       _getrn                     1000e9f0 f   libeay32:lhash.obj
 0001:0000f750       _internal_find             10010750 f   libeay32:stack.obj
 0001:000104a0       _bn_rand_range             100114a0 f   libeay32:bn_rand.obj
 0001:00010620       _bnrand                    10011620 f   libeay32:bn_rand.obj
 0001:00011b50       _MOD_EXP_CTIME_COPY_FROM_PREBUF 10012b50 f   libeay32:bn_exp.obj
 0001:00011d90       _MOD_EXP_CTIME_COPY_TO_PREBUF 10012d90 f   libeay32:bn_exp.obj
 0001:00011de0       _ssleay_rand_cleanup       10012de0 f   libeay32:md_rand.obj
 0001:00011e40       _ssleay_rand_seed          10012e40 f   libeay32:md_rand.obj
 0001:00011e70       _ssleay_rand_add           10012e70 f   libeay32:md_rand.obj
 0001:000121f0       _ssleay_rand_nopseudo_bytes 100131f0 f   libeay32:md_rand.obj
 0001:00012210       _ssleay_rand_pseudo_bytes  10013210 f   libeay32:md_rand.obj
 0001:00012230       _ssleay_rand_status        10013230 f   libeay32:md_rand.obj
 0001:00012cd0       _BN_from_montgomery_word   10013cd0 f   libeay32:bn_mont.obj
 0001:000142c0       _int_cb_LHASH_DOALL_ARG    100152c0 f   libeay32:eng_table.obj
 0001:00014d20       _obj_cmp                   10015d20 f   libeay32:obj_dat.obj
 0001:00015f20       _readtimer                 10016f20 f   libeay32:rand_win.obj
 0001:00016530       _init                      10017530 f   libeay32:m_sha1.obj
 0001:00016540       _update                    10017540 f   libeay32:m_sha1.obj
 0001:00016560       _final                     10017560 f   libeay32:m_sha1.obj
 0001:00016580       _init224                   10017580 f   libeay32:m_sha1.obj
 0001:00016590       _init256                   10017590 f   libeay32:m_sha1.obj
 0001:000165a0       _update256                 100175a0 f   libeay32:m_sha1.obj
 0001:000165c0       _final256                  100175c0 f   libeay32:m_sha1.obj
 0001:000165e0       _init384                   100175e0 f   libeay32:m_sha1.obj
 0001:000165f0       _init512                   100175f0 f   libeay32:m_sha1.obj
 0001:00016600       _update512                 10017600 f   libeay32:m_sha1.obj
 0001:00016620       _final512                  10017620 f   libeay32:m_sha1.obj
 0001:000168c0       $LN21                      100178c0     libeay32:evp_lib.obj
 0001:000168d0       $LN18                      100178d0     libeay32:evp_lib.obj
 0001:00016974       $LN22                      10017974     libeay32:evp_lib.obj
 0001:00016988       $LN19                      10017988     libeay32:evp_lib.obj
 0001:00016d50       _look_str_cb               10017d50 f   libeay32:tb_asnmth.obj
 0001:00017760       _ex_class_item_LHASH_HASH  10018760 f   libeay32:ex_data.obj
 0001:00017bb0       _asn1_get_length           10018bb0 f   libeay32:asn1_lib.obj
 0001:00018150       _int_ctx_new               10019150 f   libeay32:pmeth_lib.obj
 0001:000188f0       _rsa_check_digestinfo      100198f0 f   libeay32:rsa_sign.obj
 0001:00018c10       _sha1_block_data_order     10019c10 f   libeay32:sha1dgst.obj
 0001:0001a5c0       _sha256_block_data_order   1001b5c0 f   libeay32:sha256.obj
 0001:0001be70       _sha512_block_data_order   1001ce70 f   libeay32:sha512.obj
 0001:0001c8a0       _pmeth_cmp_BSEARCH_CMP_FN  1001d8a0 f   libeay32:pmeth_lib.obj
 0001:0001c8a0       _ext_cmp_BSEARCH_CMP_FN    1001d8a0 f   libeay32:v3_lib.obj
 0001:0001c8a0       _ameth_cmp_BSEARCH_CMP_FN  1001d8a0 f   libeay32:ameth_lib.obj
 0001:0001c8c0       _pkey_rsa_init             1001d8c0 f   libeay32:rsa_pmeth.obj
 0001:0001c930       _pkey_rsa_copy             1001d930 f   libeay32:rsa_pmeth.obj
 0001:0001c9c0       _pkey_rsa_cleanup          1001d9c0 f   libeay32:rsa_pmeth.obj
 0001:0001ca10       _pkey_rsa_sign             1001da10 f   libeay32:rsa_pmeth.obj
 0001:0001cbf0       _pkey_rsa_verifyrecover    1001dbf0 f   libeay32:rsa_pmeth.obj
 0001:0001cd50       _pkey_rsa_verify           1001dd50 f   libeay32:rsa_pmeth.obj
 0001:0001cf10       _pkey_rsa_encrypt          1001df10 f   libeay32:rsa_pmeth.obj
 0001:0001cfd0       _pkey_rsa_decrypt          1001dfd0 f   libeay32:rsa_pmeth.obj
 0001:0001d090       _pkey_rsa_ctrl             1001e090 f   libeay32:rsa_pmeth.obj
 0001:0001d37c       $LN60                      1001e37c     libeay32:rsa_pmeth.obj
 0001:0001d38c       $LN52                      1001e38c     libeay32:rsa_pmeth.obj
 0001:0001d398       $LN61                      1001e398     libeay32:rsa_pmeth.obj
 0001:0001d3d0       _pkey_rsa_ctrl_str         1001e3d0 f   libeay32:rsa_pmeth.obj
 0001:0001d890       _pkey_rsa_keygen           1001e890 f   libeay32:rsa_pmeth.obj
 0001:0001d940       _check_padding_md          1001e940 f   libeay32:rsa_pmeth.obj
 0001:0001d9c0       _setup_tbuf                1001e9c0 f   libeay32:rsa_pmeth.obj
 0001:0001da10       _pkey_dh_ctrl_str          1001ea10 f   libeay32:dh_pmeth.obj
 0001:0001dbd0       _pkey_dh_paramgen          1001ebd0 f   libeay32:dh_pmeth.obj
 0001:0001dcf0       _pkey_dh_keygen            1001ecf0 f   libeay32:dh_pmeth.obj
 0001:0001dd60       _pkey_dh_derive            1001ed60 f   libeay32:dh_pmeth.obj
 0001:0001dec0       _pkey_dh_init              1001eec0 f   libeay32:dh_pmeth.obj
 0001:0001df40       _pkey_dh_copy              1001ef40 f   libeay32:dh_pmeth.obj
 0001:0001dfd0       _pkey_dh_cleanup           1001efd0 f   libeay32:dh_pmeth.obj
 0001:0001e010       _pkey_dh_ctrl              1001f010 f   libeay32:dh_pmeth.obj
 0001:0001e19c       $LN38                      1001f19c     libeay32:dh_pmeth.obj
 0001:0001e1d0       _dsa_dh_generate           1001f1d0 f   libeay32:dh_pmeth.obj
 0001:0001e2a0       _pkey_dsa_copy             1001f2a0 f   libeay32:dsa_pmeth.obj
 0001:0001e310       _pkey_dsa_cleanup          1001f310 f   libeay32:dsa_pmeth.obj
 0001:0001e330       _pkey_dsa_sign             1001f330 f   libeay32:dsa_pmeth.obj
 0001:0001e390       _pkey_dsa_verify           1001f390 f   libeay32:dsa_pmeth.obj
 0001:0001e3e0       _pkey_dsa_ctrl             1001f3e0 f   libeay32:dsa_pmeth.obj
 0001:0001e574       $LN23                      1001f574     libeay32:dsa_pmeth.obj
 0001:0001e588       $LN18                      1001f588     libeay32:dsa_pmeth.obj
 0001:0001e5a0       _pkey_dsa_ctrl_str         1001f5a0 f   libeay32:dsa_pmeth.obj
 0001:0001e6b0       _pkey_dsa_paramgen         1001f6b0 f   libeay32:dsa_pmeth.obj
 0001:0001e740       _pkey_dsa_keygen           1001f740 f   libeay32:dsa_pmeth.obj
 0001:0001e7a0       _pkey_dsa_init             1001f7a0 f   libeay32:dsa_pmeth.obj
 0001:0001e7f0       _pkey_ec_init              1001f7f0 f   libeay32:ec_pmeth.obj
 0001:0001e850       _pkey_ec_copy              1001f850 f   libeay32:ec_pmeth.obj
 0001:0001e8f0       _pkey_ec_cleanup           1001f8f0 f   libeay32:ec_pmeth.obj
 0001:0001e940       _pkey_ec_sign              1001f940 f   libeay32:ec_pmeth.obj
 0001:0001e9f0       _pkey_ec_verify            1001f9f0 f   libeay32:ec_pmeth.obj
 0001:0001ea40       _pkey_ec_kdf_derive        1001fa40 f   libeay32:ec_pmeth.obj
 0001:0001eb20       _pkey_ec_ctrl              1001fb20 f   libeay32:ec_pmeth.obj
 0001:0001ee08       $LN52                      1001fe08     libeay32:ec_pmeth.obj
 0001:0001ee18       $LN47                      1001fe18     libeay32:ec_pmeth.obj
 0001:0001ee28       $LN53                      1001fe28     libeay32:ec_pmeth.obj
 0001:0001ee60       _pkey_ec_ctrl_str          1001fe60 f   libeay32:ec_pmeth.obj
 0001:0001f0b0       _pkey_ec_paramgen          100200b0 f   libeay32:ec_pmeth.obj
 0001:0001f130       _pkey_ec_keygen            10020130 f   libeay32:ec_pmeth.obj
 0001:0001f1d0       _pkey_ec_derive            100201d0 f   libeay32:ec_pmeth.obj
 0001:0001f280       _pkey_hmac_init            10020280 f   libeay32:hm_pmeth.obj
 0001:0001f2e0       _pkey_hmac_copy            100202e0 f   libeay32:hm_pmeth.obj
 0001:0001f360       _pkey_hmac_cleanup         10020360 f   libeay32:hm_pmeth.obj
 0001:0001f3b0       _pkey_hmac_keygen          100203b0 f   libeay32:hm_pmeth.obj
 0001:0001f3f0       _hmac_signctx_init         100203f0 f   libeay32:hm_pmeth.obj
 0001:0001f430       _hmac_signctx              10020430 f   libeay32:hm_pmeth.obj
 0001:0001f490       _pkey_hmac_ctrl            10020490 f   libeay32:hm_pmeth.obj
 0001:0001f510       _pkey_hmac_ctrl_str        10020510 f   libeay32:hm_pmeth.obj
 0001:0001f610       _int_update                10020610 f   libeay32:hm_pmeth.obj
 0001:0001f640       _pkey_cmac_init            10020640 f   libeay32:cm_pmeth.obj
 0001:0001f660       _pkey_cmac_copy            10020660 f   libeay32:cm_pmeth.obj
 0001:0001f6a0       _pkey_cmac_cleanup         100206a0 f   libeay32:cm_pmeth.obj
 0001:0001f6b0       _pkey_cmac_keygen          100206b0 f   libeay32:cm_pmeth.obj
 0001:0001f700       _cmac_signctx_init         10020700 f   libeay32:cm_pmeth.obj
 0001:0001f730       _cmac_signctx              10020730 f   libeay32:cm_pmeth.obj
 0001:0001f750       _pkey_cmac_ctrl            10020750 f   libeay32:cm_pmeth.obj
 0001:0001f7d0       _pkey_cmac_ctrl_str        100207d0 f   libeay32:cm_pmeth.obj
 0001:0001f950       _int_update                10020950 f   libeay32:cm_pmeth.obj
 0001:0001fd10       _pkey_set_type             10020d10 f   libeay32:p_lib.obj
 0001:0001ff84       $LN29                      10020f84     libeay32:tasn_fre.obj
 0001:0001ff98       $LN22                      10020f98     libeay32:tasn_fre.obj
 0001:00020040       _asn1_item_combine_free    10021040 f   libeay32:tasn_fre.obj
 0001:00020204       $LN43                      10021204     libeay32:tasn_fre.obj
 0001:00020c30       _rsa_sig_print             10021c30 f   libeay32:rsa_ameth.obj
 0001:00020ce0       _rsa_pkey_ctrl             10021ce0 f   libeay32:rsa_ameth.obj
 0001:00020de8       $LN22                      10021de8     libeay32:rsa_ameth.obj
 0001:00020e10       _rsa_item_verify           10021e10 f   libeay32:rsa_ameth.obj
 0001:00020e70       _rsa_item_sign             10021e70 f   libeay32:rsa_ameth.obj
 0001:00020f20       _rsa_pub_encode            10021f20 f   libeay32:rsa_ameth.obj
 0001:00020f90       _rsa_pub_decode            10021f90 f   libeay32:rsa_ameth.obj
 0001:00021010       _rsa_pub_cmp               10022010 f   libeay32:rsa_ameth.obj
 0001:00021060       _old_rsa_priv_decode       10022060 f   libeay32:rsa_ameth.obj
 0001:000210b0       _old_rsa_priv_encode       100220b0 f   libeay32:rsa_ameth.obj
 0001:000210d0       _rsa_priv_encode           100220d0 f   libeay32:rsa_ameth.obj
 0001:00021150       _rsa_priv_decode           10022150 f   libeay32:rsa_ameth.obj
 0001:000211d0       _int_rsa_size              100221d0 f   libeay32:rsa_ameth.obj
 0001:000211e0       _rsa_bits                  100221e0 f   libeay32:rsa_ameth.obj
 0001:00021200       _int_rsa_free              10022200 f   libeay32:rsa_ameth.obj
 0001:00021210       _rsa_pub_print             10022210 f   libeay32:rsa_ameth.obj
 0001:00021230       _rsa_priv_print            10022230 f   libeay32:rsa_ameth.obj
 0001:00021250       _do_rsa_print              10022250 f   libeay32:rsa_ameth.obj
 0001:00021540       _rsa_algor_to_md           10022540 f   libeay32:rsa_ameth.obj
 0001:00021590       _rsa_cms_decrypt           10022590 f   libeay32:rsa_ameth.obj
 0001:000217c0       _rsa_cms_encrypt           100227c0 f   libeay32:rsa_ameth.obj
 0001:000219c0       _rsa_cms_sign              100229c0 f   libeay32:rsa_ameth.obj
 0001:00021a70       _rsa_cms_verify            10022a70 f   libeay32:rsa_ameth.obj
 0001:00021b00       _rsa_ctx_to_pss            10022b00 f   libeay32:rsa_ameth.obj
 0001:00021c80       _rsa_md_to_algor           10022c80 f   libeay32:rsa_ameth.obj
 0001:00021cc0       _rsa_md_to_mgf1            10022cc0 f   libeay32:rsa_ameth.obj
 0001:00021d90       _rsa_mgf1_decode           10022d90 f   libeay32:rsa_ameth.obj
 0001:00021de0       _rsa_mgf1_to_md            10022de0 f   libeay32:rsa_ameth.obj
 0001:00021e90       _rsa_oaep_decode           10022e90 f   libeay32:rsa_ameth.obj
 0001:00021ef0       _rsa_pss_decode            10022ef0 f   libeay32:rsa_ameth.obj
 0001:00021f50       _rsa_pss_param_print       10022f50 f   libeay32:rsa_ameth.obj
 0001:00022160       _rsa_pss_to_ctx            10023160 f   libeay32:rsa_ameth.obj
 0001:000223a0       _dsa_pub_decode            100233a0 f   libeay32:dsa_ameth.obj
 0001:00022520       _dsa_pub_encode            10023520 f   libeay32:dsa_ameth.obj
 0001:00022610       _dsa_priv_decode           10023610 f   libeay32:dsa_ameth.obj
 0001:00022880       _dsa_priv_encode           10023880 f   libeay32:dsa_ameth.obj
 0001:000229a0       _int_dsa_size              100239a0 f   libeay32:dsa_ameth.obj
 0001:000229b0       _dsa_bits                  100239b0 f   libeay32:dsa_ameth.obj
 0001:000229d0       _dsa_missing_parameters    100239d0 f   libeay32:dsa_ameth.obj
 0001:00022a00       _dsa_copy_parameters       10023a00 f   libeay32:dsa_ameth.obj
 0001:00022ab0       _dsa_cmp_parameters        10023ab0 f   libeay32:dsa_ameth.obj
 0001:00022b10       _dsa_pub_cmp               10023b10 f   libeay32:dsa_ameth.obj
 0001:00022b40       _int_dsa_free              10023b40 f   libeay32:dsa_ameth.obj
 0001:00022b50       _dsa_param_decode          10023b50 f   libeay32:dsa_ameth.obj
 0001:00022ba0       _dsa_param_encode          10023ba0 f   libeay32:dsa_ameth.obj
 0001:00022bc0       _dsa_param_print           10023bc0 f   libeay32:dsa_ameth.obj
 0001:00022be0       _dsa_pub_print             10023be0 f   libeay32:dsa_ameth.obj
 0001:00022c00       _dsa_priv_print            10023c00 f   libeay32:dsa_ameth.obj
 0001:00022c20       _old_dsa_priv_decode       10023c20 f   libeay32:dsa_ameth.obj
 0001:00022c70       _old_dsa_priv_encode       10023c70 f   libeay32:dsa_ameth.obj
 0001:00022c90       _dsa_sig_print             10023c90 f   libeay32:dsa_ameth.obj
 0001:00022df0       _dsa_pkey_ctrl             10023df0 f   libeay32:dsa_ameth.obj
 0001:00022f54       $LN21                      10023f54     libeay32:dsa_ameth.obj
 0001:00022f80       _do_dsa_print              10023f80 f   libeay32:dsa_ameth.obj
 0001:000231b0       _int_dh_free               100241b0 f   libeay32:dh_ameth.obj
 0001:000231c0       _dh_pub_decode             100241c0 f   libeay32:dh_ameth.obj
 0001:00023330       _dh_pub_encode             10024330 f   libeay32:dh_ameth.obj
 0001:00023430       _dh_priv_decode            10024430 f   libeay32:dh_ameth.obj
 0001:00023560       _dh_priv_encode            10024560 f   libeay32:dh_ameth.obj
 0001:00023680       _dh_param_decode           10024680 f   libeay32:dh_ameth.obj
 0001:000236e0       _dh_param_encode           100246e0 f   libeay32:dh_ameth.obj
 0001:00023710       _int_dh_size               10024710 f   libeay32:dh_ameth.obj
 0001:00023720       _dh_bits                   10024720 f   libeay32:dh_ameth.obj
 0001:00023740       _dh_cmp_parameters         10024740 f   libeay32:dh_ameth.obj
 0001:000237b0       _dh_copy_parameters        100247b0 f   libeay32:dh_ameth.obj
 0001:000237e0       _dh_missing_parameters     100247e0 f   libeay32:dh_ameth.obj
 0001:00023800       _dh_pub_cmp                10024800 f   libeay32:dh_ameth.obj
 0001:00023840       _dh_param_print            10024840 f   libeay32:dh_ameth.obj
 0001:00023860       _dh_public_print           10024860 f   libeay32:dh_ameth.obj
 0001:00023880       _dh_private_print          10024880 f   libeay32:dh_ameth.obj
 0001:000238a0       _dh_pkey_ctrl              100248a0 f   libeay32:dh_ameth.obj
 0001:00023920       _dh_cms_decrypt            10024920 f   libeay32:dh_ameth.obj
 0001:000239e0       _dh_cms_encrypt            100249e0 f   libeay32:dh_ameth.obj
 0001:00023d90       _dh_cms_set_peerkey        10024d90 f   libeay32:dh_ameth.obj
 0001:00023f00       _dh_cms_set_shared_info    10024f00 f   libeay32:dh_ameth.obj
 0001:00024150       _do_dh_print               10025150 f   libeay32:dh_ameth.obj
 0001:00024530       _int_dh_bn_cpy             10025530 f   libeay32:dh_ameth.obj
 0001:00024570       _int_dh_param_copy         10025570 f   libeay32:dh_ameth.obj
 0001:00024680       _eckey_pub_encode          10025680 f   libeay32:ec_ameth.obj
 0001:00024780       _eckey_pub_decode          10025780 f   libeay32:ec_ameth.obj
 0001:00024880       _eckey_pub_cmp             10025880 f   libeay32:ec_ameth.obj
 0001:000248f0       _eckey_priv_decode         100258f0 f   libeay32:ec_ameth.obj
 0001:00024ab0       _eckey_priv_encode         10025ab0 f   libeay32:ec_ameth.obj
 0001:00024c30       _int_ec_size               10025c30 f   libeay32:ec_ameth.obj
 0001:00024c40       _ec_bits                   10025c40 f   libeay32:ec_ameth.obj
 0001:00024c90       _ec_missing_parameters     10025c90 f   libeay32:ec_ameth.obj
 0001:00024cc0       _ec_copy_parameters        10025cc0 f   libeay32:ec_ameth.obj
 0001:00024d10       _ec_cmp_parameters         10025d10 f   libeay32:ec_ameth.obj
 0001:00024d50       _int_ec_free               10025d50 f   libeay32:ec_ameth.obj
 0001:00024d60       _eckey_param_decode        10025d60 f   libeay32:ec_ameth.obj
 0001:00024db0       _eckey_param_encode        10025db0 f   libeay32:ec_ameth.obj
 0001:00024dd0       _eckey_param_print         10025dd0 f   libeay32:ec_ameth.obj
 0001:00024df0       _eckey_pub_print           10025df0 f   libeay32:ec_ameth.obj
 0001:00024e10       _eckey_priv_print          10025e10 f   libeay32:ec_ameth.obj
 0001:00024e30       _old_ec_priv_decode        10025e30 f   libeay32:ec_ameth.obj
 0001:00024e80       _old_ec_priv_encode        10025e80 f   libeay32:ec_ameth.obj
 0001:00024ea0       _ec_pkey_ctrl              10025ea0 f   libeay32:ec_ameth.obj
 0001:00025034       $LN26                      10026034     libeay32:ec_ameth.obj
 0001:00025060       _do_EC_KEY_print           10026060 f   libeay32:ec_ameth.obj
 0001:000252e0       _ecdh_cms_decrypt          100262e0 f   libeay32:ec_ameth.obj
 0001:000253a0       _ecdh_cms_encrypt          100263a0 f   libeay32:ec_ameth.obj
 0001:00025750       _ecdh_cms_set_kdf_param    10026750 f   libeay32:ec_ameth.obj
 0001:00025820       _ecdh_cms_set_peerkey      10026820 f   libeay32:ec_ameth.obj
 0001:00025960       _ecdh_cms_set_shared_info  10026960 f   libeay32:ec_ameth.obj
 0001:00025b20       _eckey_param2type          10026b20 f   libeay32:ec_ameth.obj
 0001:00025c00       _eckey_type2param          10026c00 f   libeay32:ec_ameth.obj
 0001:00025ce0       _hmac_size                 10026ce0 f   libeay32:hm_ameth.obj
 0001:00025cf0       _hmac_key_free             10026cf0 f   libeay32:hm_ameth.obj
 0001:00025d20       _hmac_pkey_ctrl            10026d20 f   libeay32:hm_ameth.obj
 0001:00025d40       _old_hmac_decode           10026d40 f   libeay32:hm_ameth.obj
 0001:00025d90       _old_hmac_encode           10026d90 f   libeay32:hm_ameth.obj
 0001:00025de0       _cmac_size                 10026de0 f   libeay32:cm_ameth.obj
 0001:00025df0       _cmac_key_free             10026df0 f   libeay32:cm_ameth.obj
 0001:00025e30       _rsa_builtin_keygen        10026e30 f   libeay32:rsa_gen.obj
 0001:00027610       _ipv4_from_asc             10028610 f   libeay32:v3_utl.obj
 0001:000276a0       _ipv6_cb                   100286a0 f   libeay32:v3_utl.obj
 0001:00027730       _ipv6_from_asc             10028730 f   libeay32:v3_utl.obj
 0001:000278a0       _ipv6_hex                  100288a0 f   libeay32:v3_utl.obj
 0001:00027c30       _strip_spaces              10028c30 f   libeay32:v3_utl.obj
 0001:00027ce0       _trans_cb                  10028ce0 f   libeay32:pmeth_gn.obj
 0001:00027fe0       _dh_builtin_genparams      10028fe0 f   libeay32:dh_gen.obj
 0001:00028180       _generate_key              10029180 f   libeay32:dh_key.obj
 0001:00028350       _compute_key               10029350 f   libeay32:dh_key.obj
 0001:000284a0       _dh_bn_mod_exp             100294a0 f   libeay32:dh_key.obj
 0001:00028500       _dh_init                   10029500 f   libeay32:dh_key.obj
 0001:00028510       _dh_finish                 10029510 f   libeay32:dh_key.obj
 0001:000288d0       _dh_sharedinfo_encode      100298d0 f   libeay32:dh_kdf.obj
 0001:00028a20       _skip_asn1                 10029a20 f   libeay32:dh_kdf.obj
 0001:00029ee0       _sig_cb                    1002aee0 f   libeay32:dsa_asn1.obj
 0001:00029f40       _dsa_cb                    1002af40 f   libeay32:dsa_asn1.obj
 0001:0002a1f0       _dsa_builtin_keygen        1002b1f0 f   libeay32:dsa_key.obj
 0001:0002c1c0       _ECDSA_DATA_new_method     1002d1c0 f   libeay32:ecs_lib.obj
 0001:0002c3a0       _ecdsa_data_dup            1002d3a0 f   libeay32:ecs_lib.obj
 0001:0002c3c0       _ecdsa_data_free           1002d3c0 f   libeay32:ecs_lib.obj
 0001:0002d080       _make_kn                   1002e080 f   libeay32:cmac.obj
 0001:0002d1d0       _obj_name_LHASH_COMP       1002e1d0 f   libeay32:o_names.obj
 0001:0002d1e0       _obj_name_LHASH_HASH       1002e1e0 f   libeay32:o_names.obj
 0001:0002d240       _obj_name_cmp              1002e240 f   libeay32:o_names.obj
 0001:0002d440       _sigx_cmp_BSEARCH_CMP_FN   1002e440 f   libeay32:obj_xref.obj
 0001:0002d700       _pbe2_cmp_BSEARCH_CMP_FN   1002e700 f   libeay32:evp_pbe.obj
 0001:0002dae0       $LN21                      1002eae0     libeay32:tasn_new.obj
 0001:0002daf4       $LN18                      1002eaf4     libeay32:tasn_new.obj
 0001:0002dbb0       _asn1_item_clear           1002ebb0 f   libeay32:tasn_new.obj
 0001:0002dc18       $LN25                      1002ec18     libeay32:tasn_new.obj
 0001:0002dc40       _asn1_item_ex_combine_new  1002ec40 f   libeay32:tasn_new.obj
 0001:0002de54       $LN47                      1002ee54     libeay32:tasn_new.obj
 0001:0002de70       _asn1_primitive_clear      1002ee70 f   libeay32:tasn_new.obj
 0001:0002e6cc       $LN122                     1002f6cc     libeay32:tasn_dec.obj
 0001:0002e710       _asn1_check_eoc            1002f710 f   libeay32:tasn_dec.obj
 0001:0002e740       _asn1_check_tlen           1002f740 f   libeay32:tasn_dec.obj
 0001:0002e900       _asn1_collect              1002f900 f   libeay32:tasn_dec.obj
 0001:0002eb80       _asn1_d2i_ex_primitive     1002fb80 f   libeay32:tasn_dec.obj
 0001:0002f184       $LN40                      10030184     libeay32:tasn_dec.obj
 0001:0002f1b0       _asn1_find_end             100301b0 f   libeay32:tasn_dec.obj
 0001:0002f2e0       _asn1_template_ex_d2i      100302e0 f   libeay32:tasn_dec.obj
 0001:0002f460       _asn1_template_noexp_d2i   10030460 f   libeay32:tasn_dec.obj
 0001:0002fa70       $LN57                      10030a70     libeay32:tasn_enc.obj
 0001:0002fbec       $LN30                      10030bec     libeay32:tasn_enc.obj
 0001:0002fc20       _asn1_i2d_ex_primitive     10030c20 f   libeay32:tasn_enc.obj
 0001:0002fd10       _asn1_item_flags_i2d       10030d10 f   libeay32:tasn_enc.obj
 0001:0002fda0       _asn1_set_seq_out          10030da0 f   libeay32:tasn_enc.obj
 0001:0002ff90       _asn1_template_ex_i2d      10030f90 f   libeay32:tasn_enc.obj
 0001:00030280       _der_cmp                   10031280 f   libeay32:tasn_enc.obj
 0001:00030ee0       _do_sigver_init            10031ee0 f   libeay32:m_sigver.obj
 0001:00031020       _rsa_cb                    10032020 f   libeay32:rsa_asn1.obj
 0001:00031364       $LN15                      10032364     libeay32:pk7_lib.obj
 0001:000317d0       _pkey_cb                   100327d0 f   libeay32:p8_pkey.obj
 0001:00031920       _pubkey_cb                 10032920 f   libeay32:x_pubkey.obj
 0001:00031bc0       $LN12                      10032bc0     libeay32:cms_env.obj
 0001:00031d30       _cms_RecipientInfo_kekri_encrypt 10032d30 f   libeay32:cms_env.obj
 0001:00031ea0       _cms_RecipientInfo_ktri_encrypt 10032ea0 f   libeay32:cms_env.obj
 0001:000320a0       _cms_env_set_originfo_version 100330a0 f   libeay32:cms_env.obj
 0001:00032130       _cms_env_set_version       10033130 f   libeay32:cms_env.obj
 0001:00032590       _cms_SignerInfo_content_sign 10033590 f   libeay32:cms_sd.obj
 0001:00032800       _cms_sd_asn1_ctrl          10033800 f   libeay32:cms_sd.obj
 0001:00032870       _cms_sd_set_version        10033870 f   libeay32:cms_sd.obj
 0001:00033034       $LN45                      10034034     libeay32:evp_enc.obj
 0001:00033be0       _dh_cb                     10034be0 f   libeay32:dh_asn1.obj
 0001:00034070       _cms_kek_cipher            10035070 f   libeay32:cms_kari.obj
 0001:000341d0       _cms_wrap_init             100351d0 f   libeay32:cms_kari.obj
 0001:000348e0       _print_bin                 100358e0 f   libeay32:eck_prn.obj
 0001:00034a70       _X9_62_CHARACTERISTIC_TWO_adb 10035a70 f   libeay32:ec_asn1.obj
 0001:00034a90       _X9_62_FIELDID_adb         10035a90 f   libeay32:ec_asn1.obj
 0001:00034fd0       _ec_asn1_group2curve       10035fd0 f   libeay32:ec_asn1.obj
 0001:000352d0       _ec_asn1_group2fieldid     100362d0 f   libeay32:ec_asn1.obj
 0001:00035540       _ec_asn1_group2parameters  10036540 f   libeay32:ec_asn1.obj
 0001:00035790       _ec_asn1_group2pkparameters 10036790 f   libeay32:ec_asn1.obj
 0001:00035860       _ec_asn1_parameters2group  10036860 f   libeay32:ec_asn1.obj
 0001:00035df0       _ec_asn1_pkparameters2group 10036df0 f   libeay32:ec_asn1.obj
 0001:00036500       _cms_ri_cb                 10037500 f   libeay32:cms_asn1.obj
 0001:000365d0       _CMS_ContentInfo_adb       100375d0 f   libeay32:cms_asn1.obj
 0001:000365e0       _cms_cb                    100375e0 f   libeay32:cms_asn1.obj
 0001:0003664c       $LN17                      1003764c     libeay32:cms_asn1.obj
 0001:000366f0       _cms_si_cb                 100376f0 f   libeay32:cms_asn1.obj
 0001:000367d0       _cms_rek_cb                100377d0 f   libeay32:cms_asn1.obj
 0001:00036830       _cms_kari_cb               10037830 f   libeay32:cms_asn1.obj
 0001:00036fe0       _probable_prime            10037fe0 f   libeay32:bn_prime.obj
 0001:000370c0       _probable_prime_dh         100380c0 f   libeay32:bn_prime.obj
 0001:000371d0       _probable_prime_dh_safe    100381d0 f   libeay32:bn_prime.obj
 0001:00037360       _witness                   10038360 f   libeay32:bn_prime.obj
 0001:000376a0       _do_buf                    100386a0 f   libeay32:a_strex.obj
 0001:00037880       $LN37                      10038880     libeay32:a_strex.obj
 0001:000378a0       _do_dump                   100388a0 f   libeay32:a_strex.obj
 0001:00037970       _do_esc_char               10038970 f   libeay32:a_strex.obj
 0001:00037b30       _do_hex_dump               10038b30 f   libeay32:a_strex.obj
 0001:00037ba0       _do_indent                 10038ba0 f   libeay32:a_strex.obj
 0001:00037be0       _do_name_ex                10038be0 f   libeay32:a_strex.obj
 0001:00037f80       _do_print_ex               10038f80 f   libeay32:a_strex.obj
 0001:00038110       _send_bio_chars            10039110 f   libeay32:a_strex.obj
 0001:000388a0       _i2v_AUTHORITY_INFO_ACCESS 100398a0 f   libeay32:v3_info.obj
 0001:00038a40       _v2i_AUTHORITY_INFO_ACCESS 10039a40 f   libeay32:v3_info.obj
 0001:00038fa0       _dsa_do_sign               10039fa0 f   libeay32:dsa_ossl.obj
 0001:000391e0       _dsa_sign_setup            1003a1e0 f   libeay32:dsa_ossl.obj
 0001:00039420       _dsa_do_verify             1003a420 f   libeay32:dsa_ossl.obj
 0001:000396e0       _dsa_init                  1003a6e0 f   libeay32:dsa_ossl.obj
 0001:000396f0       _dsa_finish                1003a6f0 f   libeay32:dsa_ossl.obj
 0001:00039740       _bn_new                    1003a740 f   libeay32:x_bignum.obj
 0001:00039760       _bn_free                   1003a760 f   libeay32:x_bignum.obj
 0001:000397a0       _bn_i2c                    1003a7a0 f   libeay32:x_bignum.obj
 0001:00039800       _bn_c2i                    1003a800 f   libeay32:x_bignum.obj
 0001:00039870       _bn_print                  1003a870 f   libeay32:x_bignum.obj
 0001:000398d0       _long_new                  1003a8d0 f   libeay32:x_long.obj
 0001:000398f0       _long_free                 1003a8f0 f   libeay32:x_long.obj
 0001:00039900       _long_i2c                  1003a900 f   libeay32:x_long.obj
 0001:00039980       _long_c2i                  1003a980 f   libeay32:x_long.obj
 0001:00039a30       _long_print                1003aa30 f   libeay32:x_long.obj
 0001:00039b00       _compute_wNAF              1003ab00 f   libeay32:ec_mult.obj
 0001:00039ce0       _ec_pre_comp_clear_free    1003ace0 f   libeay32:ec_mult.obj
 0001:00039d50       _ec_pre_comp_dup           1003ad50 f   libeay32:ec_mult.obj
 0001:00039d80       _ec_pre_comp_free          1003ad80 f   libeay32:ec_mult.obj
 0001:00039de0       _ec_pre_comp_new           1003ade0 f   libeay32:ec_mult.obj
 0001:0003adf0       _ecdsa_do_sign             1003bdf0 f   libeay32:ecs_ossl.obj
 0001:0003b100       _ecdsa_sign_setup          1003c100 f   libeay32:ecs_ossl.obj
 0001:0003b4b0       _ecdsa_do_verify           1003c4b0 f   libeay32:ecs_ossl.obj
 0001:0003b910       _ECDH_DATA_new_method      1003c910 f   libeay32:ech_lib.obj
 0001:0003ba50       _ecdh_data_dup             1003ca50 f   libeay32:ech_lib.obj
 0001:0003ba70       _ecdh_data_free            1003ca70 f   libeay32:ech_lib.obj
 0001:0003ca20       _ri_cb                     1003da20 f   libeay32:pk7_asn1.obj
 0001:0003cae0       _PKCS7_adb                 1003dae0 f   libeay32:pk7_asn1.obj
 0001:0003caf0       _pk7_cb                    1003daf0 f   libeay32:pk7_asn1.obj
 0001:0003cb54       $LN13                      1003db54     libeay32:pk7_asn1.obj
 0001:0003cb70       _si_cb                     1003db70 f   libeay32:pk7_asn1.obj
 0001:0003cba0       _x509_name_ex_print        1003dba0 f   libeay32:x_name.obj
 0001:0003cbf0       _x509_name_ex_d2i          1003dbf0 f   libeay32:x_name.obj
 0001:0003cdb0       _x509_name_ex_i2d          1003ddb0 f   libeay32:x_name.obj
 0001:0003ce00       _x509_name_ex_new          1003de00 f   libeay32:x_name.obj
 0001:0003ce90       _x509_name_ex_free         1003de90 f   libeay32:x_name.obj
 0001:0003cf90       _asn1_string_canon         1003df90 f   libeay32:x_name.obj
 0001:0003d0d0       _i2d_name_canon            1003e0d0 f   libeay32:x_name.obj
 0001:0003d130       _local_sk_X509_NAME_ENTRY_free 1003e130 f   libeay32:x_name.obj
 0001:0003d140       _local_sk_X509_NAME_ENTRY_pop_free 1003e140 f   libeay32:x_name.obj
 0001:0003d160       _x509_name_canon           1003e160 f   libeay32:x_name.obj
 0001:0003d2f0       _x509_name_encode          1003e2f0 f   libeay32:x_name.obj
 0001:0003d460       _x509_cb                   1003e460 f   libeay32:x_x509.obj
 0001:0003d5b0       _def_crl_verify            1003e5b0 f   libeay32:x_crl.obj
 0001:0003d5d0       _def_crl_lookup            1003e5d0 f   libeay32:x_crl.obj
 0001:0003d750       _crl_inf_cb                1003e750 f   libeay32:x_crl.obj
 0001:0003d780       _crl_cb                    1003e780 f   libeay32:x_crl.obj
 0001:0003d970       _X509_REVOKED_cmp          1003e970 f   libeay32:x_crl.obj
 0001:0003d990       _crl_set_issuers           1003e990 f   libeay32:x_crl.obj
 0001:0003db00       _setup_idp                 1003eb00 f   libeay32:x_crl.obj
 0001:0003e02c       $LN16                      1003f02c     libeay32:cms_lib.obj
 0001:0003e150       $LN29                      1003f150     libeay32:cms_lib.obj
 0001:0003e204       $LN17                      1003f204     libeay32:cms_lib.obj
 0001:0003eb10       _kek_unwrap_key            1003fb10 f   libeay32:cms_pwri.obj
 0001:0003ec50       _kek_wrap_key              1003fc50 f   libeay32:cms_pwri.obj
 0001:0003f0d0       _check_purpose_ssl_client  100400d0 f   libeay32:v3_purp.obj
 0001:0003f120       _check_purpose_ssl_server  10040120 f   libeay32:v3_purp.obj
 0001:0003f170       _check_purpose_ns_ssl_server 10040170 f   libeay32:v3_purp.obj
 0001:0003f1d0       _check_purpose_smime_sign  100401d0 f   libeay32:v3_purp.obj
 0001:0003f240       _check_purpose_smime_encrypt 10040240 f   libeay32:v3_purp.obj
 0001:0003f2b0       _check_purpose_crl_sign    100402b0 f   libeay32:v3_purp.obj
 0001:0003f2f0       _check_purpose_timestamp_sign 100402f0 f   libeay32:v3_purp.obj
 0001:0003f360       _ocsp_helper               10040360 f   libeay32:v3_purp.obj
 0001:0003f540       _check_ca                  10040540 f   libeay32:v3_purp.obj
 0001:0003f5a0       _setup_crldp               100405a0 f   libeay32:v3_purp.obj
 0001:0003f690       _x509v3_cache_extensions   10040690 f   libeay32:v3_purp.obj
 0001:0003fa6c       $LN68                      10040a6c     libeay32:v3_purp.obj
 0001:0003fb70       _des_ede_init_key          10040b70 f   libeay32:e_des3.obj
 0001:0003fbc0       _des_ede3_init_key         10040bc0 f   libeay32:e_des3.obj
 0001:0003fc10       _des3_ctrl                 10040c10 f   libeay32:e_des3.obj
 0001:0003fc70       _des_ede_ecb_cipher        10040c70 f   libeay32:e_des3.obj
 0001:0003fce0       _des_ede_ofb_cipher        10040ce0 f   libeay32:e_des3.obj
 0001:0003fd80       _des_ede_cbc_cipher        10040d80 f   libeay32:e_des3.obj
 0001:0003fe60       _des_ede_cfb64_cipher      10040e60 f   libeay32:e_des3.obj
 0001:0003ff10       _des_ede3_cfb1_cipher      10040f10 f   libeay32:e_des3.obj
 0001:00040000       _des_ede3_cfb8_cipher      10041000 f   libeay32:e_des3.obj
 0001:000400a0       _des_ede3_wrap_cipher      100410a0 f   libeay32:e_des3.obj
 0001:000400f0       _des_ede3_unwrap           100410f0 f   libeay32:e_des3.obj
 0001:00040280       _des_ede3_wrap             10041280 f   libeay32:e_des3.obj
 0001:00040380       _aes_init_key              10041380 f   libeay32:e_aes.obj
 0001:00040440       _aes_cbc_cipher            10041440 f   libeay32:e_aes.obj
 0001:000404c0       _aes_ecb_cipher            100414c0 f   libeay32:e_aes.obj
 0001:00040520       _aes_ofb_cipher            10041520 f   libeay32:e_aes.obj
 0001:00040550       _aes_cfb_cipher            10041550 f   libeay32:e_aes.obj
 0001:00040590       _aes_cfb8_cipher           10041590 f   libeay32:e_aes.obj
 0001:000405d0       _aes_cfb1_cipher           100415d0 f   libeay32:e_aes.obj
 0001:000406a0       _aes_ctr_cipher            100416a0 f   libeay32:e_aes.obj
 0001:00040720       _aes_gcm_cleanup           10041720 f   libeay32:e_aes.obj
 0001:00040770       _aes_gcm_ctrl              10041770 f   libeay32:e_aes.obj
 0001:00040b38       $LN56                      10041b38     libeay32:e_aes.obj
 0001:00040b60       $LN53                      10041b60     libeay32:e_aes.obj
 0001:00040b80       _aes_gcm_init_key          10041b80 f   libeay32:e_aes.obj
 0001:00040c60       _aes_gcm_cipher            10041c60 f   libeay32:e_aes.obj
 0001:00040d90       _aes_xts_ctrl              10041d90 f   libeay32:e_aes.obj
 0001:00040e10       _aes_xts_init_key          10041e10 f   libeay32:e_aes.obj
 0001:00040ed0       _aes_xts_cipher            10041ed0 f   libeay32:e_aes.obj
 0001:00040f80       _aes_ccm_ctrl              10041f80 f   libeay32:e_aes.obj
 0001:000410dc       $LN27                      100420dc     libeay32:e_aes.obj
 0001:000410f8       $LN23                      100420f8     libeay32:e_aes.obj
 0001:00041110       _aes_ccm_init_key          10042110 f   libeay32:e_aes.obj
 0001:000411b0       _aes_ccm_cipher            100421b0 f   libeay32:e_aes.obj
 0001:00041410       _aes_wrap_init_key         10042410 f   libeay32:e_aes.obj
 0001:00041480       _aes_wrap_cipher           10042480 f   libeay32:e_aes.obj
 0001:00041550       _aes_gcm_tls_cipher        10042550 f   libeay32:e_aes.obj
 0001:000424fc       $LN71                      100434fc     libeay32:a_mbstr.obj
 0001:00042510       $LN72                      10043510     libeay32:a_mbstr.obj
 0001:00042530       _cpy_asc                   10043530 f   libeay32:a_mbstr.obj
 0001:00042550       _cpy_bmp                   10043550 f   libeay32:a_mbstr.obj
 0001:00042570       _cpy_univ                  10043570 f   libeay32:a_mbstr.obj
 0001:000425a0       _cpy_utf8                  100435a0 f   libeay32:a_mbstr.obj
 0001:000425d0       _out_utf8                  100435d0 f   libeay32:a_mbstr.obj
 0001:000425f0       _traverse_string           100435f0 f   libeay32:a_mbstr.obj
 0001:000426d0       _type_str                  100436d0 f   libeay32:a_mbstr.obj
 0001:00042770       _init                      10043770 f   libeay32:m_md5.obj
 0001:00042780       _update                    10043780 f   libeay32:m_md5.obj
 0001:000427a0       _final                     100437a0 f   libeay32:m_md5.obj
 0001:00042800       _rinf_cb                   10043800 f   libeay32:x_req.obj
 0001:00042e00       _v2i_subject_alt           10043e00 f   libeay32:v3_alt.obj
 0001:00042f60       _v2i_issuer_alt            10043f60 f   libeay32:v3_alt.obj
 0001:00043310       $LN58                      10044310     libeay32:v3_alt.obj
 0001:000434f4       $LN27                      100444f4     libeay32:v3_alt.obj
 0001:000436f4       $LN33                      100446f4     libeay32:v3_alt.obj
 0001:00043720       _copy_email                10044720 f   libeay32:v3_alt.obj
 0001:00043850       _copy_issuer               10044850 f   libeay32:v3_alt.obj
 0001:00043950       _do_dirname                10044950 f   libeay32:v3_alt.obj
 0001:00043a00       _do_othername              10044a00 f   libeay32:v3_alt.obj
 0001:00043d10       $LN47                      10044d10     libeay32:v3_alt.obj
 0001:00043f20       _i2v_BASIC_CONSTRAINTS     10044f20 f   libeay32:v3_bcons.obj
 0001:00043f70       _v2i_BASIC_CONSTRAINTS     10044f70 f   libeay32:v3_bcons.obj
 0001:000442d0       _v2i_EXTENDED_KEY_USAGE    100452d0 f   libeay32:v3_extku.obj
 0001:000443a0       _i2v_EXTENDED_KEY_USAGE    100453a0 f   libeay32:v3_extku.obj
 0001:00044430       _i2r_PKEY_USAGE_PERIOD     10045430 f   libeay32:v3_pku.obj
 0001:000444e0       _sxnet_i2r                 100454e0 f   libeay32:v3_sxnet.obj
 0001:00044580       _sxnet_v2i                 10045580 f   libeay32:v3_sxnet.obj
 0001:00044810       _i2s_ASN1_IA5STRING        10045810 f   libeay32:v3_ia5.obj
 0001:00044880       _s2i_ASN1_IA5STRING        10045880 f   libeay32:v3_ia5.obj
 0001:00044900       _s2i_skey_id               10045900 f   libeay32:v3_skey.obj
 0001:00044b00       _i2v_AUTHORITY_KEYID       10045b00 f   libeay32:v3_akey.obj
 0001:00044b90       _v2i_AUTHORITY_KEYID       10045b90 f   libeay32:v3_akey.obj
 0001:00044ec0       _s2i_asn1_int              10045ec0 f   libeay32:v3_int.obj
 0001:00044f30       _i2r_object                10045f30 f   libeay32:v3_ocsp.obj
 0001:00044f70       _ocsp_nonce_new            10045f70 f   libeay32:v3_ocsp.obj
 0001:00044f80       _i2d_ocsp_nonce            10045f80 f   libeay32:v3_ocsp.obj
 0001:00044fb0       _d2i_ocsp_nonce            10045fb0 f   libeay32:v3_ocsp.obj
 0001:00045030       _ocsp_nonce_free           10046030 f   libeay32:v3_ocsp.obj
 0001:00045040       _i2r_ocsp_nonce            10046040 f   libeay32:v3_ocsp.obj
 0001:00045080       _no_check                  10046080 f   libeay32:v3_purp.obj
 0001:00045080       _i2r_ocsp_nocheck          10046080 f   libeay32:v3_ocsp.obj
 0001:00045090       _s2i_ocsp_nocheck          10046090 f   libeay32:v3_ocsp.obj
 0001:000450a0       _i2r_ocsp_serviceloc       100460a0 f   libeay32:v3_ocsp.obj
 0001:00045180       _i2r_ocsp_crlid            10046180 f   libeay32:v3_ocsp.obj
 0001:00045270       _i2r_ocsp_acutoff          10046270 f   libeay32:v3_ocsp.obj
 0001:000452b0       _i2r_certpol               100462b0 f   libeay32:v3_cpols.obj
 0001:00045400       _r2i_certpol               10046400 f   libeay32:v3_cpols.obj
 0001:00045670       _POLICYQUALINFO_adb        10046670 f   libeay32:v3_cpols.obj
 0001:00045710       _notice_section            10046710 f   libeay32:v3_cpols.obj
 0001:00045a50       _nref_nos                  10046a50 f   libeay32:v3_cpols.obj
 0001:00045b00       _policy_section            10046b00 f   libeay32:v3_cpols.obj
 0001:00045e40       _print_notice              10046e40 f   libeay32:v3_cpols.obj
 0001:00045f50       _v2i_crld                  10046f50 f   libeay32:v3_crld.obj
 0001:00046100       _i2r_crldp                 10047100 f   libeay32:v3_crld.obj
 0001:000461b0       _dpn_cb                    100471b0 f   libeay32:v3_crld.obj
 0001:00046230       _i2r_idp                   10047230 f   libeay32:v3_crld.obj
 0001:00046310       _v2i_idp                   10047310 f   libeay32:v3_crld.obj
 0001:00046660       _crldp_from_section        10047660 f   libeay32:v3_crld.obj
 0001:00046780       _gnames_from_sectname      10047780 f   libeay32:v3_crld.obj
 0001:00046810       _print_distpoint           10047810 f   libeay32:v3_crld.obj
 0001:000468b0       _print_gens                100478b0 f   libeay32:v3_crld.obj
 0001:00046920       _print_reasons             10047920 f   libeay32:v3_crld.obj
 0001:000469d0       _set_dist_point_name       100479d0 f   libeay32:v3_crld.obj
 0001:00046ba0       _set_reasons               10047ba0 f   libeay32:v3_crld.obj
 0001:00046cc0       _i2r_pci                   10047cc0 f   libeay32:v3_pci.obj
 0001:00046d70       _r2i_pci                   10047d70 f   libeay32:v3_pci.obj
 0001:00047050       _process_pci_value         10048050 f   libeay32:v3_pci.obj
 0001:000475f0       _v2i_POLICY_MAPPINGS       100485f0 f   libeay32:v3_pmaps.obj
 0001:00047750       _i2v_POLICY_MAPPINGS       10048750 f   libeay32:v3_pmaps.obj
 0001:00047840       _i2v_POLICY_CONSTRAINTS    10048840 f   libeay32:v3_pcons.obj
 0001:00047880       _v2i_POLICY_CONSTRAINTS    10048880 f   libeay32:v3_pcons.obj
 0001:00047a10       _v2i_NAME_CONSTRAINTS      10048a10 f   libeay32:v3_ncons.obj
 0001:00047ba0       _i2r_NAME_CONSTRAINTS      10048ba0 f   libeay32:v3_ncons.obj
 0001:00047c20       _do_i2r_name_constraints   10048c20 f   libeay32:v3_ncons.obj
 0001:00047d90       _SCT_LIST_free             10048d90 f   libeay32:v3_scts.obj
 0001:00047db0       _d2i_SCT_LIST              10048db0 f   libeay32:v3_scts.obj
 0001:00048030       _i2r_SCT_LIST              10049030 f   libeay32:v3_scts.obj
 0001:00048220       _SCT_free                  10049220 f   libeay32:v3_scts.obj
 0001:00048250       _timestamp_print           10049250 f   libeay32:v3_scts.obj
 0001:00048330       _conf_lhash_get_string     10049330 f   libeay32:v3_conf.obj
 0001:00048340       _conf_lhash_get_section    10049340 f   libeay32:v3_conf.obj
 0001:00048350       _nconf_get_string          10049350 f   libeay32:v3_conf.obj
 0001:00048360       _nconf_get_section         10049360 f   libeay32:v3_conf.obj
 0001:0004a070       _ecdh_compute_key          1004b070 f   libeay32:ech_ossl.obj
 0001:0004ab50       _PKCS7_bio_add_digest      1004bb50 f   libeay32:pk7_doit.obj
 0001:0004b01c       $LN54                      1004c01c     libeay32:pk7_doit.obj
 0001:0004b488       $LN64                      1004c488     libeay32:pk7_doit.obj
 0001:0004b4a0       _PKCS7_find_digest         1004c4a0 f   libeay32:pk7_doit.obj
 0001:0004b550       _PKCS7_get_octet_string    1004c550 f   libeay32:pk7_doit.obj
 0001:0004b5a0       _add_attribute             1004c5a0 f   libeay32:pk7_doit.obj
 0001:0004b680       _do_pkcs7_signed_attrib    1004c680 f   libeay32:pk7_doit.obj
 0001:0004b750       _get_attribute             1004c750 f   libeay32:pk7_doit.obj
 0001:0004b7e0       _pkcs7_encode_rinfo        1004c7e0 f   libeay32:pk7_doit.obj
 0001:0004bce0       _mem_write                 1004cce0 f   libeay32:bss_mem.obj
 0001:0004bd80       _mem_read                  1004cd80 f   libeay32:bss_mem.obj
 0001:0004be10       _mem_puts                  1004ce10 f   libeay32:bss_mem.obj
 0001:0004be40       _mem_gets                  1004ce40 f   libeay32:bss_mem.obj
 0001:0004bf10       _mem_ctrl                  1004cf10 f   libeay32:bss_mem.obj
 0001:0004c004       $LN24                      1004d004     libeay32:bss_mem.obj
 0001:0004c034       $LN22                      1004d034     libeay32:bss_mem.obj
 0001:0004c0c0       _mem_new                   1004d0c0 f   libeay32:bss_mem.obj
 0001:0004c0f0       _mem_free                  1004d0f0 f   libeay32:bss_mem.obj
 0001:0004c1c0       _null_write                1004d1c0 f   libeay32:bss_null.obj
 0001:0004c1d0       _no_op_initialize          1004d1d0 f   libucrt:wsetlocale.obj
 0001:0004c1d0       _null_gets                 1004d1d0 f   libeay32:bss_null.obj
 0001:0004c1d0       _null_read                 1004d1d0 f   libeay32:bss_null.obj
 0001:0004c1e0       _null_puts                 1004d1e0 f   libeay32:bss_null.obj
 0001:0004c200       _null_ctrl                 1004d200 f   libeay32:bss_null.obj
 0001:0004c224       $LN9                       1004d224     libeay32:bss_null.obj
 0001:0004c22c       $LN7                       1004d22c     libeay32:bss_null.obj
 0001:0004c240       _null_new                  1004d240 f   libeay32:bss_null.obj
 0001:0004c260       _null_free                 1004d260 f   libeay32:bss_null.obj
 0001:0004c280       _md_write                  1004d280 f   libeay32:bio_md.obj
 0001:0004c310       _md_read                   1004d310 f   libeay32:bio_md.obj
 0001:0004c390       _md_gets                   1004d390 f   libeay32:bio_md.obj
 0001:0004c3d0       _md_ctrl                   1004d3d0 f   libeay32:bio_md.obj
 0001:0004c4e8       $LN24                      1004d4e8     libeay32:bio_md.obj
 0001:0004c508       $LN22                      1004d508     libeay32:bio_md.obj
 0001:0004c5a0       _md_new                    1004d5a0 f   libeay32:bio_md.obj
 0001:0004c5d0       _md_free                   1004d5d0 f   libeay32:bio_md.obj
 0001:0004dc00       _enc_write                 1004ec00 f   libeay32:bio_enc.obj
 0001:0004dd80       _enc_read                  1004ed80 f   libeay32:bio_enc.obj
 0001:0004df10       _enc_ctrl                  1004ef10 f   libeay32:bio_enc.obj
 0001:0004e07c       $LN43                      1004f07c     libeay32:bio_enc.obj
 0001:0004e0a0       $LN37                      1004f0a0     libeay32:bio_enc.obj
 0001:0004e130       _enc_new                   1004f130 f   libeay32:bio_enc.obj
 0001:0004e1a0       _enc_free                  1004f1a0 f   libeay32:bio_enc.obj
 0001:0004e310       _date_to_julian            1004f310 f   libeay32:o_time.obj
 0001:0004e3a0       _julian_adj                1004f3a0 f   libeay32:o_time.obj
 0001:0004e440       _julian_to_date            1004f440 f   libeay32:o_time.obj
 0001:0004e870       $LN72                      1004f870     libeay32:a_utctm.obj
 0001:0004ec88       $LN82                      1004fc88     libeay32:a_gentm.obj
 0001:0004ecb0       _trust_1oidany             1004fcb0 f   libeay32:x509_trs.obj
 0001:0004ed00       _trust_1oid                1004fd00 f   libeay32:x509_trs.obj
 0001:0004ed30       _trust_compat              1004fd30 f   libeay32:x509_trs.obj
 0001:0004ed60       _obj_trust                 1004fd60 f   libeay32:x509_trs.obj
 0001:0004f518       $LN43                      10050518     libeay32:des_enc.obj
 0001:0004f538       $LN44                      10050538     libeay32:des_enc.obj
 0001:0005027c       $LN105                     1005127c     libeay32:cfb64ede.obj
 0001:0005029c       $LN106                     1005129c     libeay32:cfb64ede.obj
 0001:000502bc       $LN107                     100512bc     libeay32:cfb64ede.obj
 0001:000502dc       $LN108                     100512dc     libeay32:cfb64ede.obj
 0001:00050f80       _ctr128_inc_aligned        10051f80 f   libeay32:ctr128.obj
 0001:00050fb0       _ctr96_inc                 10051fb0 f   libeay32:ctr128.obj
 0001:000526a0       _gcm_ghash_4bit            100536a0 f   libeay32:gcm128.obj
 0001:000528e0       _gcm_gmult_4bit            100538e0 f   libeay32:gcm128.obj
 0001:00052ae0       _gcm_init_4bit             10053ae0 f   libeay32:gcm128.obj
 0001:000539d0       _ctr64_add                 100549d0 f   libeay32:ccm128.obj
 0001:00054dc0       _def_create                10055dc0 f   libeay32:conf_def.obj
 0001:00054e00       _def_init_default          10055e00 f   libeay32:conf_def.obj
 0001:00054e30       _def_init_WIN32            10055e30 f   libeay32:conf_def.obj
 0001:00054e60       _def_destroy               10055e60 f   libeay32:conf_def.obj
 0001:00054e90       _def_destroy_data          10055e90 f   libeay32:conf_def.obj
 0001:00054eb0       _def_load                  10055eb0 f   libeay32:conf_def.obj
 0001:00054f30       _def_load_bio              10055f30 f   libeay32:conf_def.obj
 0001:00055500       _def_dump                  10056500 f   libeay32:conf_def.obj
 0001:00055520       _def_is_number             10056520 f   libeay32:conf_def.obj
 0001:00055540       _def_to_int                10056540 f   libeay32:conf_def.obj
 0001:00055560       _clear_comments            10056560 f   libeay32:conf_def.obj
 0001:00055690       _dump_value_LHASH_DOALL_ARG 10056690 f   libeay32:conf_def.obj
 0001:000556d0       _eat_alpha_numeric         100566d0 f   libeay32:conf_def.obj
 0001:00055710       _eat_ws                    10056710 f   libeay32:conf_def.obj
 0001:00055740       _str_copy                  10056740 f   libeay32:conf_def.obj
 0001:00055e60       _conf_value_LHASH_COMP     10056e60 f   libeay32:conf_api.obj
 0001:00055e70       _conf_value_LHASH_HASH     10056e70 f   libeay32:conf_api.obj
 0001:00055ea0       _conf_value_cmp            10056ea0 f   libeay32:conf_api.obj
 0001:00055f30       _value_free_hash_LHASH_DOALL_ARG 10056f30 f   libeay32:conf_api.obj
 0001:00055f50       _value_free_stack_LHASH_DOALL 10056f50 f   libeay32:conf_api.obj
 0001:00055f60       _value_free_stack_doall    10056f60 f   libeay32:conf_api.obj
 0001:00056c10       _append_exp                10057c10 f   libeay32:asn1_gen.obj
 0001:00056ce0       _asn1_cb                   10057ce0 f   libeay32:asn1_gen.obj
 0001:00056f4c       $LN48                      10057f4c     libeay32:asn1_gen.obj
 0001:00056f70       _asn1_multi                10057f70 f   libeay32:asn1_gen.obj
 0001:000570c0       _asn1_str2tag              100580c0 f   libeay32:asn1_gen.obj
 0001:00057130       _asn1_str2type             10058130 f   libeay32:asn1_gen.obj
 0001:0005758c       $LN49                      1005858c     libeay32:asn1_gen.obj
 0001:000575ac       $LN43                      100585ac     libeay32:asn1_gen.obj
 0001:000575d0       _bitstr_cb                 100585d0 f   libeay32:asn1_gen.obj
 0001:00057660       _generate_v3               10058660 f   libeay32:asn1_gen.obj
 0001:00057930       _parse_tagging             10058930 f   libeay32:asn1_gen.obj
 0001:00057a74       $LN24                      10058a74     libeay32:asn1_gen.obj
 0001:00057a88       $LN19                      10058a88     libeay32:asn1_gen.obj
 0001:0005ac80       _nist_cp_bn_0              1005bc80 f   libeay32:bn_nist.obj
 0001:0005ace0       _ec_GF2m_montgomery_point_multiply 1005bce0 f   libeay32:ec2_mult.obj
 0001:0005b280       _gf2m_Madd                 1005c280 f   libeay32:ec2_mult.obj
 0001:0005b3b0       _gf2m_Mdouble              1005c3b0 f   libeay32:ec2_mult.obj
 0001:0005b4b0       _gf2m_Mxy                  1005c4b0 f   libeay32:ec2_mult.obj
 0001:0005cb10       _bn_GF2m_mul_1x1           1005db10 f   libeay32:bn_gf2m.obj
 0001:0005d7c0       _asn1_bio_write            1005e7c0 f   libeay32:bio_asn1.obj
 0001:0005d970       $LN41                      1005e970     libeay32:bio_asn1.obj
 0001:0005d990       _asn1_bio_read             1005e990 f   libeay32:bio_asn1.obj
 0001:0005d9b0       _asn1_bio_puts             1005e9b0 f   libeay32:bio_asn1.obj
 0001:0005d9e0       _asn1_bio_gets             1005e9e0 f   libeay32:bio_asn1.obj
 0001:0005da00       _asn1_bio_ctrl             1005ea00 f   libeay32:bio_asn1.obj
 0001:0005db38       $LN27                      1005eb38     libeay32:bio_asn1.obj
 0001:0005db58       $LN22                      1005eb58     libeay32:bio_asn1.obj
 0001:0005dbf0       _asn1_bio_new              1005ebf0 f   libeay32:bio_asn1.obj
 0001:0005dc50       _asn1_bio_free             1005ec50 f   libeay32:bio_asn1.obj
 0001:0005dca0       _b64_callback_ctrl         1005eca0 f   libeay32:bio_b64.obj
 0001:0005dca0       _asn1_bio_callback_ctrl    1005eca0 f   libeay32:bio_asn1.obj
 0001:0005dca0       _buffer_callback_ctrl      1005eca0 f   libeay32:bf_buff.obj
 0001:0005dca0       _md_callback_ctrl          1005eca0 f   libeay32:bio_md.obj
 0001:0005dca0       _enc_callback_ctrl         1005eca0 f   libeay32:bio_enc.obj
 0001:0005dcc0       _asn1_bio_flush_ex         1005ecc0 f   libeay32:bio_asn1.obj
 0001:0005dd60       _asn1_bio_init             1005ed60 f   libeay32:bio_asn1.obj
 0001:0005ddf0       _asn1_bio_setup_ex         1005edf0 f   libeay32:bio_asn1.obj
 0001:0005de40       _buffer_write              1005ee40 f   libeay32:bf_buff.obj
 0001:0005dfd0       _buffer_read               1005efd0 f   libeay32:bf_buff.obj
 0001:0005e0f0       _buffer_puts               1005f0f0 f   libeay32:bf_buff.obj
 0001:0005e120       _buffer_gets               1005f120 f   libeay32:bf_buff.obj
 0001:0005e220       _buffer_ctrl               1005f220 f   libeay32:bf_buff.obj
 0001:0005e550       $LN69                      1005f550     libeay32:bf_buff.obj
 0001:0005e57c       $LN59                      1005f57c     libeay32:bf_buff.obj
 0001:0005e600       _buffer_new                1005f600 f   libeay32:bf_buff.obj
 0001:0005e6c0       _buffer_free               1005f6c0 f   libeay32:bf_buff.obj
 0001:0005e720       _b64_write                 1005f720 f   libeay32:bio_b64.obj
 0001:0005eb10       _b64_read                  1005fb10 f   libeay32:bio_b64.obj
 0001:0005ef10       _b64_puts                  1005ff10 f   libeay32:bio_b64.obj
 0001:0005ef40       _b64_ctrl                  1005ff40 f   libeay32:bio_b64.obj
 0001:0005f0cc       $LN49                      100600cc     libeay32:bio_b64.obj
 0001:0005f0ec       $LN45                      100600ec     libeay32:bio_b64.obj
 0001:0005f160       _b64_new                   10060160 f   libeay32:bio_b64.obj
 0001:0005f1d0       _b64_free                  100601d0 f   libeay32:bio_b64.obj
 0001:0005f7f0       _win32_load                100607f0 f   libeay32:dso_win32.obj
 0001:0005f8f0       _win32_unload              100608f0 f   libeay32:dso_win32.obj
 0001:0005f9a0       _win32_bind_var            100609a0 f   libeay32:dso_win32.obj
 0001:0005fa80       _win32_bind_func           10060a80 f   libeay32:dso_win32.obj
 0001:0005fb60       _win32_name_converter      10060b60 f   libeay32:dso_win32.obj
 0001:0005fc30       _win32_merger              10060c30 f   libeay32:dso_win32.obj
 0001:0005fe00       _win32_pathbyaddr          10060e00 f   libeay32:dso_win32.obj
 0001:0005fff0       _win32_globallookup        10060ff0 f   libeay32:dso_win32.obj
 0001:00060150       _win32_joiner              10061150 f   libeay32:dso_win32.obj
 0001:000603a0       _win32_splitter            100613a0 f   libeay32:dso_win32.obj
 0001:00060560       $LN47                      10061560     libeay32:dso_win32.obj
 0001:00060570       $LN40                      10061570     libeay32:dso_win32.obj
 0001:00060600       _PKCS12_BAGS_adb           10061600 f   libeay32:p12_asn.obj
 0001:00060610       _PKCS12_SAFEBAG_adb        10061610 f   libeay32:p12_asn.obj
 0001:00060870       _read_string               10061870 f   libeay32:ui_openssl.obj
 0001:000609d0       _write_string              100619d0 f   libeay32:ui_openssl.obj
 0001:00060a10       _open_console              10061a10 f   libeay32:ui_openssl.obj
 0001:00060a90       _close_console             10061a90 f   libeay32:ui_openssl.obj
 0001:00060af0       _noecho_fgets              10061af0 f   libeay32:ui_openssl.obj
 0001:00060b50       _popsig                    10061b50 f   libeay32:ui_openssl.obj
 0001:00060bb0       _pushsig                   10061bb0 f   libeay32:ui_openssl.obj
 0001:00060c20       _read_string_inner         10061c20 f   libeay32:ui_openssl.obj
 0001:00060d80       _read_till_nl              10061d80 f   libeay32:ui_openssl.obj
 0001:00060df0       _recsig                    10061df0 f   libeay32:ui_openssl.obj
 0001:000621c1       _memcpy_s                  100631c1 f   libcpmt:cout.obj
 0001:00062604       _tidy_global               10063604 f   libcpmt:locale0.obj
 0001:00062dbc       ?initialize_pointers@@YAHXZ 10063dbc f   libcpmt:winapisupp.obj
 0001:000632f5       ?__scrt_initialize_thread_safe_statics@@YAHXZ 100642f5 f   LIBCMT:thread_safe_statics.obj
 0001:000633b5       ?__scrt_uninitialize_thread_safe_statics@@YAXXZ 100643b5 f   LIBCMT:thread_safe_statics.obj
 0001:00063547       ?find_pe_section@@YAPAU_IMAGE_SECTION_HEADER@@QAEI@Z 10064547 f   LIBCMT:utility.obj
 0001:00063a92       ?dllmain_crt_dispatch@@YGHQAUHINSTANCE__@@KQAX@Z 10064a92 f   LIBCMT:dll_dllmain.obj
 0001:00063ae5       ?dllmain_crt_process_attach@@YAHQAUHINSTANCE__@@QAX@Z 10064ae5 f   LIBCMT:dll_dllmain.obj
 0001:00063bf7       ?dllmain_crt_process_detach@@YAH_N@Z 10064bf7 f   LIBCMT:dll_dllmain.obj
 0001:00063c74       ?dllmain_dispatch@@YAHQAUHINSTANCE__@@KQAX@Z 10064c74 f   LIBCMT:dll_dllmain.obj
 0001:00063d70       ?dllmain_raw@@YGHQAUHINSTANCE__@@KQAX@Z 10064d70 f   LIBCMT:dll_dllmain.obj
 0001:00063dc0       $$000000                   10064dc0     LIBCMT:chkstk.obj
 0001:00063df0       $$000000                   10064df0     LIBCMT:alloca16.obj
 0001:00063e20       $$000000                   10064e20     LIBCMT:ulldvrm.obj
 0001:00063ec0       $$000000                   10064ec0     LIBCMT:ullrem.obj
 0001:00063f40       $$000000                   10064f40     LIBCMT:ulldiv.obj
 0001:00063fb0       $$000000                   10064fb0     LIBCMT:ullshr.obj
 0001:00063fd0       $$000000                   10064fd0     LIBCMT:llmul.obj
 0001:00064470       $$000000                   10065470     LIBCMT:_sehprolg4_.obj
 0001:00064723       __catch$?ConvertBSTRToString@_com_util@@YGPADPA_W@Z$0 10065723 f   comsuppw:comutil.obj
 0001:00064a30       $$000000                   10065a30     libvcruntime:memmove.obj
 0001:00064c94       TrailingUpVec              10065c94     libvcruntime:memmove.obj
 0001:00064d40       TrailingDownVec            10065d40     libvcruntime:memmove.obj
 0001:00064fe0       $$000000                   10065fe0     libvcruntime:memchr.obj
 0001:00065090       $$000000                   10066090     libvcruntime:memcpy.obj
 0001:000652f4       TrailingUpVec              100662f4     libvcruntime:memcpy.obj
 0001:000653a0       TrailingDownVec            100663a0     libvcruntime:memcpy.obj
 0001:00065610       $$000000                   10066610     libvcruntime:memset.obj
 0001:00065770       $$000000                   10066770     libvcruntime:strchr.obj
 0001:00065b20       _ValidateLocalCookies      10066b20 f   libvcruntime:_chandler4_.obj
 0001:00065cd0       $$000000                   10066cd0     libvcruntime:strrchr.obj
 0001:00065e10       $$000000                   10066e10     libvcruntime:strstr.obj
 0001:0006613a       ?CallCatchBlock@@YAPAXPAUEHExceptionRecord@@PAUEHRegistrationNode@@PAU_CONTEXT@@PBU_s_FuncInfo@@PAXHK@Z 1006713a f   libvcruntime:frame.obj
 0001:000662f6       ?CallUnexpected@@YAXPBU_s_ESTypeList@@@Z 100672f6 f   libvcruntime:frame.obj
 0001:00066316       __catch$?CallUnexpected@@YAXPBU_s_ESTypeList@@@Z$0 10067316 f   libvcruntime:frame.obj
 0001:00066330       ?CatchIt@@YAXPAUEHExceptionRecord@@PAUEHRegistrationNode@@PAU_CONTEXT@@PAXPBU_s_FuncInfo@@PBU_s_HandlerType@@PBU_s_CatchableType@@PBU_s_TryBlockMapEntry@@H1E@Z 10067330 f   libvcruntime:frame.obj
 0001:000663ab       ?ExFilterRethrow@@YAHPAU_EXCEPTION_POINTERS@@@Z 100673ab f   libvcruntime:frame.obj
 0001:000663f5       ?FindHandler@@YAXPAUEHExceptionRecord@@PAUEHRegistrationNode@@PAU_CONTEXT@@PAXPBU_s_FuncInfo@@EH1@Z 100673f5 f   libvcruntime:frame.obj
 0001:0006675d       ?FindHandlerForForeignException@@YAXPAUEHExceptionRecord@@PAUEHRegistrationNode@@PAU_CONTEXT@@PAXPBU_s_FuncInfo@@HH1@Z 1006775d f   libvcruntime:frame.obj
 0001:00066878       ?IsInExceptionSpec@@YAEPAUEHExceptionRecord@@PBU_s_ESTypeList@@@Z 10067878 f   libvcruntime:frame.obj
 0001:00066914       ?Is_bad_exception_allowed@@YAEPBU_s_ESTypeList@@@Z 10067914 f   libvcruntime:frame.obj
 0001:0006899e       $LN1281                    1006999e     libvcruntime:_memcmp_.obj
 0001:00068a3b       ?try_get_function@@YAPAXW4function_id@?A0x89697e75@@QBDQBW4module_id@2@2@Z 10069a3b f   libvcruntime:winapi_downlevel.obj
 0001:00068adb       ?try_get_module@@YAPAUHINSTANCE__@@W4module_id@?A0x89697e75@@@Z 10069adb f   libvcruntime:winapi_downlevel.obj
 0001:00068de0       $$000000                   10069de0     libvcruntime:_exsup4_.obj
 0001:00068e70       __unwind_handler4          10069e70 f   libvcruntime:_exsup4_.obj
 0001:000690a0       $$000000                   1006a0a0     libvcruntime:lowhelpr.obj
 0001:00069160       $$000000                   1006a160     libvcruntime:_exsup_.obj
 0001:00069180       __unwind_handler           1006a180 f   libvcruntime:_exsup_.obj
 0001:0006957d       ??$common_vsprintf@Vstandard_base@__crt_stdio_output@@D@@YAH_KQADIQBDQAU__crt_locale_pointers@@1@Z 1006a57d f   libucrt:output.obj
 0001:00069ac3       ??R<lambda_4f2c1eaeead2a5fc776db5b62ea0fb9b>@@QBEHXZ 1006aac3 f   libucrt:output.obj
 0001:00069dbd       $LN54                      1006adbd     libucrt:output.obj
 0001:00069ed9       $LN54                      1006aed9     libucrt:output.obj
 0001:0006a839       $LN19                      1006b839     libucrt:output.obj
 0001:0006b161       ??$common_timespec_get@U_timespec64@@@@YAHQAU_timespec64@@H@Z 1006c161 f   libucrt:time.obj
 0001:0006b230       $$000000                   1006c230     libucrt:strncpy.obj
 0001:0006b8de       ??$common_fsopen@D@@YAPAU_iobuf@@QBD0H@Z 1006c8de f   libucrt:fopen.obj
 0001:0006b99f       ??$common_fsopen@_W@@YAPAU_iobuf@@QB_W0H@Z 1006c99f f   libucrt:fopen.obj
 0001:0006bc90       _common_flush_all          1006cc90 f   libucrt:fflush.obj
 0001:0006bdc1       ??$common_fgets@D@@YAPADQADHV__crt_stdio_stream@@@Z 1006cdc1 f   libucrt:fgets.obj
 0001:0006c1b4       ?common_fseek@@YAHV__crt_stdio_stream@@_JH@Z 1006d1b4 f   libucrt:fseek.obj
 0001:0006c23b       ?common_fseek_binary_mode_read_only_fast_track_nolock@@YA_NV__crt_stdio_stream@@_JH@Z 1006d23b f   libucrt:fseek.obj
 0001:0006c314       ?common_fseek_nolock@@YAHV__crt_stdio_stream@@_JH@Z 1006d314 f   libucrt:fseek.obj
 0001:0006c423       ??$common_ftell@J@@YAJV__crt_stdio_stream@@@Z 1006d423 f   libucrt:ftell.obj
 0001:0006c490       ??$common_ftell@_J@@YA_JV__crt_stdio_stream@@@Z 1006d490 f   libucrt:ftell.obj
 0001:0006c50c       ??$common_ftell_nolock@J@@YAJV__crt_stdio_stream@@@Z 1006d50c f   libucrt:ftell.obj
 0001:0006c537       ??$common_ftell_nolock@_J@@YA_JV__crt_stdio_stream@@@Z 1006d537 f   libucrt:ftell.obj
 0001:0006c6cc       ?common_ftell_read_mode_nolock@@YA_JV__crt_stdio_stream@@_J1@Z 1006d6cc f   libucrt:ftell.obj
 0001:0006c850       ?common_ftell_translated_utf8_nolock@@YA_JV__crt_stdio_stream@@_J@Z 1006d850 f   libucrt:ftell.obj
 0001:0006ca85       ??R<lambda_b51c0495177f500e782686251704ae76>@@QBEIXZ 1006da85 f   libucrt:fwrite.obj
 0001:0006cf33       ?atexit_exception_filter@@YAHK@Z 1006df33 f   libucrt:exit.obj
 0001:0006cf46       ?common_exit@@YAXHW4_crt_exit_cleanup_mode@@W4_crt_exit_return_mode@@@Z 1006df46 f   libucrt:exit.obj
 0001:0006d05f       ?exit_or_terminate_process@@YAXI@Z 1006e05f f   libucrt:exit.obj
 0001:0006d0a0       ?is_managed_app@@YA_NXZ    1006e0a0 f   libucrt:exit.obj
 0001:0006d0e4       ?try_cor_exit_process@@YAXI@Z 1006e0e4 f   libucrt:exit.obj
 0001:0006d20a       ?ctrlevent_capture@@YGHK@Z 1006e20a f   libucrt:signal.obj
 0001:0006d2b8       ?get_global_action_nolock@@YAPAP6AXH@ZH@Z 1006e2b8 f   libucrt:signal.obj
 0001:0006d2fa       ?siglookup@@YAPAU__crt_signal_action_t@@HQAU1@@Z 1006e2fa f   libucrt:signal.obj
 0001:0006d322       ?signal_failed@@YAP6AXH@ZH@Z 1006e322 f   libucrt:signal.obj
 0001:0006d770       $$000000                   1006e770     libucrt:strcmp.obj
 0001:0006d800       ?shortsort@@YAXPAD0IP6AHPBX1@Z@Z 1006e800 f   libucrt:qsort.obj
 0001:0006d8a0       ?swap@@YAXPAD0I@Z          1006e8a0 f   libucrt:qsort.obj
 0001:0006dc7a       ??$common_getenv@D@@YAPADQBD@Z 1006ec7a f   libucrt:getenv.obj
 0001:0006dcfa       ??$common_getenv_nolock@D@@YAPADQBD@Z 1006ecfa f   libucrt:getenv.obj
 0001:0006edc7       ??$common_vsscanf@D@@YAH_KQBDI1QAU__crt_locale_pointers@@QAD@Z 1006fdc7 f   libucrt:input.obj
 0001:0006f7bc       $LN38                      100707bc     libucrt:input.obj
 0001:0006f8c0       $LN21                      100708c0     libucrt:input.obj
 0001:0007009d       ??R<lambda_24bca0711811e6233a81aece93ea4a83>@@QBE_NXZ 1007109d f   libucrt:input.obj
 0001:0007009d       ??R<lambda_79c077965043167fb4fbb9f601780f11>@@QBE_NXZ 1007109d f   libucrt:input.obj
 0001:0007009d       ??R<lambda_4794eb6df3f6f7d20e048423b4e04b2b>@@QBE_NXZ 1007109d f   libucrt:input.obj
 0001:00072ca5       $LN22                      10073ca5     libucrt:input.obj
 0001:0007341e       $LN18                      1007441e     libucrt:input.obj
 0001:00073615       _memcpy_s                  10074615 f   libucrt:cfout.obj
 0001:00073615       _memcpy_s                  10074615 f   libucrt:input.obj
 0001:00073615       _memcpy_s                  10074615 f   libucrt:mbctype.obj
 0001:00073615       _memcpy_s                  10074615 f   libucrt:fread.obj
 0001:00073696       ??$common_tox_l@$1?internal_isupper_l@@YA_NHQAU__crt_locale_pointers@@@Z$1?internal_map_lower@@YAHH0@Z@@YAHHKQAU__crt_locale_pointers@@@Z 10074696 f   libucrt:tolower_toupper.obj
 0001:000737e0       ?internal_isupper_l@@YA_NHQAU__crt_locale_pointers@@@Z 100747e0 f   libucrt:tolower_toupper.obj
 0001:00073850       $$000000                   10074850     libucrt:strncmp.obj
 0001:00073943       ??$common_gmtime_s@_J@@YAHQAUtm@@QB_J@Z 10074943 f   libucrt:gmtime.obj
 0001:00073a90       ?compute_year@@YAHAA_JAA_N@Z 10074a90 f   libucrt:gmtime.obj
 0001:00073c12       ??R<lambda_9a20e10065b92b5193c3597a66cba9d4>@@QBEHXZ 10074c12 f   libucrt:fputs.obj
 0001:0007433f       ??R<lambda_b721fa326cdb32351d23dfa67958c160>@@QBEHXZ 1007533f f   libucrt:setvbuf.obj
 0001:000743d9       ?set_buffer@@YAHV__crt_stdio_stream@@QADIH@Z 100753d9 f   libucrt:setvbuf.obj
 0001:000745e1       _call_wsetlocale           100755e1 f   libucrt:setlocale.obj
 0001:00074d70       $$000000                   10075d70     libucrt:strcspn.obj
 0001:00074dc0       $$000000                   10075dc0     libucrt:pow.obj
 0001:0007509f       ?x_ismbbtype_l@@YAHPAU__crt_locale_pointers@@IHH@Z 1007609f f   libucrt:ismbbyte.obj
 0001:0007568f       ??$common_configure_argv@D@@YAHW4_crt_argv_mode@@@Z 1007668f f   libucrt:argv_parsing.obj
 0001:000757b3       ??$parse_command_line@D@@YAXPADPAPAD0PAI2@Z 100767b3 f   libucrt:argv_parsing.obj
 0001:00075988       ??$common_get_or_create_environment_nolock@D@@YAPAPADXZ 10076988 f   libucrt:environment_initialization.obj
 0001:000759b7       ??$common_initialize_environment_nolock@D@@YAHXZ 100769b7 f   libucrt:environment_initialization.obj
 0001:00075a10       ??$create_environment@D@@YAQAPADQAD@Z 10076a10 f   libucrt:environment_initialization.obj
 0001:00075ae1       ??$free_environment@D@@YAXQAPAD@Z 10076ae1 f   libucrt:environment_initialization.obj
 0001:00075ae1       ??$free_environment@_W@@YAXQAPA_W@Z 10076ae1 f   libucrt:environment_initialization.obj
 0001:00075b10       ??$initialize_environment_by_cloning_nolock@D@@YAHXZ 10076b10 f   libucrt:environment_initialization.obj
 0001:00075bcf       ??$uninitialize_environment_internal@D@@YAXAAPAPAD@Z 10076bcf f   libucrt:environment_initialization.obj
 0001:00075bea       ??$uninitialize_environment_internal@_W@@YAXAAPAPA_W@Z 10076bea f   libucrt:environment_initialization.obj
 0001:00075d57       ??R<lambda_275893d493268fdec8709772e3fcec0e>@@QBEHXZ 10076d57 f   libucrt:onexit.obj
 0001:00075e77       ??R<lambda_4e60a939b0d047cfe11ddc22648dfba9>@@QBEHXZ 10076e77 f   libucrt:onexit.obj
 0001:0007604c       _initialize_global_variables 1007704c f   libucrt:initialization.obj
 0001:0007605e       _initialize_c              1007705e f   libucrt:initialization.obj
 0001:00076078       _uninitialize_environment  10077078 f   libucrt:initialization.obj
 0001:00076080       _initialize_pointers       10077080 f   libucrt:initialization.obj
 0001:000760bd       _uninitialize_vcruntime    100770bd f   libucrt:initialization.obj
 0001:000760c6       _uninitialize_allocated_memory 100770c6 f   libucrt:initialization.obj
 0001:0007613d       _uninitialize_global_state_isolation 1007713d f   libucrt:initialization.obj
 0001:0007613d       _report_memory_leaks       1007713d f   libucrt:initialization.obj
 0001:0007613d       _uninitialize_c            1007713d f   libucrt:initialization.obj
 0001:0007613d       _initialize_environment    1007713d f   libucrt:initialization.obj
 0001:0007613d       _initialize_global_state_isolation 1007713d f   libucrt:initialization.obj
 0001:000764a4       ?construct_ptd@@YAXQAU__acrt_ptd@@QAPAU__crt_locale_data@@@Z 100774a4 f   libucrt:per_thread_data.obj
 0001:0007651d       ?destroy_fls@@YGXPAX@Z     1007751d f   libucrt:per_thread_data.obj
 0001:0007653e       ?destroy_ptd@@YAXQAU__acrt_ptd@@@Z 1007753e f   libucrt:per_thread_data.obj
 0001:000765e7       ?replace_current_thread_locale_nolock@@YAXQAU__acrt_ptd@@QAU__crt_locale_data@@@Z 100775e7 f   libucrt:per_thread_data.obj
 0001:00076ae3       ?fp_format_a@@YAHQBNPADIQADIH_NIQAU__crt_locale_pointers@@@Z 10077ae3 f   libucrt:cvt.obj
 0001:00076de6       ?fp_format_e@@YAHQBNQADI1IH_NIQAU__crt_locale_pointers@@@Z 10077de6 f   libucrt:cvt.obj
 0001:00076e81       ?fp_format_e_internal@@YAHQADIH_NIQAU_strflt@@1QAU__crt_locale_pointers@@@Z 10077e81 f   libucrt:cvt.obj
 0001:00076fcc       ?fp_format_f@@YAHQBNQADI1IHQAU__crt_locale_pointers@@@Z 10077fcc f   libucrt:cvt.obj
 0001:00077059       ?fp_format_f_internal@@YAHQADIHQAU_strflt@@_NQAU__crt_locale_pointers@@@Z 10078059 f   libucrt:cvt.obj
 0001:00077130       ?fp_format_g@@YAHQBNQADI1IH_NIQAU__crt_locale_pointers@@@Z 10078130 f   libucrt:cvt.obj
 0001:000771f8       ?fp_format_nan_or_infinity@@YAHW4__acrt_fp_class@@_NPADI1@Z 100781f8 f   libucrt:cvt.obj
 0001:000772f0       ?shift_bytes@@YAXQADI0H@Z  100782f0 f   libucrt:cvt.obj
 0001:00077617       ??R<lambda_2af78c5f5901b1372d98f9ab3177dfa6>@@QBEXXZ 10078617 f   libucrt:wsetlocale.obj
 0001:00077673       ??R<lambda_e378711a6f6581bf7f0efd7cdf97f5d9>@@QBEXXZ 10078673 f   libucrt:wsetlocale.obj
 0001:000779d3       __copytlocinfo_nolock      100789d3 f   libucrt:wsetlocale.obj
 0001:00077e3a       __wsetlocale_get_all       10078e3a f   libucrt:wsetlocale.obj
 0001:00077fd3       __wsetlocale_nolock        10078fd3 f   libucrt:wsetlocale.obj
 0001:000782b8       __wsetlocale_set_cat       100792b8 f   libucrt:wsetlocale.obj
 0001:00078684       ?initialize_inherited_file_handles_nolock@@YAXXZ 10079684 f   libucrt:ioinit.obj
 0001:0007873a       ?initialize_stdio_handles_nolock@@YAXXZ 1007973a f   libucrt:ioinit.obj
 0001:00078872       ?<helper_func_stdcall>@<lambda_5a01b672d24c8480ee9d6bdb50dd3881>@@CGHPA_W@Z 10079872 f   libucrt:winapi_thunks.obj
 0001:00078964       ?try_get_CompareStringEx@@YAP6GHPB_WK0H0HPAU_nlsversioninfo@@PAXJ@ZXZ 10079964 f   libucrt:winapi_thunks.obj
 0001:0007897e       ?try_get_function@@YAPAXW4function_id@?A0x352e5c4b@@QBDQBW4module_id@2@2@Z 1007997e f   libucrt:winapi_thunks.obj
 0001:00078a1a       ?try_get_module@@YAPAUHINSTANCE__@@W4module_id@?A0x352e5c4b@@@Z 10079a1a f   libucrt:winapi_thunks.obj
 0001:000792f8       ?_mbstowcs_l_helper@@YAIPA_WPBDIPAU__crt_locale_pointers@@@Z 1007a2f8 f   libucrt:mbstowcs.obj
 0001:00079574       ??$common_tcsncpy_s@D@@YAHQADIQBDI@Z 1007a574 f   libucrt:strncpy_s.obj
 0001:000796ca       ?find_or_allocate_unused_stream_nolock@@YA?AV__crt_stdio_stream@@XZ 1007a6ca f   libucrt:stream.obj
 0001:00079c03       ??$common_openfile@D@@YAPAU_iobuf@@QBD0HV__crt_stdio_stream@@@Z 1007ac03 f   libucrt:openfile.obj
 0001:00079c88       ??$common_openfile@_W@@YAPAU_iobuf@@QB_W0HV__crt_stdio_stream@@@Z 1007ac88 f   libucrt:openfile.obj
 0001:0007a10a       ?write_double_translated_ansi_nolock@@YA?AUwrite_result@?A0x47fa6670@@HQBDI@Z 1007b10a f   libucrt:write.obj
 0001:0007a2bd       ?write_double_translated_unicode_nolock@@YA?AUwrite_result@?A0x47fa6670@@QBDI@Z 1007b2bd f   libucrt:write.obj
 0001:0007a32a       ?write_requires_double_translation_nolock@@YA_NH@Z 1007b32a f   libucrt:write.obj
 0001:0007a3a0       ?write_text_ansi_nolock@@YA?AUwrite_result@?A0x47fa6670@@HQBDI@Z 1007b3a0 f   libucrt:write.obj
 0001:0007a47f       ?write_text_utf16le_nolock@@YA?AUwrite_result@?A0x47fa6670@@HQBDI@Z 1007b47f f   libucrt:write.obj
 0001:0007a56d       ?write_text_utf8_nolock@@YA?AUwrite_result@?A0x47fa6670@@HQBDI@Z 1007b56d f   libucrt:write.obj
 0001:0007a991       ??$translate_text_mode_nolock@D@@YAHHQADI@Z 1007b991 f   libucrt:read.obj
 0001:0007aae8       ??$translate_text_mode_nolock@_W@@YAHHQA_WI@Z 1007bae8 f   libucrt:read.obj
 0001:0007aca8       ?translate_ansi_or_utf8_nolock@@YAHHQADIQA_WI@Z 1007bca8 f   libucrt:read.obj
 0001:0007adf8       ?translate_utf16_from_console_nolock@@YAHHQA_WI@Z 1007bdf8 f   libucrt:read.obj
 0001:0007b341       ??$common_refill_and_read_nolock@D@@YAHV__crt_stdio_stream@@@Z 1007c341 f   libucrt:_filbuf.obj
 0001:0007b4cd       ??$common_lseek@_J@@YA_JH_JH@Z 1007c4cd f   libucrt:lseek.obj
 0001:0007b5d2       ??$common_lseek_nolock@_J@@YA_JH_JH@Z 1007c5d2 f   libucrt:lseek.obj
 0001:0007b686       ??$common_flush_and_write_nolock@D@@YAHHV__crt_stdio_stream@@@Z 1007c686 f   libucrt:_flsbuf.obj
 0001:0007b797       ??$write_buffer_nolock@D@@YA_NDV__crt_stdio_stream@@@Z 1007c797 f   libucrt:_flsbuf.obj
 0001:0007be30       $$000000                   1007ce30     libucrt:_strnicm.obj
 0001:0007bed5       ?__acrt_LCMapStringA_stat@@YAHPAU__crt_locale_pointers@@PB_WKPBDHPADHHH@Z 1007ced5 f   libucrt:lcmapstringa.obj
 0001:0007c1d0       ?_wcstombs_l_helper@@YAIPADPB_WIPAU__crt_locale_pointers@@@Z 1007d1d0 f   libucrt:wcstombs.obj
 0001:0007c53f       ?InternalGetLocaleInfoA@@YAHQAU__crt_locale_pointers@@QB_WKQADH@Z 1007d53f f   libucrt:getlocaleinfoa.obj
 0001:0007d290       $$000000                   1007e290     libucrt:pow_pentium4.obj
 0001:0007ddb0       $$000000                   1007edb0     libucrt:87tran.obj
 0001:0007dfb0       $$000000                   1007efb0     libucrt:87disp.obj
 0001:0007e1b0       $$000000                   1007f1b0     libucrt:genexcep.obj
 0001:0007e210       $$000000                   1007f210     libucrt:common.obj
 0001:0007e6a6       ?<helper_func_cdecl>@<lambda_62bb7ecb46d0a77b591a051c43eb5ad1>@@CAHPBX0@Z 1007f6a6 f   libucrt:argv_wildcards.obj
 0001:0007e6be       ??$common_expand_argv_wildcards@D@@YAHQAPADQAPAPAD@Z 1007f6be f   libucrt:argv_wildcards.obj
 0001:0007e84e       ??$copy_and_add_argument_to_buffer@D@@YAHQBD0IAAV?$argument_list@D@?A0xb0e4b824@@@Z 1007f84e f   libucrt:argv_wildcards.obj
 0001:0007e8e4       ??$expand_argument_wildcards@D@@YAHQAD0AAV?$argument_list@D@?A0xb0e4b824@@@Z 1007f8e4 f   libucrt:argv_wildcards.obj
 0001:0007ebbf       ??R<lambda_ad1ced32f4ac17aa236e5ef05d6b3b7c>@@QBEXXZ 1007fbbf f   libucrt:mbctype.obj
 0001:0007ec83       ?CPtoLocaleName@@YAPB_WH@Z 1007fc83 f   libucrt:mbctype.obj
 0001:0007ecc1       ?getSystemCP@@YAHH@Z       1007fcc1 f   libucrt:mbctype.obj
 0001:0007ed34       ?setSBCS@@YAXPAU__crt_multibyte_data@@@Z 1007fd34 f   libucrt:mbctype.obj
 0001:0007ed99       ?setSBUpLow@@YAXPAU__crt_multibyte_data@@@Z 1007fd99 f   libucrt:mbctype.obj
 0001:0007ef2e       ?setmbcp_internal@@YAHH_N@Z 1007ff2e f   libucrt:mbctype.obj
 0001:0007f2f9       ?find_end_of_double_null_terminated_sequence@@YAPB_WQB_W@Z 100802f9 f   libucrt:get_environment_from_os.obj
 0001:0007f3b3       ??$common_set_variable_in_environment_nolock@D@@YAHQADH@Z 100803b3 f   libucrt:setenv.obj
 0001:0007f5ee       ??$copy_environment@D@@YAPAPADQAPAD@Z 100805ee f   libucrt:setenv.obj
 0001:0007f69f       ??$find_in_environment_nolock@D@@YAHQBDI@Z 1008069f f   libucrt:setenv.obj
 0001:00081895       ?free_crt_array_internal@@YAXQAPBXI@Z 10082895 f   libucrt:inittime.obj
 0001:000818d1       ?initialize_lc_time@@YA_NQAU__crt_lc_time_data@@QAU__crt_locale_data@@@Z 100828d1 f   libucrt:inittime.obj
 0001:00081d26       ??$common_tcsncpy_s@_W@@YAHQA_WIQB_WI@Z 10082d26 f   libucrt:wcsncpy_s.obj
 0001:00081ecd       _GetLocaleNameFromDefault  10082ecd f   libucrt:get_qualified_locale.obj
 0001:00081f56       _GetLocaleNameFromLangCountry 10082f56 f   libucrt:get_qualified_locale.obj
 0001:00081ff0       _GetLocaleNameFromLanguage 10082ff0 f   libucrt:get_qualified_locale.obj
 0001:0008204b       _GetPrimaryLen             1008304b f   libucrt:get_qualified_locale.obj
 0001:0008207f       _LangCountryEnumProcEx@12  1008307f f   libucrt:get_qualified_locale.obj
 0001:00082369       _LanguageEnumProcEx@12     10083369 f   libucrt:get_qualified_locale.obj
 0001:0008242a       _ProcessCodePage           1008342a f   libucrt:get_qualified_locale.obj
 0001:00082511       _TestDefaultCountry        10083511 f   libucrt:get_qualified_locale.obj
 0001:0008255c       _TranslateName             1008355c f   libucrt:get_qualified_locale.obj
 0001:0008279a       _CountryEnumProc@4         1008379a f   libucrt:getqloc_downlevel.obj
 0001:00082843       _GetLcidFromCountry        10083843 f   libucrt:getqloc_downlevel.obj
 0001:0008288e       _GetLcidFromLangCountry    1008388e f   libucrt:getqloc_downlevel.obj
 0001:00082929       _GetLcidFromLanguage       10083929 f   libucrt:getqloc_downlevel.obj
 0001:0008298a       _GetPrimaryLen             1008398a f   libucrt:getqloc_downlevel.obj
 0001:000829b6       _LangCountryEnumProc@4     100839b6 f   libucrt:getqloc_downlevel.obj
 0001:00082c06       _LanguageEnumProc@4        10083c06 f   libucrt:getqloc_downlevel.obj
 0001:00082cde       _LcidFromHexString         10083cde f   libucrt:getqloc_downlevel.obj
 0001:00082d2f       _ProcessCodePage           10083d2f f   libucrt:getqloc_downlevel.obj
 0001:00082e12       _TestDefaultCountry        10083e12 f   libucrt:getqloc_downlevel.obj
 0001:00082e36       _TestDefaultLanguage       10083e36 f   libucrt:getqloc_downlevel.obj
 0001:00082ea6       _TranslateName             10083ea6 f   libucrt:getqloc_downlevel.obj
 0001:0008310a       ?GetTableIndexFromLocaleName@@YAHPB_W@Z 1008410a f   libucrt:lcidtoname_downlevel.obj
 0001:00083455       ??$common_sopen_dispatch@D@@YAHQBDHHHQAHH@Z 10084455 f   libucrt:open.obj
 0001:00083521       ??$common_sopen_dispatch@_W@@YAHQB_WHHHQAHH@Z 10084521 f   libucrt:open.obj
 0001:000835ed       ?configure_text_mode@@YAHHUfile_options@?A0x704126de@@HAAW4__crt_lowio_text_mode@@@Z 100845ed f   libucrt:open.obj
 0001:0008383a       ?create_file@@YAPAXQB_WQAU_SECURITY_ATTRIBUTES@@Ufile_options@?A0x704126de@@@Z 1008483a f   libucrt:open.obj
 0001:0008385f       ?decode_open_create_flags@@YAKH@Z 1008485f f   libucrt:open.obj
 0001:000838cf       ?decode_options@@YA?AUfile_options@?A0x704126de@@HHH@Z 100848cf f   libucrt:open.obj
 0001:00083a4b       ?truncate_ctrl_z_if_present@@YAHH@Z 10084a4b f   libucrt:open.obj
 0001:00083f00       ?InternalCompareStringA@@YAHPAU__crt_locale_pointers@@PB_WKPBDH2HH@Z 10084f00 f   libucrt:comparestringa.obj
 0001:000841f0       ___get_abstract_control_sse2 100851f0 f   libucrt:_fenvutils.obj
 0001:0008426d       ___get_abstract_control_x87 1008526d f   libucrt:_fenvutils.obj
 0001:000842e0       ___get_machine_control     100852e0 f   libucrt:_fenvutils.obj
 0001:00084351       ___get_machine_control_sse2 10085351 f   libucrt:_fenvutils.obj
 0001:000843d1       ___get_machine_status_sse2 100853d1 f   libucrt:_fenvutils.obj
 0001:00084432       ___get_machine_status_x87  10085432 f   libucrt:_fenvutils.obj
 0001:00084a80       $$000000                   10085a80     libucrt:strpbrk.obj
 0001:00084b64       ?initialize_multibyte@@YAHXZ 10085b64 f   libucrt:multibyte_initializer.obj
 0001:00084c60       $$000000                   10085c60     libucrt:log10.obj
 0001:00084db0       $$000000                   10085db0     libucrt:ceil_pentium4.obj
 0001:00084ecd       ??$common_xtox@K_W@@YAHKQA_WII_N@Z 10085ecd f   libucrt:xtoa.obj
 0001:00084f5b       ??$common_xtox_s@K_W@@YAHKQA_WII_N@Z 10085f5b f   libucrt:xtoa.obj
 0001:000853a0       $$000000                   100863a0     libucrt:log10_pentium4.obj
 0001:00085dc0       $$000000                   10086dc0     LIBCMT:lldvrm.obj
 0001:00085ea0       $$000000                   10086ea0     LIBCMT:lldiv.obj
 0001:00085f50       $$000000                   10086f50     LIBCMT:_sehprolg4gs_.obj
 0001:00085fb0       $$000000                   10086fb0     LIBCMT:llrem.obj
 0001:00086070       $$000000                   10087070     LIBCMT:llshl.obj
 0001:00086090       $$000000                   10087090     LIBCMT:_ftol2_.obj
 0001:00086200       __unwindfunclet$??$use_facet@V?$codecvt@DDU_Mbstatet@@@std@@@std@@YAABV?$codecvt@DDU_Mbstatet@@@0@ABVlocale@0@@Z$0 10087200 f   libcpmt:cout.obj
 0001:00086208       __ehhandler$??$use_facet@V?$codecvt@DDU_Mbstatet@@@std@@@std@@YAABV?$codecvt@DDU_Mbstatet@@@0@ABVlocale@0@@Z 10087208 f   libcpmt:cout.obj
 0001:00086223       __unwindfunclet$??0?$basic_ostream@DU?$char_traits@D@std@@@std@@QAE@PAV?$basic_streambuf@DU?$char_traits@D@std@@@1@_N@Z$0 10087223 f   libcpmt:cout.obj
 0001:0008623f       __ehhandler$??0?$basic_ostream@DU?$char_traits@D@std@@@std@@QAE@PAV?$basic_streambuf@DU?$char_traits@D@std@@@1@_N@Z 1008723f f   libcpmt:cout.obj
 0001:0008625a       __unwindfunclet$?_Init@ios_base@std@@IAEXXZ$0 1008725a f   libcpmt:cout.obj
 0001:0008625a       __unwindfunclet$??0?$basic_streambuf@DU?$char_traits@D@std@@@std@@IAE@XZ$0 1008725a f   libcpmt:cout.obj
 0001:00086260       __ehhandler$?_Init@ios_base@std@@IAEXXZ 10087260 f   libcpmt:cout.obj
 0001:00086260       __ehhandler$??0?$basic_streambuf@DU?$char_traits@D@std@@@std@@IAE@XZ 10087260 f   libcpmt:cout.obj
 0001:0008627b       __unwindfunclet$??1?$basic_ios@DU?$char_traits@D@std@@@std@@UAE@XZ$0 1008727b f   libcpmt:cout.obj
 0001:0008627b       __unwindfunclet$??_D?$basic_ostream@DU?$char_traits@D@std@@@std@@QAEXXZ$2 1008727b f   libcpmt:cout.obj
 0001:00086281       __ehhandler$??_D?$basic_ostream@DU?$char_traits@D@std@@@std@@QAEXXZ 10087281 f   libcpmt:cout.obj
 0001:00086281       __ehhandler$??1?$basic_ios@DU?$char_traits@D@std@@@std@@UAE@XZ 10087281 f   libcpmt:cout.obj
 0001:0008629c       __unwindfunclet$??_G?$basic_ios@DU?$char_traits@D@std@@@std@@UAEPAXI@Z$1 1008729c f   libcpmt:cout.obj
 0001:0008629c       __unwindfunclet$??_Gios_base@std@@UAEPAXI@Z$0 1008729c f   libcpmt:cout.obj
 0001:000862a2       __ehhandler$??_G?$basic_ios@DU?$char_traits@D@std@@@std@@UAEPAXI@Z 100872a2 f   libcpmt:cout.obj
 0001:000862a2       __ehhandler$??_Gios_base@std@@UAEPAXI@Z 100872a2 f   libcpmt:cout.obj
 0001:000862bd       __unwindfunclet$?_Endwrite@?$basic_filebuf@DU?$char_traits@D@std@@@std@@IAE_NXZ$0 100872bd f   libcpmt:cout.obj
 0001:000862c5       __ehhandler$?_Endwrite@?$basic_filebuf@DU?$char_traits@D@std@@@std@@IAE_NXZ 100872c5 f   libcpmt:cout.obj
 0001:000862ea       __unwindfunclet$?_Getcat@?$codecvt@DDU_Mbstatet@@@std@@SAIPAPBVfacet@locale@2@PBV42@@Z$0 100872ea f   libcpmt:cout.obj
 0001:000862f7       __ehhandler$?_Getcat@?$codecvt@DDU_Mbstatet@@@std@@SAIPAPBVfacet@locale@2@PBV42@@Z 100872f7 f   libcpmt:cout.obj
 0001:00086312       __unwindfunclet$?overflow@?$basic_filebuf@DU?$char_traits@D@std@@@std@@MAEHH@Z$0 10087312 f   libcpmt:cout.obj
 0001:0008631a       __ehhandler$?overflow@?$basic_filebuf@DU?$char_traits@D@std@@@std@@MAEHH@Z 1008731a f   libcpmt:cout.obj
 0001:0008633f       __unwindfunclet$?uflow@?$basic_filebuf@DU?$char_traits@D@std@@@std@@MAEHXZ$0 1008733f f   libcpmt:cout.obj
 0001:00086347       __ehhandler$?uflow@?$basic_filebuf@DU?$char_traits@D@std@@@std@@MAEHXZ 10087347 f   libcpmt:cout.obj
 0001:0008636c       __ehhandler$??1_Fac_node@std@@QAE@XZ 1008736c f   libcpmt:locale0.obj
 0001:00086387       __unwindfunclet$?_Init@locale@std@@CAPAV_Locimp@12@_N@Z$0 10087387 f   libcpmt:locale0.obj
 0001:0008638f       __ehhandler$?_Init@locale@std@@CAPAV_Locimp@12@_N@Z 1008738f f   libcpmt:locale0.obj
 0001:000863aa       __unwindfunclet$?_Locimp_dtor@_Locimp@locale@std@@CAXPAV123@@Z$0 100873aa f   libcpmt:locale0.obj
 0001:000863b2       __ehhandler$?_Locimp_dtor@_Locimp@locale@std@@CAXPAV123@@Z 100873b2 f   libcpmt:locale0.obj
 0001:000863cd       __ehhandler$??1?$basic_filebuf@DU?$char_traits@D@std@@@std@@UAE@XZ 100873cd f   libcpmt:cout.obj
 0001:000863cd       __ehhandler$??1_Locimp@locale@std@@MAE@XZ 100873cd f   libcpmt:locale0.obj
 0001:000863cd       __ehhandler$??1_Init_atexit@@QAE@XZ 100873cd f   libcpmt:iosptrs.obj
 0001:000863f0       __ehhandler$?ConvertBSTRToString@_com_util@@YGPADPA_W@Z 100873f0 f   comsuppw:comutil.obj
 0001:0008640b       __ehhandler$?CallUnexpected@@YAXPBU_s_ESTypeList@@@Z 1008740b f   libvcruntime:frame.obj
 0001:00086431       ??__Finitlocks@std@@YAXXZ  10087431 f   libcpmt:xlock.obj
 0001:0008643b       ??__Fcout@std@@YAXXZ       1008743b f   libcpmt:cout.obj
 0001:00086445       ??__Ffout@std@@YAXXZ       10087445 f   libcpmt:cout.obj
 0001:0008644f       ??__Finitlocks@@YAXXZ      1008744f f   libcpmt:cout.obj
 0001:00086459       ??__F_Fac_tidy_reg@std@@YAXXZ 10087459 f   libcpmt:locale0.obj
 0001:00086463       ??__Fclassic_locale@std@@YAXXZ 10087463 f   libcpmt:locale0.obj
 0001:0008646d       ??__Finit_atexit@@YAXXZ    1008746d f   libcpmt:iosptrs.obj
 0001:00086477       ??__Finitlocks@std@@YAXXZ  10087477 f   libcpmt:iosptrs.obj
 0001:00086490       ??__FvtMissing@@YAXXZ      10087490 f   comsuppw:comutil.obj
 0002:000001d8       ?initlocks$initializer$@std@@3P6AXXZA 100881d8     libcpmt:xlock.obj
 0002:000001dc       ?initlocks$initializer$@@3P6AXXZA 100881dc     libcpmt:cout.obj
 0002:000001e0       ?fout$initializer$@std@@3P6AXXZA 100881e0     libcpmt:cout.obj
 0002:000001e4       ?cout$initializer$@std@@3P6AXXZA 100881e4     libcpmt:cout.obj
 0002:000001e8       ?init_cout$initializer$@std@@3P6AXXZA 100881e8     libcpmt:cout.obj
 0002:000001ec       ?initlocks$initializer$@std@@3P6AXXZA 100881ec     libcpmt:iosptrs.obj
 0002:000001f0       ?init_atexit$initializer$@@3P6AXXZA 100881f0     libcpmt:iosptrs.obj
 0002:000001f4       ?_Fac_tidy_reg$initializer$@std@@3P6AXXZA 100881f4     libcpmt:locale0.obj
 0002:000001f8       ?classic_locale$initializer$@std@@3P6AXXZA 100881f8     libcpmt:locale0.obj
 0002:000001fc       ?vtMissing$initializer$@@3P6AXXZA 100881fc     comsuppw:comutil.obj
 0002:0000020c       ?pinit@@3P6AHXZA           1008820c     libcpmt:winapisupp.obj
 0002:00000210       ?__scrt_initialize_tss_var@@3P6AHXZA 10088210     LIBCMT:thread_safe_statics.obj
 0002:00000290       ?data_one@?1??BN_value_one@@9@9 10088290     libeay32:bn_lib.obj
 0002:00000294       ?const_one@?1??BN_value_one@@9@9 10088294     libeay32:bn_lib.obj
 0002:000002a8       ?bits@?1??BN_num_bits_word@@9@9 100882a8     libeay32:bn_lib.obj
 0002:000003c0       _Hex                       100883c0     libeay32:bn_print.obj
 0002:00000914       _err_defaults              10088914     libeay32:err.obj
 0002:00000a90       _hash_coeffs               10088a90     libeay32:cryptlib.obj
 0002:00000a98       _lock_names                10088a98     libeay32:cryptlib.obj
 0002:00000e04       _dummy_nid                 10088e04     libeay32:tb_rsa.obj
 0002:00001008       _dummy_nid                 10089008     libeay32:tb_rand.obj
 0002:00003328       _sn_objs                   1008b328     libeay32:obj_dat.obj
 0002:00004208       _ln_objs                   1008c208     libeay32:obj_dat.obj
 0002:000050e8       _obj_objs                  1008d0e8     libeay32:obj_dat.obj
 0002:00005ed0       _lvalues                   1008ded0     libeay32:obj_dat.obj
 0002:00007740       _nid_objs                  1008f740     libeay32:obj_dat.obj
 0002:00010b20       _sha1_md                   10098b20     libeay32:m_sha1.obj
 0002:00010b70       _sha224_md                 10098b70     libeay32:m_sha1.obj
 0002:00010bc0       _sha256_md                 10098bc0     libeay32:m_sha1.obj
 0002:00010c10       _sha384_md                 10098c10     libeay32:m_sha1.obj
 0002:00010c60       _sha512_md                 10098c60     libeay32:m_sha1.obj
 0002:00010e70       _K256                      10098e70     libeay32:sha256.obj
 0002:00010f70       _K512                      10098f70     libeay32:sha512.obj
 0002:0001177c       _X509_SIG_seq_tt           1009977c     libeay32:x_sig.obj
 0002:000117a4       ?local_it@?1??X509_SIG_it@@9@9 100997a4     libeay32:x_sig.obj
 0002:000117d4       ?local_it@?1??ASN1_GENERALIZEDTIME_it@@9@9 100997d4     libeay32:tasn_typ.obj
 0002:000117f0       ?local_it@?1??ASN1_VISIBLESTRING_it@@9@9 100997f0     libeay32:tasn_typ.obj
 0002:0001180c       ?local_it@?1??ASN1_UNIVERSALSTRING_it@@9@9 1009980c     libeay32:tasn_typ.obj
 0002:00011828       ?local_it@?1??ASN1_BMPSTRING_it@@9@9 10099828     libeay32:tasn_typ.obj
 0002:00011844       ?local_it@?1??ASN1_ANY_it@@9@9 10099844     libeay32:tasn_typ.obj
 0002:00011860       ?local_it@?1??ASN1_SEQUENCE_it@@9@9 10099860     libeay32:tasn_typ.obj
 0002:0001187c       ?local_it@?1??ASN1_PRINTABLE_it@@9@9 1009987c     libeay32:tasn_typ.obj
 0002:00011898       ?local_it@?1??DISPLAYTEXT_it@@9@9 10099898     libeay32:tasn_typ.obj
 0002:000118b4       ?local_it@?1??DIRECTORYSTRING_it@@9@9 100998b4     libeay32:tasn_typ.obj
 0002:000118d0       ?local_it@?1??ASN1_BOOLEAN_it@@9@9 100998d0     libeay32:tasn_typ.obj
 0002:000118ec       ?local_it@?1??ASN1_TBOOLEAN_it@@9@9 100998ec     libeay32:tasn_typ.obj
 0002:00011908       ?local_it@?1??ASN1_FBOOLEAN_it@@9@9 10099908     libeay32:tasn_typ.obj
 0002:00011924       ?local_it@?1??ASN1_OCTET_STRING_NDEF_it@@9@9 10099924     libeay32:tasn_typ.obj
 0002:00011940       _ASN1_SEQUENCE_ANY_item_tt 10099940     libeay32:tasn_typ.obj
 0002:00011954       ?local_it@?1??ASN1_SEQUENCE_ANY_it@@9@9 10099954     libeay32:tasn_typ.obj
 0002:00011970       _ASN1_SET_ANY_item_tt      10099970     libeay32:tasn_typ.obj
 0002:00011984       ?local_it@?1??ASN1_SET_ANY_it@@9@9 10099984     libeay32:tasn_typ.obj
 0002:000119a0       ?local_it@?1??ASN1_INTEGER_it@@9@9 100999a0     libeay32:tasn_typ.obj
 0002:000119bc       ?local_it@?1??ASN1_ENUMERATED_it@@9@9 100999bc     libeay32:tasn_typ.obj
 0002:000119d8       ?local_it@?1??ASN1_BIT_STRING_it@@9@9 100999d8     libeay32:tasn_typ.obj
 0002:000119f4       ?local_it@?1??ASN1_OCTET_STRING_it@@9@9 100999f4     libeay32:tasn_typ.obj
 0002:00011a10       ?local_it@?1??ASN1_NULL_it@@9@9 10099a10     libeay32:tasn_typ.obj
 0002:00011a2c       ?local_it@?1??ASN1_OBJECT_it@@9@9 10099a2c     libeay32:tasn_typ.obj
 0002:00011a48       ?local_it@?1??ASN1_UTF8STRING_it@@9@9 10099a48     libeay32:tasn_typ.obj
 0002:00011a64       ?local_it@?1??ASN1_PRINTABLESTRING_it@@9@9 10099a64     libeay32:tasn_typ.obj
 0002:00011a80       ?local_it@?1??ASN1_T61STRING_it@@9@9 10099a80     libeay32:tasn_typ.obj
 0002:00011a9c       ?local_it@?1??ASN1_IA5STRING_it@@9@9 10099a9c     libeay32:tasn_typ.obj
 0002:00011ab8       ?local_it@?1??ASN1_GENERALSTRING_it@@9@9 10099ab8     libeay32:tasn_typ.obj
 0002:00011ad4       ?local_it@?1??ASN1_UTCTIME_it@@9@9 10099ad4     libeay32:tasn_typ.obj
 0002:00012618       _zeroes                    1009a618     libeay32:rsa_pss.obj
 0002:00012638       ?hexdig@?1??hex_to_string@@9@9 1009a638     libeay32:v3_utl.obj
 0002:00012760       _dh1024_160_p              1009a760     libeay32:dh_rfc5114.obj
 0002:000127e0       _dh1024_160_g              1009a7e0     libeay32:dh_rfc5114.obj
 0002:00012860       _dh1024_160_q              1009a860     libeay32:dh_rfc5114.obj
 0002:00012874       _dh2048_224_q              1009a874     libeay32:dh_rfc5114.obj
 0002:00012890       _dh2048_224_p              1009a890     libeay32:dh_rfc5114.obj
 0002:00012990       _dh2048_224_g              1009a990     libeay32:dh_rfc5114.obj
 0002:00012a90       _dh2048_256_p              1009aa90     libeay32:dh_rfc5114.obj
 0002:00012b90       _dh2048_256_g              1009ab90     libeay32:dh_rfc5114.obj
 0002:00012c90       _dh2048_256_q              1009ac90     libeay32:dh_rfc5114.obj
 0002:00012cb0       ?_bignum_dh1024_160_p@?1??DH_get_1024_160@@9@9 1009acb0     libeay32:dh_rfc5114.obj
 0002:00012cc4       ?_bignum_dh1024_160_q@?1??DH_get_1024_160@@9@9 1009acc4     libeay32:dh_rfc5114.obj
 0002:00012cd8       ?_bignum_dh1024_160_g@?1??DH_get_1024_160@@9@9 1009acd8     libeay32:dh_rfc5114.obj
 0002:00012cec       ?_bignum_dh2048_224_p@?1??DH_get_2048_224@@9@9 1009acec     libeay32:dh_rfc5114.obj
 0002:00012d00       ?_bignum_dh2048_224_q@?1??DH_get_2048_224@@9@9 1009ad00     libeay32:dh_rfc5114.obj
 0002:00012d14       ?_bignum_dh2048_224_g@?1??DH_get_2048_224@@9@9 1009ad14     libeay32:dh_rfc5114.obj
 0002:00012d28       ?_bignum_dh2048_256_p@?1??DH_get_2048_256@@9@9 1009ad28     libeay32:dh_rfc5114.obj
 0002:00012d3c       ?_bignum_dh2048_256_q@?1??DH_get_2048_256@@9@9 1009ad3c     libeay32:dh_rfc5114.obj
 0002:00012d50       ?_bignum_dh2048_256_g@?1??DH_get_2048_256@@9@9 1009ad50     libeay32:dh_rfc5114.obj
 0002:00012da4       ?ggen@?BH@??dsa_builtin_paramgen2@@9@9 1009ada4     libeay32:dsa_gen.obj
 0002:00012dc0       _DSA_SIG_aux               1009adc0     libeay32:dsa_asn1.obj
 0002:00012dd8       _DSA_SIG_seq_tt            1009add8     libeay32:dsa_asn1.obj
 0002:00012e00       ?local_it@?1??DSA_SIG_it@@9@9 1009ae00     libeay32:dsa_asn1.obj
 0002:00012e1c       _DSAPrivateKey_aux         1009ae1c     libeay32:dsa_asn1.obj
 0002:00012e34       ?local_it@?1??DSAPrivateKey_it@@9@9 1009ae34     libeay32:dsa_asn1.obj
 0002:00012e50       _DSAPrivateKey_seq_tt      1009ae50     libeay32:dsa_asn1.obj
 0002:00012ec8       _DSAparams_aux             1009aec8     libeay32:dsa_asn1.obj
 0002:00012ee0       _DSAparams_seq_tt          1009aee0     libeay32:dsa_asn1.obj
 0002:00012f1c       ?local_it@?1??DSAparams_it@@9@9 1009af1c     libeay32:dsa_asn1.obj
 0002:00012f38       _dsa_pub_internal_seq_tt   1009af38     libeay32:dsa_asn1.obj
 0002:00012f88       ?local_it@?1??dsa_pub_internal_it@@9@9 1009af88     libeay32:dsa_asn1.obj
 0002:00012fa4       _DSAPublicKey_aux          1009afa4     libeay32:dsa_asn1.obj
 0002:00012fbc       _DSAPublicKey_ch_tt        1009afbc     libeay32:dsa_asn1.obj
 0002:00012fe4       ?local_it@?1??DSAPublicKey_it@@9@9 1009afe4     libeay32:dsa_asn1.obj
 0002:00013090       __EC_SECG_CHAR2_131R1      1009b090     libeay32:ec_curve.obj
 0002:00013120       __EC_SECG_CHAR2_131R2      1009b120     libeay32:ec_curve.obj
 0002:000131b0       __EC_NIST_CHAR2_163K       1009b1b0     libeay32:ec_curve.obj
 0002:00013240       __EC_SECG_CHAR2_163R1      1009b240     libeay32:ec_curve.obj
 0002:000132d0       __EC_NIST_CHAR2_163B       1009b2d0     libeay32:ec_curve.obj
 0002:00013360       __EC_SECG_CHAR2_193R1      1009b360     libeay32:ec_curve.obj
 0002:00013420       __EC_SECG_CHAR2_193R2      1009b420     libeay32:ec_curve.obj
 0002:000134e0       __EC_NIST_CHAR2_233K       1009b4e0     libeay32:ec_curve.obj
 0002:000135a8       __EC_NIST_CHAR2_233B       1009b5a8     libeay32:ec_curve.obj
 0002:00013680       __EC_SECG_CHAR2_239K1      1009b680     libeay32:ec_curve.obj
 0002:00013748       __EC_NIST_CHAR2_283K       1009b748     libeay32:ec_curve.obj
 0002:00013830       __EC_NIST_CHAR2_283B       1009b830     libeay32:ec_curve.obj
 0002:00013930       __EC_NIST_CHAR2_409K       1009b930     libeay32:ec_curve.obj
 0002:00013a78       __EC_NIST_CHAR2_409B       1009ba78     libeay32:ec_curve.obj
 0002:00013bd8       __EC_NIST_CHAR2_571K       1009bbd8     libeay32:ec_curve.obj
 0002:00013d98       __EC_NIST_CHAR2_571B       1009bd98     libeay32:ec_curve.obj
 0002:00013f70       __EC_X9_62_CHAR2_163V1     1009bf70     libeay32:ec_curve.obj
 0002:00014018       __EC_X9_62_CHAR2_163V2     1009c018     libeay32:ec_curve.obj
 0002:000140c0       __EC_X9_62_CHAR2_163V3     1009c0c0     libeay32:ec_curve.obj
 0002:00014168       __EC_X9_62_CHAR2_176V1     1009c168     libeay32:ec_curve.obj
 0002:00014208       __EC_X9_62_CHAR2_191V1     1009c208     libeay32:ec_curve.obj
 0002:000142c0       __EC_X9_62_CHAR2_191V2     1009c2c0     libeay32:ec_curve.obj
 0002:00014378       __EC_X9_62_CHAR2_191V3     1009c378     libeay32:ec_curve.obj
 0002:00014430       __EC_X9_62_CHAR2_208W1     1009c430     libeay32:ec_curve.obj
 0002:000144e8       __EC_X9_62_CHAR2_239V1     1009c4e8     libeay32:ec_curve.obj
 0002:000145c0       __EC_X9_62_CHAR2_239V2     1009c5c0     libeay32:ec_curve.obj
 0002:00014698       __EC_X9_62_CHAR2_239V3     1009c698     libeay32:ec_curve.obj
 0002:00014770       __EC_X9_62_CHAR2_272W1     1009c770     libeay32:ec_curve.obj
 0002:00014858       __EC_X9_62_CHAR2_304W1     1009c858     libeay32:ec_curve.obj
 0002:00014958       __EC_X9_62_CHAR2_359V1     1009c958     libeay32:ec_curve.obj
 0002:00014a90       __EC_X9_62_CHAR2_368W1     1009ca90     libeay32:ec_curve.obj
 0002:00014bc0       __EC_X9_62_CHAR2_431R1     1009cbc0     libeay32:ec_curve.obj
 0002:00014d18       __EC_WTLS_1                1009cd18     libeay32:ec_curve.obj
 0002:00014d88       __EC_IPSEC_155_ID3         1009cd88     libeay32:ec_curve.obj
 0002:00014e10       __EC_IPSEC_185_ID4         1009ce10     libeay32:ec_curve.obj
 0002:00014eb0       __EC_brainpoolP160r1       1009ceb0     libeay32:ec_curve.obj
 0002:00014f38       __EC_brainpoolP160t1       1009cf38     libeay32:ec_curve.obj
 0002:00014fc0       __EC_brainpoolP192r1       1009cfc0     libeay32:ec_curve.obj
 0002:00015060       __EC_brainpoolP192t1       1009d060     libeay32:ec_curve.obj
 0002:00015100       __EC_brainpoolP224r1       1009d100     libeay32:ec_curve.obj
 0002:000151b8       __EC_brainpoolP224t1       1009d1b8     libeay32:ec_curve.obj
 0002:00015270       __EC_brainpoolP256r1       1009d270     libeay32:ec_curve.obj
 0002:00015340       __EC_brainpoolP256t1       1009d340     libeay32:ec_curve.obj
 0002:00015410       __EC_brainpoolP320r1       1009d410     libeay32:ec_curve.obj
 0002:00015510       __EC_brainpoolP320t1       1009d510     libeay32:ec_curve.obj
 0002:00015610       __EC_brainpoolP384r1       1009d610     libeay32:ec_curve.obj
 0002:00015740       __EC_brainpoolP384t1       1009d740     libeay32:ec_curve.obj
 0002:00015870       __EC_brainpoolP512r1       1009d870     libeay32:ec_curve.obj
 0002:00015a00       __EC_brainpoolP512t1       1009da00     libeay32:ec_curve.obj
 0002:00015b90       _curve_list                1009db90     libeay32:ec_curve.obj
 0002:000160a0       __EC_NIST_PRIME_192        1009e0a0     libeay32:ec_curve.obj
 0002:00016158       __EC_NIST_PRIME_224        1009e158     libeay32:ec_curve.obj
 0002:00016228       __EC_NIST_PRIME_384        1009e228     libeay32:ec_curve.obj
 0002:00016370       __EC_NIST_PRIME_521        1009e370     libeay32:ec_curve.obj
 0002:00016520       __EC_X9_62_PRIME_192V2     1009e520     libeay32:ec_curve.obj
 0002:000165d8       __EC_X9_62_PRIME_192V3     1009e5d8     libeay32:ec_curve.obj
 0002:00016690       __EC_X9_62_PRIME_239V1     1009e690     libeay32:ec_curve.obj
 0002:00016768       __EC_X9_62_PRIME_239V2     1009e768     libeay32:ec_curve.obj
 0002:00016840       __EC_X9_62_PRIME_239V3     1009e840     libeay32:ec_curve.obj
 0002:00016918       __EC_X9_62_PRIME_256V1     1009e918     libeay32:ec_curve.obj
 0002:00016a00       __EC_SECG_PRIME_112R1      1009ea00     libeay32:ec_curve.obj
 0002:00016a78       __EC_SECG_PRIME_112R2      1009ea78     libeay32:ec_curve.obj
 0002:00016af0       __EC_SECG_PRIME_128R1      1009eaf0     libeay32:ec_curve.obj
 0002:00016b78       __EC_SECG_PRIME_128R2      1009eb78     libeay32:ec_curve.obj
 0002:00016c00       __EC_SECG_PRIME_160K1      1009ec00     libeay32:ec_curve.obj
 0002:00016c90       __EC_SECG_PRIME_160R1      1009ec90     libeay32:ec_curve.obj
 0002:00016d38       __EC_SECG_PRIME_160R2      1009ed38     libeay32:ec_curve.obj
 0002:00016de0       __EC_SECG_PRIME_192K1      1009ede0     libeay32:ec_curve.obj
 0002:00016e80       __EC_SECG_PRIME_224K1      1009ee80     libeay32:ec_curve.obj
 0002:00016f40       __EC_SECG_PRIME_256K1      1009ef40     libeay32:ec_curve.obj
 0002:00017010       __EC_WTLS_8                1009f010     libeay32:ec_curve.obj
 0002:00017080       __EC_WTLS_9                1009f080     libeay32:ec_curve.obj
 0002:00017110       __EC_WTLS_12               1009f110     libeay32:ec_curve.obj
 0002:000171c8       __EC_SECG_CHAR2_113R1      1009f1c8     libeay32:ec_curve.obj
 0002:00017248       __EC_SECG_CHAR2_113R2      1009f248     libeay32:ec_curve.obj
 0002:00017ce0       _sigoid_srt                1009fce0     libeay32:obj_xref.obj
 0002:00017ec0       _sigoid_srt_xref           1009fec0     libeay32:obj_xref.obj
 0002:00017f58       _builtin_pbe               1009ff58     libeay32:evp_pbe.obj
 0002:0001811c       _X509_ATTRIBUTE_SET_ch_tt  100a011c     libeay32:x_attrib.obj
 0002:00018144       ?local_it@?1??X509_ATTRIBUTE_SET_it@@9@9 100a0144     libeay32:x_attrib.obj
 0002:00018160       _X509_ATTRIBUTE_seq_tt     100a0160     libeay32:x_attrib.obj
 0002:00018188       ?local_it@?1??X509_ATTRIBUTE_it@@9@9 100a0188     libeay32:x_attrib.obj
 0002:000181d8       _X509_ALGOR_seq_tt         100a01d8     libeay32:x_algor.obj
 0002:00018200       ?local_it@?1??X509_ALGOR_it@@9@9 100a0200     libeay32:x_algor.obj
 0002:0001821c       _X509_ALGORS_item_tt       100a021c     libeay32:x_algor.obj
 0002:00018230       ?local_it@?1??X509_ALGORS_it@@9@9 100a0230     libeay32:x_algor.obj
 0002:00018298       _tag2bit                   100a0298     libeay32:tasn_dec.obj
 0002:00018410       _RSAPrivateKey_aux         100a0410     libeay32:rsa_asn1.obj
 0002:00018428       _RSAPrivateKey_seq_tt      100a0428     libeay32:rsa_asn1.obj
 0002:000184dc       ?local_it@?1??RSAPrivateKey_it@@9@9 100a04dc     libeay32:rsa_asn1.obj
 0002:000184f8       _RSAPublicKey_aux          100a04f8     libeay32:rsa_asn1.obj
 0002:00018510       _RSAPublicKey_seq_tt       100a0510     libeay32:rsa_asn1.obj
 0002:00018538       ?local_it@?1??RSAPublicKey_it@@9@9 100a0538     libeay32:rsa_asn1.obj
 0002:00018554       ?local_it@?1??RSA_PSS_PARAMS_it@@9@9 100a0554     libeay32:rsa_asn1.obj
 0002:00018570       _RSA_PSS_PARAMS_seq_tt     100a0570     libeay32:rsa_asn1.obj
 0002:000185c0       _RSA_OAEP_PARAMS_seq_tt    100a05c0     libeay32:rsa_asn1.obj
 0002:000185fc       ?local_it@?1??RSA_OAEP_PARAMS_it@@9@9 100a05fc     libeay32:rsa_asn1.obj
 0002:00018760       _PKCS8_PRIV_KEY_INFO_aux   100a0760     libeay32:p8_pkey.obj
 0002:00018778       _PKCS8_PRIV_KEY_INFO_seq_tt 100a0778     libeay32:p8_pkey.obj
 0002:000187c8       ?local_it@?1??PKCS8_PRIV_KEY_INFO_it@@9@9 100a07c8     libeay32:p8_pkey.obj
 0002:00018814       _X509_PUBKEY_aux           100a0814     libeay32:x_pubkey.obj
 0002:0001882c       _X509_PUBKEY_seq_tt        100a082c     libeay32:x_pubkey.obj
 0002:00018854       ?local_it@?1??X509_PUBKEY_it@@9@9 100a0854     libeay32:x_pubkey.obj
 0002:00018a30       _DHparams_aux              100a0a30     libeay32:dh_asn1.obj
 0002:00018a48       _DHparams_seq_tt           100a0a48     libeay32:dh_asn1.obj
 0002:00018a84       ?local_it@?1??DHparams_it@@9@9 100a0a84     libeay32:dh_asn1.obj
 0002:00018aa0       _DHvparams_seq_tt          100a0aa0     libeay32:dh_asn1.obj
 0002:00018ac8       ?local_it@?1??DHvparams_it@@9@9 100a0ac8     libeay32:dh_asn1.obj
 0002:00018ae4       ?local_it@?1??DHxparams_it@@9@9 100a0ae4     libeay32:dh_asn1.obj
 0002:00018b00       _DHxparams_seq_tt          100a0b00     libeay32:dh_asn1.obj
 0002:00018cb8       _X9_62_PENTANOMIAL_seq_tt  100a0cb8     libeay32:ec_asn1.obj
 0002:00018cf4       ?local_it@?1??X9_62_PENTANOMIAL_it@@9@9 100a0cf4     libeay32:ec_asn1.obj
 0002:00018d10       _char_two_def_tt           100a0d10     libeay32:ec_asn1.obj
 0002:00018d24       ?internal_adb@?1??X9_62_CHARACTERISTIC_TWO_adb@@9@9 100a0d24     libeay32:ec_asn1.obj
 0002:00018d40       _X9_62_CHARACTERISTIC_TWO_adbtbl 100a0d40     libeay32:ec_asn1.obj
 0002:00018d88       _X9_62_CHARACTERISTIC_TWO_seq_tt 100a0d88     libeay32:ec_asn1.obj
 0002:00018dc4       ?local_it@?1??X9_62_CHARACTERISTIC_TWO_it@@9@9 100a0dc4     libeay32:ec_asn1.obj
 0002:00018de0       _fieldID_def_tt            100a0de0     libeay32:ec_asn1.obj
 0002:00018df4       _X9_62_FIELDID_adbtbl      100a0df4     libeay32:ec_asn1.obj
 0002:00018e24       ?internal_adb@?1??X9_62_FIELDID_adb@@9@9 100a0e24     libeay32:ec_asn1.obj
 0002:00018e40       _X9_62_FIELDID_seq_tt      100a0e40     libeay32:ec_asn1.obj
 0002:00018e68       ?local_it@?1??X9_62_FIELDID_it@@9@9 100a0e68     libeay32:ec_asn1.obj
 0002:00018e84       _X9_62_CURVE_seq_tt        100a0e84     libeay32:ec_asn1.obj
 0002:00018ec0       ?local_it@?1??X9_62_CURVE_it@@9@9 100a0ec0     libeay32:ec_asn1.obj
 0002:00018edc       ?local_it@?1??ECPARAMETERS_it@@9@9 100a0edc     libeay32:ec_asn1.obj
 0002:00018ef8       _ECPARAMETERS_seq_tt       100a0ef8     libeay32:ec_asn1.obj
 0002:00018f70       _ECPKPARAMETERS_ch_tt      100a0f70     libeay32:ec_asn1.obj
 0002:00018fac       ?local_it@?1??ECPKPARAMETERS_it@@9@9 100a0fac     libeay32:ec_asn1.obj
 0002:00018fc8       _EC_PRIVATEKEY_seq_tt      100a0fc8     libeay32:ec_asn1.obj
 0002:00019018       ?local_it@?1??EC_PRIVATEKEY_it@@9@9 100a1018     libeay32:ec_asn1.obj
 0002:000191c8       ?local_it@?1??CMS_OtherRecipientInfo_it@@9@9 100a11c8     libeay32:cms_asn1.obj
 0002:000191e4       _CMS_RecipientInfo_aux     100a11e4     libeay32:cms_asn1.obj
 0002:000191fc       ?local_it@?1??CMS_RecipientInfo_it@@9@9 100a11fc     libeay32:cms_asn1.obj
 0002:00019218       _CMS_RecipientInfo_ch_tt   100a1218     libeay32:cms_asn1.obj
 0002:0001927c       ?local_it@?1??CMS_EnvelopedData_it@@9@9 100a127c     libeay32:cms_asn1.obj
 0002:00019298       _CMS_EnvelopedData_seq_tt  100a1298     libeay32:cms_asn1.obj
 0002:000192fc       ?local_it@?1??CMS_DigestedData_it@@9@9 100a12fc     libeay32:cms_asn1.obj
 0002:00019318       _CMS_DigestedData_seq_tt   100a1318     libeay32:cms_asn1.obj
 0002:00019368       _CMS_EncryptedData_seq_tt  100a1368     libeay32:cms_asn1.obj
 0002:000193a4       ?local_it@?1??CMS_EncryptedData_it@@9@9 100a13a4     libeay32:cms_asn1.obj
 0002:000193c0       _CMS_AuthenticatedData_seq_tt 100a13c0     libeay32:cms_asn1.obj
 0002:00019474       ?local_it@?1??CMS_AuthenticatedData_it@@9@9 100a1474     libeay32:cms_asn1.obj
 0002:00019490       _CMS_CompressedData_seq_tt 100a1490     libeay32:cms_asn1.obj
 0002:000194cc       ?local_it@?1??CMS_CompressedData_it@@9@9 100a14cc     libeay32:cms_asn1.obj
 0002:000194e8       _cms_default_tt            100a14e8     libeay32:cms_asn1.obj
 0002:000194fc       ?internal_adb@?1??CMS_ContentInfo_adb@@9@9 100a14fc     libeay32:cms_asn1.obj
 0002:00019518       _CMS_ContentInfo_adbtbl    100a1518     libeay32:cms_asn1.obj
 0002:000195c0       _CMS_ContentInfo_aux       100a15c0     libeay32:cms_asn1.obj
 0002:000195d8       _CMS_ContentInfo_seq_tt    100a15d8     libeay32:cms_asn1.obj
 0002:00019600       ?local_it@?1??CMS_ContentInfo_it@@9@9 100a1600     libeay32:cms_asn1.obj
 0002:0001961c       _CMS_Attributes_Sign_item_tt 100a161c     libeay32:cms_asn1.obj
 0002:00019630       ?local_it@?1??CMS_Attributes_Sign_it@@9@9 100a1630     libeay32:cms_asn1.obj
 0002:0001964c       _CMS_Attributes_Verify_item_tt 100a164c     libeay32:cms_asn1.obj
 0002:00019660       ?local_it@?1??CMS_Attributes_Verify_it@@9@9 100a1660     libeay32:cms_asn1.obj
 0002:0001967c       _CMS_ReceiptsFrom_ch_tt    100a167c     libeay32:cms_asn1.obj
 0002:000196a4       ?local_it@?1??CMS_ReceiptsFrom_it@@9@9 100a16a4     libeay32:cms_asn1.obj
 0002:000196c0       _CMS_ReceiptRequest_seq_tt 100a16c0     libeay32:cms_asn1.obj
 0002:000196fc       ?local_it@?1??CMS_ReceiptRequest_it@@9@9 100a16fc     libeay32:cms_asn1.obj
 0002:00019718       _CMS_Receipt_seq_tt        100a1718     libeay32:cms_asn1.obj
 0002:00019768       ?local_it@?1??CMS_Receipt_it@@9@9 100a1768     libeay32:cms_asn1.obj
 0002:00019784       _CMS_SharedInfo_seq_tt     100a1784     libeay32:cms_asn1.obj
 0002:000197c0       ?local_it@?1??CMS_SharedInfo_it@@9@9 100a17c0     libeay32:cms_asn1.obj
 0002:000197dc       _CMS_IssuerAndSerialNumber_seq_tt 100a17dc     libeay32:cms_asn1.obj
 0002:00019804       ?local_it@?1??CMS_IssuerAndSerialNumber_it@@9@9 100a1804     libeay32:cms_asn1.obj
 0002:00019820       _CMS_OtherCertificateFormat_seq_tt 100a1820     libeay32:cms_asn1.obj
 0002:00019848       ?local_it@?1??CMS_OtherCertificateFormat_it@@9@9 100a1848     libeay32:cms_asn1.obj
 0002:00019864       ?local_it@?1??CMS_CertificateChoices_it@@9@9 100a1864     libeay32:cms_asn1.obj
 0002:00019880       _CMS_CertificateChoices_ch_tt 100a1880     libeay32:cms_asn1.obj
 0002:000198e4       _CMS_SignerIdentifier_ch_tt 100a18e4     libeay32:cms_asn1.obj
 0002:0001990c       ?local_it@?1??CMS_SignerIdentifier_it@@9@9 100a190c     libeay32:cms_asn1.obj
 0002:00019928       _CMS_EncapsulatedContentInfo_seq_tt 100a1928     libeay32:cms_asn1.obj
 0002:00019950       ?local_it@?1??CMS_EncapsulatedContentInfo_it@@9@9 100a1950     libeay32:cms_asn1.obj
 0002:0001996c       _CMS_SignerInfo_aux        100a196c     libeay32:cms_asn1.obj
 0002:00019984       ?local_it@?1??CMS_SignerInfo_it@@9@9 100a1984     libeay32:cms_asn1.obj
 0002:000199a0       _CMS_SignerInfo_seq_tt     100a19a0     libeay32:cms_asn1.obj
 0002:00019a2c       _CMS_OtherRevocationInfoFormat_seq_tt 100a1a2c     libeay32:cms_asn1.obj
 0002:00019a54       ?local_it@?1??CMS_OtherRevocationInfoFormat_it@@9@9 100a1a54     libeay32:cms_asn1.obj
 0002:00019a70       _CMS_RevocationInfoChoice_ch_tt 100a1a70     libeay32:cms_asn1.obj
 0002:00019a98       ?local_it@?1??CMS_RevocationInfoChoice_it@@9@9 100a1a98     libeay32:cms_asn1.obj
 0002:00019ab4       ?local_it@?1??CMS_SignedData_it@@9@9 100a1ab4     libeay32:cms_asn1.obj
 0002:00019ad0       _CMS_SignedData_seq_tt     100a1ad0     libeay32:cms_asn1.obj
 0002:00019b48       _CMS_OriginatorInfo_seq_tt 100a1b48     libeay32:cms_asn1.obj
 0002:00019b70       ?local_it@?1??CMS_OriginatorInfo_it@@9@9 100a1b70     libeay32:cms_asn1.obj
 0002:00019b8c       _CMS_EncryptedContentInfo_seq_tt 100a1b8c     libeay32:cms_asn1.obj
 0002:00019bc8       ?local_it@?1??CMS_EncryptedContentInfo_it@@9@9 100a1bc8     libeay32:cms_asn1.obj
 0002:00019be4       ?local_it@?1??CMS_KeyTransRecipientInfo_it@@9@9 100a1be4     libeay32:cms_asn1.obj
 0002:00019c00       _CMS_KeyTransRecipientInfo_seq_tt 100a1c00     libeay32:cms_asn1.obj
 0002:00019c50       _CMS_OtherKeyAttribute_seq_tt 100a1c50     libeay32:cms_asn1.obj
 0002:00019c78       ?local_it@?1??CMS_OtherKeyAttribute_it@@9@9 100a1c78     libeay32:cms_asn1.obj
 0002:00019c94       _CMS_RecipientKeyIdentifier_seq_tt 100a1c94     libeay32:cms_asn1.obj
 0002:00019cd0       ?local_it@?1??CMS_RecipientKeyIdentifier_it@@9@9 100a1cd0     libeay32:cms_asn1.obj
 0002:00019cec       _CMS_KeyAgreeRecipientIdentifier_ch_tt 100a1cec     libeay32:cms_asn1.obj
 0002:00019d14       ?local_it@?1??CMS_KeyAgreeRecipientIdentifier_it@@9@9 100a1d14     libeay32:cms_asn1.obj
 0002:00019d30       _CMS_RecipientEncryptedKey_aux 100a1d30     libeay32:cms_asn1.obj
 0002:00019d48       _CMS_RecipientEncryptedKey_seq_tt 100a1d48     libeay32:cms_asn1.obj
 0002:00019d70       ?local_it@?1??CMS_RecipientEncryptedKey_it@@9@9 100a1d70     libeay32:cms_asn1.obj
 0002:00019d8c       _CMS_OriginatorPublicKey_seq_tt 100a1d8c     libeay32:cms_asn1.obj
 0002:00019db4       ?local_it@?1??CMS_OriginatorPublicKey_it@@9@9 100a1db4     libeay32:cms_asn1.obj
 0002:00019dd0       _CMS_OriginatorIdentifierOrKey_ch_tt 100a1dd0     libeay32:cms_asn1.obj
 0002:00019e0c       ?local_it@?1??CMS_OriginatorIdentifierOrKey_it@@9@9 100a1e0c     libeay32:cms_asn1.obj
 0002:00019e28       _CMS_KeyAgreeRecipientInfo_aux 100a1e28     libeay32:cms_asn1.obj
 0002:00019e40       _CMS_KeyAgreeRecipientInfo_seq_tt 100a1e40     libeay32:cms_asn1.obj
 0002:00019ea4       ?local_it@?1??CMS_KeyAgreeRecipientInfo_it@@9@9 100a1ea4     libeay32:cms_asn1.obj
 0002:00019ec0       _CMS_KEKIdentifier_seq_tt  100a1ec0     libeay32:cms_asn1.obj
 0002:00019efc       ?local_it@?1??CMS_KEKIdentifier_it@@9@9 100a1efc     libeay32:cms_asn1.obj
 0002:00019f18       _CMS_KEKRecipientInfo_seq_tt 100a1f18     libeay32:cms_asn1.obj
 0002:00019f68       ?local_it@?1??CMS_KEKRecipientInfo_it@@9@9 100a1f68     libeay32:cms_asn1.obj
 0002:00019f84       ?local_it@?1??CMS_PasswordRecipientInfo_it@@9@9 100a1f84     libeay32:cms_asn1.obj
 0002:00019fa0       _CMS_PasswordRecipientInfo_seq_tt 100a1fa0     libeay32:cms_asn1.obj
 0002:00019ff0       _CMS_OtherRecipientInfo_seq_tt 100a1ff0     libeay32:cms_asn1.obj
 0002:0001a7b8       _primes                    100a27b8     libeay32:bn_prime.obj
 0002:0001b7f0       _char_type                 100a37f0     libeay32:a_strex.obj
 0002:0001b870       ?hexdig@?1??do_hex_dump@@9@9 100a3870     libeay32:a_strex.obj
 0002:0001b884       _tag2nbyte                 100a3884     libeay32:a_strex.obj
 0002:0001b8f8       _X509_EXTENSION_seq_tt     100a38f8     libeay32:x_exten.obj
 0002:0001b934       ?local_it@?1??X509_EXTENSION_it@@9@9 100a3934     libeay32:x_exten.obj
 0002:0001b950       _X509_EXTENSIONS_item_tt   100a3950     libeay32:x_exten.obj
 0002:0001b964       ?local_it@?1??X509_EXTENSIONS_it@@9@9 100a3964     libeay32:x_exten.obj
 0002:0001b9e8       _OTHERNAME_seq_tt          100a39e8     libeay32:v3_genn.obj
 0002:0001ba10       ?local_it@?1??OTHERNAME_it@@9@9 100a3a10     libeay32:v3_genn.obj
 0002:0001ba2c       _EDIPARTYNAME_seq_tt       100a3a2c     libeay32:v3_genn.obj
 0002:0001ba54       ?local_it@?1??EDIPARTYNAME_it@@9@9 100a3a54     libeay32:v3_genn.obj
 0002:0001ba70       _GENERAL_NAME_ch_tt        100a3a70     libeay32:v3_genn.obj
 0002:0001bb24       ?local_it@?1??GENERAL_NAME_it@@9@9 100a3b24     libeay32:v3_genn.obj
 0002:0001bb40       _GENERAL_NAMES_item_tt     100a3b40     libeay32:v3_genn.obj
 0002:0001bb54       ?local_it@?1??GENERAL_NAMES_it@@9@9 100a3b54     libeay32:v3_genn.obj
 0002:0001bce0       _ACCESS_DESCRIPTION_seq_tt 100a3ce0     libeay32:v3_info.obj
 0002:0001bd08       ?local_it@?1??ACCESS_DESCRIPTION_it@@9@9 100a3d08     libeay32:v3_info.obj
 0002:0001bd24       _AUTHORITY_INFO_ACCESS_item_tt 100a3d24     libeay32:v3_info.obj
 0002:0001bd38       ?local_it@?1??AUTHORITY_INFO_ACCESS_it@@9@9 100a3d38     libeay32:v3_info.obj
 0002:0001bdbc       _dummy_nid                 100a3dbc     libeay32:tb_dh.obj
 0002:0001bdd8       _dummy_nid                 100a3dd8     libeay32:tb_dsa.obj
 0002:0001bddc       ?local_it@?1??BIGNUM_it@@9@9 100a3ddc     libeay32:x_bignum.obj
 0002:0001bdf8       ?local_it@?1??CBIGNUM_it@@9@9 100a3df8     libeay32:x_bignum.obj
 0002:0001be1c       ?local_it@?1??LONG_it@@9@9 100a3e1c     libeay32:x_long.obj
 0002:0001be38       ?local_it@?1??ZLONG_it@@9@9 100a3e38     libeay32:x_long.obj
 0002:0001bee8       _dummy_nid                 100a3ee8     libeay32:tb_ecdsa.obj
 0002:0001beec       _ECDSA_SIG_seq_tt          100a3eec     libeay32:ecs_asn1.obj
 0002:0001bf14       ?local_it@?1??ECDSA_SIG_it@@9@9 100a3f14     libeay32:ecs_asn1.obj
 0002:0001c060       _PKCS7_ENVELOPE_seq_tt     100a4060     libeay32:pk7_asn1.obj
 0002:0001c09c       ?local_it@?1??PKCS7_ENVELOPE_it@@9@9 100a409c     libeay32:pk7_asn1.obj
 0002:0001c0b8       _PKCS7_RECIP_INFO_aux      100a40b8     libeay32:pk7_asn1.obj
 0002:0001c0d0       _PKCS7_RECIP_INFO_seq_tt   100a40d0     libeay32:pk7_asn1.obj
 0002:0001c120       ?local_it@?1??PKCS7_RECIP_INFO_it@@9@9 100a4120     libeay32:pk7_asn1.obj
 0002:0001c13c       _PKCS7_ENC_CONTENT_seq_tt  100a413c     libeay32:pk7_asn1.obj
 0002:0001c178       ?local_it@?1??PKCS7_ENC_CONTENT_it@@9@9 100a4178     libeay32:pk7_asn1.obj
 0002:0001c194       ?local_it@?1??PKCS7_SIGN_ENVELOPE_it@@9@9 100a4194     libeay32:pk7_asn1.obj
 0002:0001c1b0       _PKCS7_SIGN_ENVELOPE_seq_tt 100a41b0     libeay32:pk7_asn1.obj
 0002:0001c23c       _PKCS7_ENCRYPT_seq_tt      100a423c     libeay32:pk7_asn1.obj
 0002:0001c264       ?local_it@?1??PKCS7_ENCRYPT_it@@9@9 100a4264     libeay32:pk7_asn1.obj
 0002:0001c280       _PKCS7_DIGEST_seq_tt       100a4280     libeay32:pk7_asn1.obj
 0002:0001c2d0       ?local_it@?1??PKCS7_DIGEST_it@@9@9 100a42d0     libeay32:pk7_asn1.obj
 0002:0001c2ec       _PKCS7_ATTR_SIGN_item_tt   100a42ec     libeay32:pk7_asn1.obj
 0002:0001c300       ?local_it@?1??PKCS7_ATTR_SIGN_it@@9@9 100a4300     libeay32:pk7_asn1.obj
 0002:0001c31c       _PKCS7_ATTR_VERIFY_item_tt 100a431c     libeay32:pk7_asn1.obj
 0002:0001c330       ?local_it@?1??PKCS7_ATTR_VERIFY_it@@9@9 100a4330     libeay32:pk7_asn1.obj
 0002:0001c34c       _p7default_tt              100a434c     libeay32:pk7_asn1.obj
 0002:0001c360       _PKCS7_adbtbl              100a4360     libeay32:pk7_asn1.obj
 0002:0001c3f0       ?internal_adb@?1??PKCS7_adb@@9@9 100a43f0     libeay32:pk7_asn1.obj
 0002:0001c40c       _PKCS7_aux                 100a440c     libeay32:pk7_asn1.obj
 0002:0001c424       _PKCS7_seq_tt              100a4424     libeay32:pk7_asn1.obj
 0002:0001c44c       ?local_it@?1??PKCS7_it@@9@9 100a444c     libeay32:pk7_asn1.obj
 0002:0001c468       _PKCS7_SIGNED_seq_tt       100a4468     libeay32:pk7_asn1.obj
 0002:0001c4e0       ?local_it@?1??PKCS7_SIGNED_it@@9@9 100a44e0     libeay32:pk7_asn1.obj
 0002:0001c4fc       _PKCS7_SIGNER_INFO_aux     100a44fc     libeay32:pk7_asn1.obj
 0002:0001c514       ?local_it@?1??PKCS7_SIGNER_INFO_it@@9@9 100a4514     libeay32:pk7_asn1.obj
 0002:0001c530       _PKCS7_SIGNER_INFO_seq_tt  100a4530     libeay32:pk7_asn1.obj
 0002:0001c5bc       _PKCS7_ISSUER_AND_SERIAL_seq_tt 100a45bc     libeay32:pk7_asn1.obj
 0002:0001c5e4       ?local_it@?1??PKCS7_ISSUER_AND_SERIAL_it@@9@9 100a45e4     libeay32:pk7_asn1.obj
 0002:0001c7fc       _X509_NAME_ENTRY_seq_tt    100a47fc     libeay32:x_name.obj
 0002:0001c824       ?local_it@?1??X509_NAME_ENTRY_it@@9@9 100a4824     libeay32:x_name.obj
 0002:0001c840       _X509_NAME_ENTRIES_item_tt 100a4840     libeay32:x_name.obj
 0002:0001c854       ?local_it@?1??X509_NAME_ENTRIES_it@@9@9 100a4854     libeay32:x_name.obj
 0002:0001c870       _X509_NAME_INTERNAL_item_tt 100a4870     libeay32:x_name.obj
 0002:0001c884       ?local_it@?1??X509_NAME_INTERNAL_it@@9@9 100a4884     libeay32:x_name.obj
 0002:0001c8bc       ?local_it@?1??X509_NAME_it@@9@9 100a48bc     libeay32:x_name.obj
 0002:0001c948       _X509_CINF_aux             100a4948     libeay32:x_x509.obj
 0002:0001c960       _X509_CINF_seq_tt          100a4960     libeay32:x_x509.obj
 0002:0001ca28       ?local_it@?1??X509_CINF_it@@9@9 100a4a28     libeay32:x_x509.obj
 0002:0001ca44       _X509_aux                  100a4a44     libeay32:x_x509.obj
 0002:0001ca5c       _X509_seq_tt               100a4a5c     libeay32:x_x509.obj
 0002:0001ca98       ?local_it@?1??X509_it@@9@9 100a4a98     libeay32:x_x509.obj
 0002:0001cb10       _X509_REVOKED_seq_tt       100a4b10     libeay32:x_crl.obj
 0002:0001cb4c       ?local_it@?1??X509_REVOKED_it@@9@9 100a4b4c     libeay32:x_crl.obj
 0002:0001cb68       _X509_CRL_INFO_aux         100a4b68     libeay32:x_crl.obj
 0002:0001cb80       _X509_CRL_INFO_seq_tt      100a4b80     libeay32:x_crl.obj
 0002:0001cc0c       ?local_it@?1??X509_CRL_INFO_it@@9@9 100a4c0c     libeay32:x_crl.obj
 0002:0001cc28       _X509_CRL_aux              100a4c28     libeay32:x_crl.obj
 0002:0001cc40       _X509_CRL_seq_tt           100a4c40     libeay32:x_crl.obj
 0002:0001cc7c       ?local_it@?1??X509_CRL_it@@9@9 100a4c7c     libeay32:x_crl.obj
 0002:0001cd0c       ?hex@?1??X509_NAME_oneline@@9@9 100a4d0c     libeay32:x509_obj.obj
 0002:0001cdd4       ?local_it@?1??ASN1_TIME_it@@9@9 100a4dd4     libeay32:a_time.obj
 0002:0001cf50       ?supported_nids@?1??X509_supported_extension@@9@9 100a4f50     libeay32:v3_purp.obj
 0002:0001cfb8       _des_ede_cbc               100a4fb8     libeay32:e_des3.obj
 0002:0001cfec       _des_ede_cfb64             100a4fec     libeay32:e_des3.obj
 0002:0001d020       _des_ede_ofb               100a5020     libeay32:e_des3.obj
 0002:0001d054       _des_ede_ecb               100a5054     libeay32:e_des3.obj
 0002:0001d088       _des_ede3_cbc              100a5088     libeay32:e_des3.obj
 0002:0001d0bc       _des_ede3_cfb64            100a50bc     libeay32:e_des3.obj
 0002:0001d0f0       _des_ede3_ofb              100a50f0     libeay32:e_des3.obj
 0002:0001d124       _des_ede3_ecb              100a5124     libeay32:e_des3.obj
 0002:0001d158       _des_ede3_cfb1             100a5158     libeay32:e_des3.obj
 0002:0001d18c       _des_ede3_cfb8             100a518c     libeay32:e_des3.obj
 0002:0001d1c0       _wrap_iv                   100a51c0     libeay32:e_des3.obj
 0002:0001d1c8       _des3_wrap                 100a51c8     libeay32:e_des3.obj
 0002:0001d1fc       _aes_128_cbc               100a51fc     libeay32:e_aes.obj
 0002:0001d230       _aes_128_ecb               100a5230     libeay32:e_aes.obj
 0002:0001d264       _aes_128_ofb               100a5264     libeay32:e_aes.obj
 0002:0001d298       _aes_128_cfb               100a5298     libeay32:e_aes.obj
 0002:0001d2cc       _aes_128_cfb1              100a52cc     libeay32:e_aes.obj
 0002:0001d300       _aes_128_cfb8              100a5300     libeay32:e_aes.obj
 0002:0001d334       _aes_128_ctr               100a5334     libeay32:e_aes.obj
 0002:0001d368       _aes_192_cbc               100a5368     libeay32:e_aes.obj
 0002:0001d39c       _aes_192_ecb               100a539c     libeay32:e_aes.obj
 0002:0001d3d0       _aes_192_ofb               100a53d0     libeay32:e_aes.obj
 0002:0001d404       _aes_192_cfb               100a5404     libeay32:e_aes.obj
 0002:0001d438       _aes_192_cfb1              100a5438     libeay32:e_aes.obj
 0002:0001d46c       _aes_192_cfb8              100a546c     libeay32:e_aes.obj
 0002:0001d4a0       _aes_192_ctr               100a54a0     libeay32:e_aes.obj
 0002:0001d4d4       _aes_256_cbc               100a54d4     libeay32:e_aes.obj
 0002:0001d508       _aes_256_ecb               100a5508     libeay32:e_aes.obj
 0002:0001d53c       _aes_256_ofb               100a553c     libeay32:e_aes.obj
 0002:0001d570       _aes_256_cfb               100a5570     libeay32:e_aes.obj
 0002:0001d5a4       _aes_256_cfb1              100a55a4     libeay32:e_aes.obj
 0002:0001d5d8       _aes_256_cfb8              100a55d8     libeay32:e_aes.obj
 0002:0001d60c       _aes_256_ctr               100a560c     libeay32:e_aes.obj
 0002:0001d640       _aes_128_gcm               100a5640     libeay32:e_aes.obj
 0002:0001d674       _aes_192_gcm               100a5674     libeay32:e_aes.obj
 0002:0001d6a8       _aes_256_gcm               100a56a8     libeay32:e_aes.obj
 0002:0001d6dc       _aes_128_xts               100a56dc     libeay32:e_aes.obj
 0002:0001d710       _aes_256_xts               100a5710     libeay32:e_aes.obj
 0002:0001d744       _aes_128_ccm               100a5744     libeay32:e_aes.obj
 0002:0001d778       _aes_192_ccm               100a5778     libeay32:e_aes.obj
 0002:0001d7ac       _aes_256_ccm               100a57ac     libeay32:e_aes.obj
 0002:0001d7e0       _aes_128_wrap              100a57e0     libeay32:e_aes.obj
 0002:0001d814       _aes_192_wrap              100a5814     libeay32:e_aes.obj
 0002:0001d848       _aes_256_wrap              100a5848     libeay32:e_aes.obj
 0002:0001d938       ?tag2str@?1??ASN1_tag2str@@9@9 100a5938     libeay32:asn1_par.obj
 0002:0001d9b4       ?fmt@?1??asn1_print_info@@9@9 100a59b4     libeay32:asn1_par.obj
 0002:0001db78       _md5_md                    100a5b78     libeay32:m_md5.obj
 0002:0001dbc8       _X509_REQ_INFO_aux         100a5bc8     libeay32:x_req.obj
 0002:0001dbe0       _X509_REQ_INFO_seq_tt      100a5be0     libeay32:x_req.obj
 0002:0001dc30       ?local_it@?1??X509_REQ_INFO_it@@9@9 100a5c30     libeay32:x_req.obj
 0002:0001dc4c       _X509_REQ_aux              100a5c4c     libeay32:x_req.obj
 0002:0001dc64       _X509_REQ_seq_tt           100a5c64     libeay32:x_req.obj
 0002:0001dca0       ?local_it@?1??X509_REQ_it@@9@9 100a5ca0     libeay32:x_req.obj
 0002:0001dd08       _tbl_standard              100a5d08     libeay32:a_strnid.obj
 0002:0001e0f0       _BASIC_CONSTRAINTS_seq_tt  100a60f0     libeay32:v3_bcons.obj
 0002:0001e118       ?local_it@?1??BASIC_CONSTRAINTS_it@@9@9 100a6118     libeay32:v3_bcons.obj
 0002:0001e42c       _EXTENDED_KEY_USAGE_item_tt 100a642c     libeay32:v3_extku.obj
 0002:0001e440       ?local_it@?1??EXTENDED_KEY_USAGE_it@@9@9 100a6440     libeay32:v3_extku.obj
 0002:0001e4c4       _PKEY_USAGE_PERIOD_seq_tt  100a64c4     libeay32:v3_pku.obj
 0002:0001e4ec       ?local_it@?1??PKEY_USAGE_PERIOD_it@@9@9 100a64ec     libeay32:v3_pku.obj
 0002:0001e588       _SXNETID_seq_tt            100a6588     libeay32:v3_sxnet.obj
 0002:0001e5b0       ?local_it@?1??SXNETID_it@@9@9 100a65b0     libeay32:v3_sxnet.obj
 0002:0001e5cc       _SXNET_seq_tt              100a65cc     libeay32:v3_sxnet.obj
 0002:0001e5f4       ?local_it@?1??SXNET_it@@9@9 100a65f4     libeay32:v3_sxnet.obj
 0002:0001ed68       _CERTIFICATEPOLICIES_item_tt 100a6d68     libeay32:v3_cpols.obj
 0002:0001ed7c       ?local_it@?1??CERTIFICATEPOLICIES_it@@9@9 100a6d7c     libeay32:v3_cpols.obj
 0002:0001ed98       _POLICYINFO_seq_tt         100a6d98     libeay32:v3_cpols.obj
 0002:0001edc0       ?local_it@?1??POLICYINFO_it@@9@9 100a6dc0     libeay32:v3_cpols.obj
 0002:0001eddc       _policydefault_tt          100a6ddc     libeay32:v3_cpols.obj
 0002:0001edf0       _POLICYQUALINFO_adbtbl     100a6df0     libeay32:v3_cpols.obj
 0002:0001ee20       ?internal_adb@?1??POLICYQUALINFO_adb@@9@9 100a6e20     libeay32:v3_cpols.obj
 0002:0001ee3c       _POLICYQUALINFO_seq_tt     100a6e3c     libeay32:v3_cpols.obj
 0002:0001ee64       ?local_it@?1??POLICYQUALINFO_it@@9@9 100a6e64     libeay32:v3_cpols.obj
 0002:0001ee80       _USERNOTICE_seq_tt         100a6e80     libeay32:v3_cpols.obj
 0002:0001eea8       ?local_it@?1??USERNOTICE_it@@9@9 100a6ea8     libeay32:v3_cpols.obj
 0002:0001eec4       _NOTICEREF_seq_tt          100a6ec4     libeay32:v3_cpols.obj
 0002:0001eeec       ?local_it@?1??NOTICEREF_it@@9@9 100a6eec     libeay32:v3_cpols.obj
 0002:0001f120       _reason_flags              100a7120     libeay32:v3_crld.obj
 0002:0001f198       _DIST_POINT_NAME_aux       100a7198     libeay32:v3_crld.obj
 0002:0001f1b0       _DIST_POINT_NAME_ch_tt     100a71b0     libeay32:v3_crld.obj
 0002:0001f1d8       ?local_it@?1??DIST_POINT_NAME_it@@9@9 100a71d8     libeay32:v3_crld.obj
 0002:0001f1f4       _DIST_POINT_seq_tt         100a71f4     libeay32:v3_crld.obj
 0002:0001f230       ?local_it@?1??DIST_POINT_it@@9@9 100a7230     libeay32:v3_crld.obj
 0002:0001f24c       _CRL_DIST_POINTS_item_tt   100a724c     libeay32:v3_crld.obj
 0002:0001f260       ?local_it@?1??CRL_DIST_POINTS_it@@9@9 100a7260     libeay32:v3_crld.obj
 0002:0001f27c       ?local_it@?1??ISSUING_DIST_POINT_it@@9@9 100a727c     libeay32:v3_crld.obj
 0002:0001f298       _ISSUING_DIST_POINT_seq_tt 100a7298     libeay32:v3_crld.obj
 0002:0001f64c       _POLICY_MAPPING_seq_tt     100a764c     libeay32:v3_pmaps.obj
 0002:0001f674       ?local_it@?1??POLICY_MAPPING_it@@9@9 100a7674     libeay32:v3_pmaps.obj
 0002:0001f690       _POLICY_MAPPINGS_item_tt   100a7690     libeay32:v3_pmaps.obj
 0002:0001f6a4       ?local_it@?1??POLICY_MAPPINGS_it@@9@9 100a76a4     libeay32:v3_pmaps.obj
 0002:0001f75c       _POLICY_CONSTRAINTS_seq_tt 100a775c     libeay32:v3_pcons.obj
 0002:0001f784       ?local_it@?1??POLICY_CONSTRAINTS_it@@9@9 100a7784     libeay32:v3_pcons.obj
 0002:0001f868       _GENERAL_SUBTREE_seq_tt    100a7868     libeay32:v3_ncons.obj
 0002:0001f8a4       ?local_it@?1??GENERAL_SUBTREE_it@@9@9 100a78a4     libeay32:v3_ncons.obj
 0002:0001f8c0       _NAME_CONSTRAINTS_seq_tt   100a78c0     libeay32:v3_ncons.obj
 0002:0001f8e8       ?local_it@?1??NAME_CONSTRAINTS_it@@9@9 100a78e8     libeay32:v3_ncons.obj
 0002:0001fb50       ?ret@?1??EC_GFp_mont_method@@9@9 100a7b50     libeay32:ecp_mont.obj
 0002:0001fc08       ?ret@?1??EC_GFp_nist_method@@9@9 100a7c08     libeay32:ecp_nist.obj
 0002:0001fcc0       ?ret@?1??EC_GF2m_simple_method@@9@9 100a7cc0     libeay32:ec2_smpl.obj
 0002:0001fda4       _dummy_nid                 100a7da4     libeay32:tb_ecdh.obj
 0002:0001fda8       _PBE2PARAM_seq_tt          100a7da8     libeay32:p5_pbev2.obj
 0002:0001fdd0       ?local_it@?1??PBE2PARAM_it@@9@9 100a7dd0     libeay32:p5_pbev2.obj
 0002:0001fdec       ?local_it@?1??PBKDF2PARAM_it@@9@9 100a7dec     libeay32:p5_pbev2.obj
 0002:0001fe08       _PBKDF2PARAM_seq_tt        100a7e08     libeay32:p5_pbev2.obj
 0002:0001fea4       _PBEPARAM_seq_tt           100a7ea4     libeay32:p5_pbe.obj
 0002:0001fecc       ?local_it@?1??PBEPARAM_it@@9@9 100a7ecc     libeay32:p5_pbe.obj
 0002:0001ff2c       _X509_VAL_seq_tt           100a7f2c     libeay32:x_val.obj
 0002:0001ff54       ?local_it@?1??X509_VAL_it@@9@9 100a7f54     libeay32:x_val.obj
 0002:0001ff80       _X509_CERT_AUX_seq_tt      100a7f80     libeay32:x_x509a.obj
 0002:0001ffe4       ?local_it@?1??X509_CERT_AUX_it@@9@9 100a7fe4     libeay32:x_x509a.obj
 0002:00020000       _X509_CERT_PAIR_seq_tt     100a8000     libeay32:x_x509a.obj
 0002:00020028       ?local_it@?1??X509_CERT_PAIR_it@@9@9 100a8028     libeay32:x_x509a.obj
 0002:0002008c       _AUTHORITY_KEYID_seq_tt    100a808c     libeay32:v3_akeya.obj
 0002:000200c8       ?local_it@?1??AUTHORITY_KEYID_it@@9@9 100a80c8     libeay32:v3_akeya.obj
 0002:00020168       _Te0                       100a8168     libeay32:aes_core.obj
 0002:00020568       _Te1                       100a8568     libeay32:aes_core.obj
 0002:00020968       _Te2                       100a8968     libeay32:aes_core.obj
 0002:00020d68       _Te3                       100a8d68     libeay32:aes_core.obj
 0002:00021168       _Td0                       100a9168     libeay32:aes_core.obj
 0002:00021568       _Td1                       100a9568     libeay32:aes_core.obj
 0002:00021968       _Td2                       100a9968     libeay32:aes_core.obj
 0002:00021d68       _Td3                       100a9d68     libeay32:aes_core.obj
 0002:00022168       _Td4                       100aa168     libeay32:aes_core.obj
 0002:00022268       _rcon                      100aa268     libeay32:aes_core.obj
 0002:00022290       _default_iv                100aa290     libeay32:wrap128.obj
 0002:000222b0       ?min@?1??asn1_utctime_to_tm@@9@9 100aa2b0     libeay32:a_utctm.obj
 0002:000222d0       ?max@?1??asn1_utctime_to_tm@@9@9 100aa2d0     libeay32:a_utctm.obj
 0002:00022324       ?min@?1??asn1_generalizedtime_to_tm@@9@9 100aa324     libeay32:a_gentm.obj
 0002:00022348       ?max@?1??asn1_generalizedtime_to_tm@@9@9 100aa348     libeay32:a_gentm.obj
 0002:000223a0       _default_table             100aa3a0     libeay32:x509_vpm.obj
 0002:0002250c       _PROXY_POLICY_seq_tt       100aa50c     libeay32:v3_pcia.obj
 0002:00022534       ?local_it@?1??PROXY_POLICY_it@@9@9 100aa534     libeay32:v3_pcia.obj
 0002:00022550       _PROXY_CERT_INFO_EXTENSION_seq_tt 100aa550     libeay32:v3_pcia.obj
 0002:00022578       ?local_it@?1??PROXY_CERT_INFO_EXTENSION_it@@9@9 100aa578     libeay32:v3_pcia.obj
 0002:00022df8       _odd_parity                100aadf8     libeay32:set_key.obj
 0002:00022ef8       _weak_keys                 100aaef8     libeay32:set_key.obj
 0002:00022f78       _des_skb                   100aaf78     libeay32:set_key.obj
 0002:00023778       ?shifts2@?1??DES_set_key_unchecked@@9@9 100ab778     libeay32:set_key.obj
 0002:000237b8       _rem_4bit                  100ab7b8     libeay32:gcm128.obj
 0002:00023854       ?map@?1??PEM_dek_info@@9@9 100ab854     libeay32:pem_lib.obj
 0002:0002393c       _NETSCAPE_SPKAC_seq_tt     100ab93c     libeay32:x_spki.obj
 0002:00023964       ?local_it@?1??NETSCAPE_SPKAC_it@@9@9 100ab964     libeay32:x_spki.obj
 0002:00023980       _NETSCAPE_SPKI_seq_tt      100ab980     libeay32:x_spki.obj
 0002:000239bc       ?local_it@?1??NETSCAPE_SPKI_it@@9@9 100ab9bc     libeay32:x_spki.obj
 0002:00023a18       ?req_hdr@?1??OCSP_REQ_CTX_i2d@@9@9 100aba18     libeay32:ocsp_ht.obj
 0002:00023a58       ?http_hdr@?1??OCSP_REQ_CTX_http@@9@9 100aba58     libeay32:ocsp_ht.obj
 0002:00023a78       ?tnst@?1??asn1_str2tag@@9@9 100aba78     libeay32:asn1_gen.obj
 0002:00023e10       _OCSP_SIGNATURE_seq_tt     100abe10     libeay32:ocsp_asn.obj
 0002:00023e4c       ?local_it@?1??OCSP_SIGNATURE_it@@9@9 100abe4c     libeay32:ocsp_asn.obj
 0002:00023e68       _OCSP_CERTID_seq_tt        100abe68     libeay32:ocsp_asn.obj
 0002:00023eb8       ?local_it@?1??OCSP_CERTID_it@@9@9 100abeb8     libeay32:ocsp_asn.obj
 0002:00023ed4       _OCSP_ONEREQ_seq_tt        100abed4     libeay32:ocsp_asn.obj
 0002:00023efc       ?local_it@?1??OCSP_ONEREQ_it@@9@9 100abefc     libeay32:ocsp_asn.obj
 0002:00023f18       _OCSP_REQINFO_seq_tt       100abf18     libeay32:ocsp_asn.obj
 0002:00023f68       ?local_it@?1??OCSP_REQINFO_it@@9@9 100abf68     libeay32:ocsp_asn.obj
 0002:00023f84       _OCSP_REQUEST_seq_tt       100abf84     libeay32:ocsp_asn.obj
 0002:00023fac       ?local_it@?1??OCSP_REQUEST_it@@9@9 100abfac     libeay32:ocsp_asn.obj
 0002:00023fc8       _OCSP_RESPBYTES_seq_tt     100abfc8     libeay32:ocsp_asn.obj
 0002:00023ff0       ?local_it@?1??OCSP_RESPBYTES_it@@9@9 100abff0     libeay32:ocsp_asn.obj
 0002:0002400c       _OCSP_RESPONSE_seq_tt      100ac00c     libeay32:ocsp_asn.obj
 0002:00024034       ?local_it@?1??OCSP_RESPONSE_it@@9@9 100ac034     libeay32:ocsp_asn.obj
 0002:00024050       _OCSP_RESPID_ch_tt         100ac050     libeay32:ocsp_asn.obj
 0002:00024078       ?local_it@?1??OCSP_RESPID_it@@9@9 100ac078     libeay32:ocsp_asn.obj
 0002:00024094       _OCSP_REVOKEDINFO_seq_tt   100ac094     libeay32:ocsp_asn.obj
 0002:000240bc       ?local_it@?1??OCSP_REVOKEDINFO_it@@9@9 100ac0bc     libeay32:ocsp_asn.obj
 0002:000240d8       _OCSP_CERTSTATUS_ch_tt     100ac0d8     libeay32:ocsp_asn.obj
 0002:00024114       ?local_it@?1??OCSP_CERTSTATUS_it@@9@9 100ac114     libeay32:ocsp_asn.obj
 0002:00024130       _OCSP_SINGLERESP_seq_tt    100ac130     libeay32:ocsp_asn.obj
 0002:00024194       ?local_it@?1??OCSP_SINGLERESP_it@@9@9 100ac194     libeay32:ocsp_asn.obj
 0002:000241b0       _OCSP_RESPDATA_seq_tt      100ac1b0     libeay32:ocsp_asn.obj
 0002:00024214       ?local_it@?1??OCSP_RESPDATA_it@@9@9 100ac214     libeay32:ocsp_asn.obj
 0002:00024230       _OCSP_BASICRESP_seq_tt     100ac230     libeay32:ocsp_asn.obj
 0002:00024280       ?local_it@?1??OCSP_BASICRESP_it@@9@9 100ac280     libeay32:ocsp_asn.obj
 0002:0002429c       _OCSP_CRLID_seq_tt         100ac29c     libeay32:ocsp_asn.obj
 0002:000242d8       ?local_it@?1??OCSP_CRLID_it@@9@9 100ac2d8     libeay32:ocsp_asn.obj
 0002:000242f4       _OCSP_SERVICELOC_seq_tt    100ac2f4     libeay32:ocsp_asn.obj
 0002:0002431c       ?local_it@?1??OCSP_SERVICELOC_it@@9@9 100ac31c     libeay32:ocsp_asn.obj
 0002:000245f8       ?ret@?1??EC_GFp_simple_method@@9@9 100ac5f8     libeay32:ecp_smpl.obj
 0002:000246b0       __nist_p_192               100ac6b0     libeay32:bn_nist.obj
 0002:000246f8       __nist_p_192_sqr           100ac6f8     libeay32:bn_nist.obj
 0002:00024728       __nist_p_224               100ac728     libeay32:bn_nist.obj
 0002:00024760       __nist_p_224_sqr           100ac760     libeay32:bn_nist.obj
 0002:00024798       __nist_p_256               100ac798     libeay32:bn_nist.obj
 0002:00024838       __nist_p_256_sqr           100ac838     libeay32:bn_nist.obj
 0002:00024878       __nist_p_384               100ac878     libeay32:bn_nist.obj
 0002:00024968       __nist_p_384_sqr           100ac968     libeay32:bn_nist.obj
 0002:000249c8       __nist_p_521               100ac9c8     libeay32:bn_nist.obj
 0002:00024a0c       __bignum_nist_p_192        100aca0c     libeay32:bn_nist.obj
 0002:00024a20       __nist_p_521_sqr           100aca20     libeay32:bn_nist.obj
 0002:00024aa4       __bignum_nist_p_224        100acaa4     libeay32:bn_nist.obj
 0002:00024ab8       __bignum_nist_p_256        100acab8     libeay32:bn_nist.obj
 0002:00024acc       __bignum_nist_p_384        100acacc     libeay32:bn_nist.obj
 0002:00024ae0       __bignum_nist_p_521        100acae0     libeay32:bn_nist.obj
 0002:00024af4       ?_bignum_nist_p_192_sqr@?1??BN_nist_mod_192@@9@9 100acaf4     libeay32:bn_nist.obj
 0002:00024b08       ?_bignum_nist_p_224_sqr@?1??BN_nist_mod_224@@9@9 100acb08     libeay32:bn_nist.obj
 0002:00024b1c       ?_bignum_nist_p_256_sqr@?1??BN_nist_mod_256@@9@9 100acb1c     libeay32:bn_nist.obj
 0002:00024b30       ?_bignum_nist_p_384_sqr@?1??BN_nist_mod_384@@9@9 100acb30     libeay32:bn_nist.obj
 0002:00024b44       ?_bignum_nist_p_521_sqr@?1??BN_nist_mod_521@@9@9 100acb44     libeay32:bn_nist.obj
 0002:00024b70       _SQR_tb                    100acb70     libeay32:bn_gf2m.obj
 0002:00024c00       ?tab@?1??BN_kronecker@@9@9 100acc00     libeay32:bn_kron.obj
 0002:00024da0       _data_bin2ascii            100acda0     libeay32:encode.obj
 0002:00024de8       _data_ascii2bin            100acde8     libeay32:encode.obj
 0002:00024f18       _PKCS12_seq_tt             100acf18     libeay32:p12_asn.obj
 0002:00024f54       ?local_it@?1??PKCS12_it@@9@9 100acf54     libeay32:p12_asn.obj
 0002:00024f70       _PKCS12_MAC_DATA_seq_tt    100acf70     libeay32:p12_asn.obj
 0002:00024fac       ?local_it@?1??PKCS12_MAC_DATA_it@@9@9 100acfac     libeay32:p12_asn.obj
 0002:00024fc8       _bag_default_tt            100acfc8     libeay32:p12_asn.obj
 0002:00024fdc       ?internal_adb@?1??PKCS12_BAGS_adb@@9@9 100acfdc     libeay32:p12_asn.obj
 0002:00024ff8       _PKCS12_BAGS_adbtbl        100acff8     libeay32:p12_asn.obj
 0002:00025040       _PKCS12_BAGS_seq_tt        100ad040     libeay32:p12_asn.obj
 0002:00025068       ?local_it@?1??PKCS12_BAGS_it@@9@9 100ad068     libeay32:p12_asn.obj
 0002:00025084       _safebag_default_tt        100ad084     libeay32:p12_asn.obj
 0002:00025098       _PKCS12_SAFEBAG_adbtbl     100ad098     libeay32:p12_asn.obj
 0002:00025128       ?internal_adb@?1??PKCS12_SAFEBAG_adb@@9@9 100ad128     libeay32:p12_asn.obj
 0002:00025144       _PKCS12_SAFEBAG_seq_tt     100ad144     libeay32:p12_asn.obj
 0002:00025180       ?local_it@?1??PKCS12_SAFEBAG_it@@9@9 100ad180     libeay32:p12_asn.obj
 0002:0002519c       _PKCS12_SAFEBAGS_item_tt   100ad19c     libeay32:p12_asn.obj
 0002:000251b0       ?local_it@?1??PKCS12_SAFEBAGS_it@@9@9 100ad1b0     libeay32:p12_asn.obj
 0002:000251cc       _PKCS12_AUTHSAFES_item_tt  100ad1cc     libeay32:p12_asn.obj
 0002:000251e0       ?local_it@?1??PKCS12_AUTHSAFES_it@@9@9 100ad1e0     libeay32:p12_asn.obj
 0002:000259b8       ?_Win_errtab@std@@3QBU_Win_errtab_t@1@B 100ad9b8     libcpmt:syserror.obj
 0002:00025c08       ?_Sys_errtab@std@@3QBU_Sys_errtab_t@1@B 100adc08     libcpmt:syserror.obj
 0002:00026428       _digits                    100ae428     libcpmt:xstoul.obj
 0002:00026450       _ndigs                     100ae450     libcpmt:xstoul.obj
 0002:00026478       _digits                    100ae478     libcpmt:xstoull.obj
 0002:000264a0       _ndigs                     100ae4a0     libcpmt:xstoull.obj
 0002:000264c8       ?LcidToLocaleNameTable@@3QBULcidToLocaleName@@B 100ae4c8     libcpmt:winapinls.obj
 0002:00026be8       ?LocaleNameToIndexTable@@3QBULocaleNameIndex@@B 100aebe8     libcpmt:winapinls.obj
 0002:00028578       _GS_ExceptionPointers      100b0578     LIBCMT:gs_report.obj
 0002:000285f4       ?ExceptionTemplate@?1??_CxxThrowException@@9@8@4UEHExceptionRecord@@B 100b05f4     libvcruntime:throw.obj
 0002:00028614       ?module_names@?A0x89697e75@@3QBQB_WB 100b0614     libvcruntime:winapi_downlevel.obj
 0002:000286c4       ?candidate_modules@?1??try_get_FlsAlloc@@YAP6GKP6GXPAX@Z@ZXZ@4QBW4module_id@?A0x89697e75@@B 100b06c4     libvcruntime:winapi_downlevel.obj
 0002:000286cc       ?candidate_modules@?1??try_get_FlsFree@@YAP6GHK@ZXZ@4QBW4module_id@?A0x89697e75@@B 100b06cc     libvcruntime:winapi_downlevel.obj
 0002:000286d4       ?candidate_modules@?1??try_get_FlsGetValue@@YAP6GPAXK@ZXZ@4QBW4module_id@?A0x89697e75@@B 100b06d4     libvcruntime:winapi_downlevel.obj
 0002:000286dc       ?candidate_modules@?1??try_get_FlsSetValue@@YAP6GHKPAX@ZXZ@4QBW4module_id@?A0x89697e75@@B 100b06dc     libvcruntime:winapi_downlevel.obj
 0002:000286e4       ?candidate_modules@?1??try_get_InitializeCriticalSectionEx@@YAP6GHPAU_RTL_CRITICAL_SECTION@@KK@ZXZ@4QBW4module_id@?A0x89697e75@@B 100b06e4     libvcruntime:winapi_downlevel.obj
 0002:000286f0       ?tokenTable@@3QBQBDB       100b06f0     libvcruntime:undname.obj
 0002:00028728       ?nameTable@@3QBQBDB        100b0728     libvcruntime:undname.obj
 0002:0002886c       ?rttiTable@@3QBQBDB        100b086c     libvcruntime:undname.obj
 0002:00028ea8       _errtable                  100b0ea8     libucrt:errno.obj
 0002:00029c08       _EnhancedKeys              100b1c08     libucrt:getch.obj
 0002:00029c80       _NormalKeys                100b1c80     libucrt:getch.obj
 0002:0002a750       POW_name                   100b2750     libucrt:pow.obj
 0002:0002a800       ___acrt_initializers       100b2800     libucrt:initialization.obj
 0002:0002a988       __first_127char            100b2988     libucrt:wsetlocale.obj
 0002:0002aeb8       _module_names              100b2eb8     libucrt:winapi_thunks.obj
 0002:0002b358       ?candidate_modules@?1??try_get_AreFileApisANSI@@YAP6GHXZXZ@4QBW4module_id@?A0x352e5c4b@@B 100b3358     libucrt:winapi_thunks.obj
 0002:0002b36c       ?candidate_modules@?1??try_get_CompareStringEx@@YAP6GHPB_WK0H0HPAU_nlsversioninfo@@PAXJ@ZXZ@4QBW4module_id@?A0x352e5c4b@@B 100b336c     libucrt:winapi_thunks.obj
 0002:0002b374       ?candidate_modules@?1??try_get_EnumSystemLocalesEx@@YAP6GHP6GHPA_WKJ@ZKJPAX@ZXZ@4QBW4module_id@?A0x352e5c4b@@B 100b3374     libucrt:winapi_thunks.obj
 0002:0002b390       ?candidate_modules@?1??try_get_FlsAlloc@@YAP6GKP6GXPAX@Z@ZXZ@4QBW4module_id@?A0x352e5c4b@@B 100b3390     libucrt:winapi_thunks.obj
 0002:0002b398       ?candidate_modules@?1??try_get_FlsFree@@YAP6GHK@ZXZ@4QBW4module_id@?A0x352e5c4b@@B 100b3398     libucrt:winapi_thunks.obj
 0002:0002b3a0       ?candidate_modules@?1??try_get_FlsGetValue@@YAP6GPAXK@ZXZ@4QBW4module_id@?A0x352e5c4b@@B 100b33a0     libucrt:winapi_thunks.obj
 0002:0002b3a8       ?candidate_modules@?1??try_get_FlsSetValue@@YAP6GHKPAX@ZXZ@4QBW4module_id@?A0x352e5c4b@@B 100b33a8     libucrt:winapi_thunks.obj
 0002:0002b3b0       ?candidate_modules@?1??try_get_GetCurrentPackageId@@YAP6GJPAIPAE@ZXZ@4QBW4module_id@?A0x352e5c4b@@B 100b33b0     libucrt:winapi_thunks.obj
 0002:0002b3b8       ?candidate_modules@?1??try_get_GetLocaleInfoEx@@YAP6GHPB_WKPA_WH@ZXZ@4QBW4module_id@?A0x352e5c4b@@B 100b33b8     libucrt:winapi_thunks.obj
 0002:0002b3c0       ?candidate_modules@?1??try_get_GetSystemTimePreciseAsFileTime@@YAP6GXPAU_FILETIME@@@ZXZ@4QBW4module_id@?A0x352e5c4b@@B 100b33c0     libucrt:winapi_thunks.obj
 0002:0002b3c4       ?candidate_modules@?1??try_get_GetUserDefaultLocaleName@@YAP6GHPA_WH@ZXZ@4QBW4module_id@?A0x352e5c4b@@B 100b33c4     libucrt:winapi_thunks.obj
 0002:0002b3e8       ?candidate_modules@?1??try_get_InitializeCriticalSectionEx@@YAP6GHPAU_RTL_CRITICAL_SECTION@@KK@ZXZ@4QBW4module_id@?A0x352e5c4b@@B 100b33e8     libucrt:winapi_thunks.obj
 0002:0002b3f0       ?candidate_modules@?1??try_get_IsValidLocaleName@@YAP6GHPB_W@ZXZ@4QBW4module_id@?A0x352e5c4b@@B 100b33f0     libucrt:winapi_thunks.obj
 0002:0002b40c       ?candidate_modules@?1??try_get_LCMapStringEx@@YAP6GHPB_WK0HPA_WHPAU_nlsversioninfo@@PAXJ@ZXZ@4QBW4module_id@?A0x352e5c4b@@B 100b340c     libucrt:winapi_thunks.obj
 0002:0002b414       ?candidate_modules@?1??try_get_LCIDToLocaleName@@YAP6GHKPA_WHK@ZXZ@4QBW4module_id@?A0x352e5c4b@@B 100b3414     libucrt:winapi_thunks.obj
 0002:0002b430       ?candidate_modules@?1??try_get_LocaleNameToLCID@@YAP6GKPB_WK@ZXZ@4QBW4module_id@?A0x352e5c4b@@B 100b3430     libucrt:winapi_thunks.obj
 0002:0002b5b8       ?_names@?1??_get_fname@@9@9 100b35b8     libucrt:fpexcept.obj
 0002:0002b6e0       _over                      100b36e0     libucrt:fpctrl.obj
 0002:0002b6ec       _under                     100b36ec     libucrt:fpctrl.obj
 0002:0002b700       Shifter                    100b3700     libucrt:pow_pentium4.obj
 0002:0002b710       SIGMASK                    100b3710     libucrt:pow_pentium4.obj
 0002:0002b720       ONEMASK                    100b3720     libucrt:pow_pentium4.obj
 0002:0002b730       ABSVALMASK                 100b3730     libucrt:pow_pentium4.obj
 0002:0002b740       cev                        100b3740     libucrt:pow_pentium4.obj
 0002:0002b768       HALFSIG                    100b3768     libucrt:pow_pentium4.obj
 0002:0002b770       LHN                        100b3770     libucrt:pow_pentium4.obj
 0002:0002b778       sNaN                       100b3778     libucrt:pow_pentium4.obj
 0002:0002b780       INF                        100b3780     libucrt:pow_pentium4.obj
 0002:0002b788       NEG_INF                    100b3788     libucrt:pow_pentium4.obj
 0002:0002b790       NEG_ZERO                   100b3790     libucrt:pow_pentium4.obj
 0002:0002b798       NEG_BIG                    100b3798     libucrt:pow_pentium4.obj
 0002:0002b7a0       POS_BIG                    100b37a0     libucrt:pow_pentium4.obj
 0002:0002b7a8       EMIN                       100b37a8     libucrt:pow_pentium4.obj
 0002:0002b7b0       QIND                       100b37b0     libucrt:pow_pentium4.obj
 0002:0002b7de       _log2max                   100b37de     libucrt:87tran.obj
 0002:0002b7e8       _smallarg                  100b37e8     libucrt:87tran.obj
 0002:0002b7f2       _half                      100b37f2     libucrt:87tran.obj
 0002:0002b83e       One                        100b383e     libucrt:87disp.obj
 0002:0002b846       Three                      100b3846     libucrt:87disp.obj
 0002:0002b84e       XAMtoTagTab                100b384e     libucrt:87disp.obj
 0002:0002b860       One                        100b3860     libucrt:common.obj
 0002:0002b874       DblMax                     100b3874     libucrt:common.obj
 0002:0002b87c       DblMin                     100b387c     libucrt:common.obj
 0002:0002b884       IeeeAdjO                   100b3884     libucrt:common.obj
 0002:0002b88c       IeeeAdjU                   100b388c     libucrt:common.obj
 0002:0002b894       _infinity                  100b3894     libucrt:common.obj
 0002:0002b89c       _zero                      100b389c     libucrt:common.obj
 0002:0002b8a4       __mb_locale_names          100b38a4     libucrt:mbctype.obj
 0002:0002c688       _LcidToLocaleNameTable     100b4688     libucrt:lcidtoname_downlevel.obj
 0002:0002cda8       _LocaleNameToIndexTable    100b4da8     libucrt:lcidtoname_downlevel.obj
 0002:00030d50       LOG_name                   100b8d50     libucrt:log10.obj
 0002:00030d60       _One                       100b8d60     libucrt:ceil_pentium4.obj
 0002:00030d70       _Bns                       100b8d70     libucrt:ceil_pentium4.obj
 0002:00030d80       _Zero                      100b8d80     libucrt:ceil_pentium4.obj
 0002:00030d90       _S                         100b8d90     libucrt:ceil_pentium4.obj
 0002:00030da0       _NegZero                   100b8da0     libucrt:ceil_pentium4.obj
 0002:00030dc0       emask                      100b8dc0     libucrt:log10_pentium4.obj
 0002:00030dd0       CC                         100b8dd0     libucrt:log10_pentium4.obj
 0002:00030de0       Magic                      100b8de0     libucrt:log10_pentium4.obj
 0002:00030df0       hi_mask                    100b8df0     libucrt:log10_pentium4.obj
 0002:00030e00       LOG10_2                    100b8e00     libucrt:log10_pentium4.obj
 0002:00030e10       place_L                    100b8e10     libucrt:log10_pentium4.obj
 0002:00030e30       One                        100b8e30     libucrt:log10_pentium4.obj
 0002:00030e40       Zero                       100b8e40     libucrt:log10_pentium4.obj
 0002:00030e50       Two52                      100b8e50     libucrt:log10_pentium4.obj
 0002:00030e60       Infs                       100b8e60     libucrt:log10_pentium4.obj
 0002:00030e70       NaN                        100b8e70     libucrt:log10_pentium4.obj
 0002:00030e80       coeff                      100b8e80     libucrt:log10_pentium4.obj
 0002:00031b50       ?szWQLQuery@@3QBU_T_WQL_QUERY@@B 100b9b50     WMI_DeviceQuery.obj
 0002:00032b10       __sehtable$_RAND_poll      100bab10     libeay32:rand_win.obj
 0002:00032b2c       __unwindtable$??0?$basic_streambuf@DU?$char_traits@D@std@@@std@@IAE@XZ 100bab2c     libcpmt:cout.obj
 0002:00032b2c       __unwindtable$?_Init@ios_base@std@@IAEXXZ 100bab2c     libcpmt:cout.obj
 0002:00032b34       __ehfuncinfo$??0?$basic_streambuf@DU?$char_traits@D@std@@@std@@IAE@XZ 100bab34     libcpmt:cout.obj
 0002:00032b34       __ehfuncinfo$?_Init@ios_base@std@@IAEXXZ 100bab34     libcpmt:cout.obj
 0002:00032b58       __unwindtable$?overflow@?$basic_filebuf@DU?$char_traits@D@std@@@std@@MAEHH@Z 100bab58     libcpmt:cout.obj
 0002:00032b60       __ehfuncinfo$?overflow@?$basic_filebuf@DU?$char_traits@D@std@@@std@@MAEHH@Z 100bab60     libcpmt:cout.obj
 0002:00032b84       __unwindtable$?uflow@?$basic_filebuf@DU?$char_traits@D@std@@@std@@MAEHXZ 100bab84     libcpmt:cout.obj
 0002:00032b8c       __ehfuncinfo$?uflow@?$basic_filebuf@DU?$char_traits@D@std@@@std@@MAEHXZ 100bab8c     libcpmt:cout.obj
 0002:00032bb0       __unwindtable$?_Endwrite@?$basic_filebuf@DU?$char_traits@D@std@@@std@@IAE_NXZ 100babb0     libcpmt:cout.obj
 0002:00032bb8       __ehfuncinfo$?_Endwrite@?$basic_filebuf@DU?$char_traits@D@std@@@std@@IAE_NXZ 100babb8     libcpmt:cout.obj
 0002:00032bdc       __unwindtable$??_G?$basic_ios@DU?$char_traits@D@std@@@std@@UAEPAXI@Z 100babdc     libcpmt:cout.obj
 0002:00032bdc       __unwindtable$??_Gios_base@std@@UAEPAXI@Z 100babdc     libcpmt:cout.obj
 0002:00032be4       __ehfuncinfo$??_Gios_base@std@@UAEPAXI@Z 100babe4     libcpmt:cout.obj
 0002:00032be4       __ehfuncinfo$??_G?$basic_ios@DU?$char_traits@D@std@@@std@@UAEPAXI@Z 100babe4     libcpmt:cout.obj
 0002:00032c08       __unwindtable$??0?$basic_ostream@DU?$char_traits@D@std@@@std@@QAE@PAV?$basic_streambuf@DU?$char_traits@D@std@@@1@_N@Z 100bac08     libcpmt:cout.obj
 0002:00032c10       __ehfuncinfo$??0?$basic_ostream@DU?$char_traits@D@std@@@std@@QAE@PAV?$basic_streambuf@DU?$char_traits@D@std@@@1@_N@Z 100bac10     libcpmt:cout.obj
 0002:00032c34       __unwindtable$??_D?$basic_ostream@DU?$char_traits@D@std@@@std@@QAEXXZ 100bac34     libcpmt:cout.obj
 0002:00032c34       __unwindtable$??1?$basic_ios@DU?$char_traits@D@std@@@std@@UAE@XZ 100bac34     libcpmt:cout.obj
 0002:00032c3c       __ehfuncinfo$??_D?$basic_ostream@DU?$char_traits@D@std@@@std@@QAEXXZ 100bac3c     libcpmt:cout.obj
 0002:00032c3c       __ehfuncinfo$??1?$basic_ios@DU?$char_traits@D@std@@@std@@UAE@XZ 100bac3c     libcpmt:cout.obj
 0002:00032c60       __unwindtable$??$use_facet@V?$codecvt@DDU_Mbstatet@@@std@@@std@@YAABV?$codecvt@DDU_Mbstatet@@@0@ABVlocale@0@@Z 100bac60     libcpmt:cout.obj
 0002:00032c68       __ehfuncinfo$??$use_facet@V?$codecvt@DDU_Mbstatet@@@std@@@std@@YAABV?$codecvt@DDU_Mbstatet@@@0@ABVlocale@0@@Z 100bac68     libcpmt:cout.obj
 0002:00032c8c       __unwindtable$?_Getcat@?$codecvt@DDU_Mbstatet@@@std@@SAIPAPBVfacet@locale@2@PBV42@@Z 100bac8c     libcpmt:cout.obj
 0002:00032c94       __ehfuncinfo$?_Getcat@?$codecvt@DDU_Mbstatet@@@std@@SAIPAPBVfacet@locale@2@PBV42@@Z 100bac94     libcpmt:cout.obj
 0002:00032d0c       __unwindtable$?_Locimp_dtor@_Locimp@locale@std@@CAXPAV123@@Z 100bad0c     libcpmt:locale0.obj
 0002:00032d14       __ehfuncinfo$?_Locimp_dtor@_Locimp@locale@std@@CAXPAV123@@Z 100bad14     libcpmt:locale0.obj
 0002:00032d38       __unwindtable$?_Init@locale@std@@CAPAV_Locimp@12@_N@Z 100bad38     libcpmt:locale0.obj
 0002:00032d40       __ehfuncinfo$?_Init@locale@std@@CAPAV_Locimp@12@_N@Z 100bad40     libcpmt:locale0.obj
 0002:00032e30       __ehfuncinfo$??1_Init_atexit@@QAE@XZ 100bae30     libcpmt:iosptrs.obj
 0002:00032e30       __ehfuncinfo$??1_Fac_node@std@@QAE@XZ 100bae30     libcpmt:locale0.obj
 0002:00032e30       __ehfuncinfo$??1_Locimp@locale@std@@MAE@XZ 100bae30     libcpmt:locale0.obj
 0002:00032e30       __ehfuncinfo$??1?$basic_filebuf@DU?$char_traits@D@std@@@std@@UAE@XZ 100bae30     libcpmt:cout.obj
 0002:00032e58       __sehtable$___scrt_is_nonwritable_in_current_image 100bae58     LIBCMT:utility.obj
 0002:00032e78       __sehtable$?dllmain_crt_process_attach@@YAHQAUHINSTANCE__@@QAX@Z 100bae78     LIBCMT:dll_dllmain.obj
 0002:00032e98       __sehtable$?dllmain_crt_process_detach@@YAH_N@Z 100bae98     LIBCMT:dll_dllmain.obj
 0002:00032eb8       __sehtable$?dllmain_dispatch@@YAHQAUHINSTANCE__@@KQAX@Z 100baeb8     LIBCMT:dll_dllmain.obj
 0002:00032f10       __sehtable$?ConvertStringToBSTR@_com_util@@YGPA_WPBD@Z 100baf10     comsuppw:comutil.obj
 0002:00032f2c       __catchsym$?ConvertBSTRToString@_com_util@@YGPADPA_W@Z$2 100baf2c     comsuppw:comutil.obj
 0002:00032f3c       __unwindtable$?ConvertBSTRToString@_com_util@@YGPADPA_W@Z 100baf3c     comsuppw:comutil.obj
 0002:00032f4c       __tryblocktable$?ConvertBSTRToString@_com_util@@YGPADPA_W@Z 100baf4c     comsuppw:comutil.obj
 0002:00032f60       __ehfuncinfo$?ConvertBSTRToString@_com_util@@YGPADPA_W@Z 100baf60     comsuppw:comutil.obj
 0002:00032fb8       __sehtable$___FrameUnwindToState 100bafb8     libvcruntime:frame.obj
 0002:00032fe0       __sehtable$?CallCatchBlock@@YAPAXPAUEHExceptionRecord@@PAUEHRegistrationNode@@PAU_CONTEXT@@PBU_s_FuncInfo@@PAXHK@Z 100bafe0     libvcruntime:frame.obj
 0002:00033008       __sehtable$___BuildCatchObject 100bb008     libvcruntime:frame.obj
 0002:00033028       __sehtable$___DestructExceptionObject 100bb028     libvcruntime:frame.obj
 0002:00033044       __catchsym$?CallUnexpected@@YAXPBU_s_ESTypeList@@@Z$2 100bb044     libvcruntime:frame.obj
 0002:00033054       __unwindtable$?CallUnexpected@@YAXPBU_s_ESTypeList@@@Z 100bb054     libvcruntime:frame.obj
 0002:00033064       __tryblocktable$?CallUnexpected@@YAXPBU_s_ESTypeList@@@Z 100bb064     libvcruntime:frame.obj
 0002:00033078       __ehfuncinfo$?CallUnexpected@@YAXPBU_s_ESTypeList@@@Z 100bb078     libvcruntime:frame.obj
 0002:000330a0       __sehtable$___BuildCatchObjectHelper 100bb0a0     libvcruntime:frame.obj
 0002:000330f8       __sehtable$??$?RV<lambda_db08b09ef7aa9d4f8620ce68402612bc>@@AAV<lambda_4f2c1eaeead2a5fc776db5b62ea0fb9b>@@V<lambda_3ae262bc35d4ba6a3825c4f6bcaaf95c>@@@?$__crt_seh_guarded_call@H@@QAEH$$QAV<lambda_db08b09ef7aa9d4f8620ce68402612bc>@@AAV<lambda_4f2c1eaeead2a5fc776db5b62ea0fb9b>@@$$QAV<lambda_3ae262bc35d4ba6a3825c4f6bcaaf95c>@@@Z 100bb0f8     libucrt:output.obj
 0002:00033118       __sehtable$??$common_fsopen@D@@YAPAU_iobuf@@QBD0H@Z 100bb118     libucrt:fopen.obj
 0002:00033138       __sehtable$??$common_fsopen@_W@@YAPAU_iobuf@@QB_W0H@Z 100bb138     libucrt:fopen.obj
 0002:00033158       __sehtable$_fclose         100bb158     libucrt:fclose.obj
 0002:00033178       __sehtable$_fflush         100bb178     libucrt:fflush.obj
 0002:00033198       __sehtable$_common_flush_all 100bb198     libucrt:fflush.obj
 0002:000331c0       __sehtable$??$common_fgets@D@@YAPADQADHV__crt_stdio_stream@@@Z 100bb1c0     libucrt:fgets.obj
 0002:000331e0       __sehtable$_fread_s        100bb1e0     libucrt:fread.obj
 0002:00033200       __sehtable$?common_fseek@@YAHV__crt_stdio_stream@@_JH@Z 100bb200     libucrt:fseek.obj
 0002:00033220       __sehtable$??$common_ftell@J@@YAJV__crt_stdio_stream@@@Z 100bb220     libucrt:ftell.obj
 0002:00033240       __sehtable$??$common_ftell@_J@@YA_JV__crt_stdio_stream@@@Z 100bb240     libucrt:ftell.obj
 0002:00033260       __sehtable$??$?RV<lambda_11b4f7b0d3157825a5656a18eba1ae27>@@AAV<lambda_b51c0495177f500e782686251704ae76>@@V<lambda_cf89b47920b5017557bfe891e78aca36>@@@?$__crt_seh_guarded_call@I@@QAEI$$QAV<lambda_11b4f7b0d3157825a5656a18eba1ae27>@@AAV<lambda_b51c0495177f500e782686251704ae76>@@$$QAV<lambda_cf89b47920b5017557bfe891e78aca36>@@@Z 100bb260     libucrt:fwrite.obj
 0002:00033280       __sehtable$__setmode       100bb280     libucrt:setmode.obj
 0002:000332a0       __sehtable$?common_exit@@YAXHW4_crt_exit_cleanup_mode@@W4_crt_exit_return_mode@@@Z 100bb2a0     libucrt:exit.obj
 0002:000332c8       __sehtable$_signal         100bb2c8     libucrt:signal.obj
 0002:000332e8       __sehtable$_raise          100bb2e8     libucrt:signal.obj
 0002:00033308       __sehtable$?ctrlevent_capture@@YGHK@Z 100bb308     libucrt:signal.obj
 0002:00033328       __sehtable$??$?RV<lambda_a048d3beccc847880fc8490e18b82769>@@AAV<lambda_ec61778202f4f5fc7e7711acc23c3bca>@@V<lambda_f7496a158712204296dd6628a163878e>@@@?$__crt_seh_guarded_call@P6AXH@Z@@QAEP6AXH@Z$$QAV<lambda_a048d3beccc847880fc8490e18b82769>@@AAV<lambda_ec61778202f4f5fc7e7711acc23c3bca>@@$$QAV<lambda_f7496a158712204296dd6628a163878e>@@@Z 100bb328     libucrt:signal.obj
 0002:00033348       __sehtable$??$common_getenv@D@@YAPADQBD@Z 100bb348     libucrt:getenv.obj
 0002:00033368       __sehtable$??$?RV<lambda_b0cac3301889906f8da68b04e3d9a7f4>@@AAV<lambda_9a20e10065b92b5193c3597a66cba9d4>@@V<lambda_24b35df97fd4c1fecac72a72d95cc146>@@@?$__crt_seh_guarded_call@H@@QAEH$$QAV<lambda_b0cac3301889906f8da68b04e3d9a7f4>@@AAV<lambda_9a20e10065b92b5193c3597a66cba9d4>@@$$QAV<lambda_24b35df97fd4c1fecac72a72d95cc146>@@@Z 100bb368     libucrt:fputs.obj
 0002:00033388       __sehtable$__getch         100bb388     libucrt:getch.obj
 0002:000333a8       __sehtable$__getch_nolock  100bb3a8     libucrt:getch.obj
 0002:000333c8       __sehtable$_fgetc          100bb3c8     libucrt:fgetc.obj
 0002:000333e8       __sehtable$_fputc          100bb3e8     libucrt:fputc.obj
 0002:00033408       __sehtable$??$?RV<lambda_d92cfe8357b99225085016881b624cb0>@@AAV<lambda_b721fa326cdb32351d23dfa67958c160>@@V<lambda_42d75b0848218ec137fa420c8ba9fdf9>@@@?$__crt_seh_guarded_call@H@@QAEH$$QAV<lambda_d92cfe8357b99225085016881b624cb0>@@AAV<lambda_b721fa326cdb32351d23dfa67958c160>@@$$QAV<lambda_42d75b0848218ec137fa420c8ba9fdf9>@@@Z 100bb408     libucrt:setvbuf.obj
 0002:00033428       __sehtable$_ungetc         100bb428     libucrt:ungetc.obj
 0002:00033448       __sehtable$_setlocale      100bb448     libucrt:setlocale.obj
 0002:00033468       __sehtable$__query_new_handler 100bb468     libucrt:new_handler.obj
 0002:00033488       __sehtable$??$?RV<lambda_800076c951b434888f4765a74a194fcc>@@AAV<lambda_4e60a939b0d047cfe11ddc22648dfba9>@@V<lambda_6dbb1268764f43b569ce7b67e331d33a>@@@?$__crt_seh_guarded_call@H@@QAEH$$QAV<lambda_800076c951b434888f4765a74a194fcc>@@AAV<lambda_4e60a939b0d047cfe11ddc22648dfba9>@@$$QAV<lambda_6dbb1268764f43b569ce7b67e331d33a>@@@Z 100bb488     libucrt:onexit.obj
 0002:000334a8       __sehtable$??$?RV<lambda_995298e7d72eb4c2aab26c0585b3abe5>@@AAV<lambda_275893d493268fdec8709772e3fcec0e>@@V<lambda_293819299cbf9a7022e18b56a874bb5c>@@@?$__crt_seh_guarded_call@H@@QAEH$$QAV<lambda_995298e7d72eb4c2aab26c0585b3abe5>@@AAV<lambda_275893d493268fdec8709772e3fcec0e>@@$$QAV<lambda_293819299cbf9a7022e18b56a874bb5c>@@@Z 100bb4a8     libucrt:onexit.obj
 0002:000334c8       __sehtable$_terminate      100bb4c8     libucrt:terminate.obj
 0002:000334e8       __sehtable$??$?RV<lambda_9df27f884b057bc3edfc946cb5b7cf47>@@AAV<lambda_e69574bed617af4e071282c136b37893>@@V<lambda_cc0d902bcbbeb830f749456577db4721>@@@?$__crt_seh_guarded_call@X@@QAEX$$QAV<lambda_9df27f884b057bc3edfc946cb5b7cf47>@@AAV<lambda_e69574bed617af4e071282c136b37893>@@$$QAV<lambda_cc0d902bcbbeb830f749456577db4721>@@@Z 100bb4e8     libucrt:per_thread_data.obj
 0002:00033508       __sehtable$??$?RV<lambda_3518db117f0e7cdb002338c5d3c47b6c>@@AAV<lambda_b2ea41f6bbb362cd97d94c6828d90b61>@@V<lambda_abdedf541bb04549bc734292b4a045d4>@@@?$__crt_seh_guarded_call@X@@QAEX$$QAV<lambda_3518db117f0e7cdb002338c5d3c47b6c>@@AAV<lambda_b2ea41f6bbb362cd97d94c6828d90b61>@@$$QAV<lambda_abdedf541bb04549bc734292b4a045d4>@@@Z 100bb508     libucrt:per_thread_data.obj
 0002:00033528       __sehtable$??$?RV<lambda_51b6e8b1eb166f2a3faf91f424b38130>@@AAV<lambda_6250bd4b2a391816dd638c3bf72b0bcb>@@V<lambda_0b5a4a3e68152e1d9b943535f5f47bed>@@@?$__crt_seh_guarded_call@X@@QAEX$$QAV<lambda_51b6e8b1eb166f2a3faf91f424b38130>@@AAV<lambda_6250bd4b2a391816dd638c3bf72b0bcb>@@$$QAV<lambda_0b5a4a3e68152e1d9b943535f5f47bed>@@@Z 100bb528     libucrt:per_thread_data.obj
 0002:00033548       __sehtable$??$?RV<lambda_5b71d36f03204c0beab531769a5b5694>@@AAV<lambda_be2b3da3f62db62e9dad5dc70221a656>@@V<lambda_8f9ce462984622f9bf76b59e2aaaf805>@@@?$__crt_seh_guarded_call@X@@QAEX$$QAV<lambda_5b71d36f03204c0beab531769a5b5694>@@AAV<lambda_be2b3da3f62db62e9dad5dc70221a656>@@$$QAV<lambda_8f9ce462984622f9bf76b59e2aaaf805>@@@Z 100bb548     libucrt:per_thread_data.obj
 0002:00033568       __sehtable$___acrt_uninitialize_locale 100bb568     libucrt:wsetlocale.obj
 0002:00033588       __sehtable$??$?RV<lambda_70818de7b02deff9841e8b0962a60ed9>@@AAV<lambda_2af78c5f5901b1372d98f9ab3177dfa6>@@AAV<lambda_f51fe5fd7c79a33db34fc9310f277369>@@@?$__crt_seh_guarded_call@X@@QAEX$$QAV<lambda_70818de7b02deff9841e8b0962a60ed9>@@AAV<lambda_2af78c5f5901b1372d98f9ab3177dfa6>@@AAV<lambda_f51fe5fd7c79a33db34fc9310f277369>@@@Z 100bb588     libucrt:wsetlocale.obj
 0002:000335a8       __sehtable$??$?RV<lambda_c76fdea48760d5f9368b465f31df4405>@@AAV<lambda_e378711a6f6581bf7f0efd7cdf97f5d9>@@V<lambda_e927a58b2a85c081d733e8c6192ae2d2>@@@?$__crt_seh_guarded_call@X@@QAEX$$QAV<lambda_c76fdea48760d5f9368b465f31df4405>@@AAV<lambda_e378711a6f6581bf7f0efd7cdf97f5d9>@@$$QAV<lambda_e927a58b2a85c081d733e8c6192ae2d2>@@@Z 100bb5a8     libucrt:wsetlocale.obj
 0002:000335c8       __sehtable$___acrt_initialize_lowio 100bb5c8     libucrt:ioinit.obj
 0002:000335e8       __sehtable$??$?RV<lambda_9227be29367c048ad7fd93a717dcb1a1>@@AAV<lambda_a463b7b0560cfcaf9b17f27c6ef46564>@@V<lambda_ccea11b5727ccf69be64f5f5d9a08d9f>@@@?$__crt_seh_guarded_call@H@@QAEH$$QAV<lambda_9227be29367c048ad7fd93a717dcb1a1>@@AAV<lambda_a463b7b0560cfcaf9b17f27c6ef46564>@@$$QAV<lambda_ccea11b5727ccf69be64f5f5d9a08d9f>@@@Z 100bb5e8     libucrt:winapi_thunks.obj
 0002:00033608       __sehtable$__fcloseall     100bb608     libucrt:closeall.obj
 0002:00033628       __sehtable$?__acrt_stdio_allocate_stream@@YA?AV__crt_stdio_stream@@XZ 100bb628     libucrt:stream.obj
 0002:00033648       __sehtable$??$?RV<lambda_123407a5e2ac06da108355a851863b7a>@@AAV<lambda_2fe9b910cf3cbf4a0ab98a02ba45b3ec>@@V<lambda_ae55bdf541ad94d75914d381c370e64d>@@@?$__crt_seh_guarded_call@H@@QAEH$$QAV<lambda_123407a5e2ac06da108355a851863b7a>@@AAV<lambda_2fe9b910cf3cbf4a0ab98a02ba45b3ec>@@$$QAV<lambda_ae55bdf541ad94d75914d381c370e64d>@@@Z 100bb648     libucrt:close.obj
 0002:00033668       __sehtable$??$?RV<lambda_61cee617f5178ae960314fd4d05640a0>@@AAV<lambda_6978c1fb23f02e42e1d9e99668cc68aa>@@V<lambda_9cd88cf8ad10232537feb2133f08c833>@@@?$__crt_seh_guarded_call@H@@QAEH$$QAV<lambda_61cee617f5178ae960314fd4d05640a0>@@AAV<lambda_6978c1fb23f02e42e1d9e99668cc68aa>@@$$QAV<lambda_9cd88cf8ad10232537feb2133f08c833>@@@Z 100bb668     libucrt:commit.obj
 0002:00033688       __sehtable$__write         100bb688     libucrt:write.obj
 0002:000336a8       __sehtable$__read          100bb6a8     libucrt:read.obj
 0002:000336c8       __sehtable$??$common_lseek@_J@@YA_JH_JH@Z 100bb6c8     libucrt:lseek.obj
 0002:000336e8       __sehtable$__alloc_osfhnd  100bb6e8     libucrt:osfinfo.obj
 0002:00033708       __sehtable$___acrt_lowio_ensure_fh_exists 100bb708     libucrt:osfinfo.obj
 0002:00033728       __sehtable$___acrt_update_thread_multibyte_data 100bb728     libucrt:mbctype.obj
 0002:00033748       __sehtable$??$?RV<lambda_978dc153c237d78434369da87b74ff60>@@AAV<lambda_ad1ced32f4ac17aa236e5ef05d6b3b7c>@@V<lambda_4a8533e2866a575feecb8298ce776b0d>@@@?$__crt_seh_guarded_call@X@@QAEX$$QAV<lambda_978dc153c237d78434369da87b74ff60>@@AAV<lambda_ad1ced32f4ac17aa236e5ef05d6b3b7c>@@$$QAV<lambda_4a8533e2866a575feecb8298ce776b0d>@@@Z 100bb748     libucrt:mbctype.obj
 0002:00033768       __sehtable$___acrt_update_thread_locale_data 100bb768     libucrt:locale_refcounting.obj
 0002:00033788       __sehtable$??$common_sopen_dispatch@D@@YAHQBDHHHQAHH@Z 100bb788     libucrt:open.obj
 0002:000337a8       __sehtable$??$common_sopen_dispatch@_W@@YAHQB_WHHHQAHH@Z 100bb7a8     libucrt:open.obj
 0002:000337c8       __sehtable$__IsNonwritableInCurrentImage 100bb7c8     LIBCMT:pesect.obj
 0002:00033bb0       .edata                     100bbbb0     DeviceQuery.exp
 0002:00033bd8       rgpv                       100bbbd8     DeviceQuery.exp
 0002:00033be0       rgszName                   100bbbe0     DeviceQuery.exp
 0002:00033be8       rgwOrd                     100bbbe8     DeviceQuery.exp
 0002:00033bec       szName                     100bbbec     DeviceQuery.exp
 0002:00033bfd       $N00001                    100bbbfd     DeviceQuery.exp
 0002:00033c11       $N00002                    100bbc11     DeviceQuery.exp
 0002:00033f10       .idata$6                   100bbf10     kernel32:KERNEL32.dll
 0002:00033f2a       .idata$6                   100bbf2a     user32:USER32.dll
 0002:00033f9a       .idata$6                   100bbf9a     ole32:ole32.dll
 0002:00033fa4       .idata$6                   100bbfa4     oleaut32:OLEAUT32.dll
 0002:00034630       .idata$6                   100bc630     advapi32:ADVAPI32.dll
 0003:00000000       _bn_limit_num              100bd000     libeay32:bn_lib.obj
 0003:00000004       _bn_limit_num_low          100bd004     libeay32:bn_lib.obj
 0003:00000008       _bn_limit_num_high         100bd008     libeay32:bn_lib.obj
 0003:0000000c       _bn_limit_num_mont         100bd00c     libeay32:bn_lib.obj
 0003:00000010       _allow_customize           100bd010     libeay32:mem.obj
 0003:00000014       _allow_customize_debug     100bd014     libeay32:mem.obj
 0003:00000018       _malloc_func               100bd018     libeay32:mem.obj
 0003:0000001c       _malloc_ex_func            100bd01c     libeay32:mem.obj
 0003:00000020       _realloc_func              100bd020     libeay32:mem.obj
 0003:00000024       _realloc_ex_func           100bd024     libeay32:mem.obj
 0003:00000028       _free_func                 100bd028     libeay32:mem.obj
 0003:0000002c       _malloc_locked_func        100bd02c     libeay32:mem.obj
 0003:00000030       _malloc_locked_ex_func     100bd030     libeay32:mem.obj
 0003:00000034       _free_locked_func          100bd034     libeay32:mem.obj
 0003:00000038       _memset_func               100bd038     libeay32:mem_clr.obj
 0003:00000040       ?init@?1??build_SYS_str_reasons@@9@9 100bd040     libeay32:err.obj
 0003:00000044       _int_err_library_number    100bd044     libeay32:err.obj
 0003:00000048       _ERR_str_libraries         100bd048     libeay32:err.obj
 0003:00000130       _ERR_str_functs            100bd130     libeay32:err.obj
 0003:00000198       _ERR_str_reasons           100bd198     libeay32:err.obj
 0003:000002c0       _methods_filep             100bd2c0     libeay32:bss_file.obj
 0003:000002e8       _impl_default              100bd2e8     libeay32:ex_data.obj
 0003:00000300       _ex_class                  100bd300     libeay32:ex_data.obj
 0003:00000304       _rsa_pkcs1_eay_meth        100bd304     libeay32:rsa_eay.obj
 0003:00000354       _new_nid                   100bd354     libeay32:obj_dat.obj
 0003:00000358       ?have_perfc@?1??readtimer@@9@9 100bd358     libeay32:rand_win.obj
 0003:0000035c       _int_no_description        100bd35c     libeay32:eng_ctrl.obj
 0003:00000360       _standard_methods          100bd360     libeay32:pmeth_lib.obj
 0003:0000037c       _standard_methods          100bd37c     libeay32:ameth_lib.obj
 0003:000003ac       _dh_ossl                   100bd3ac     libeay32:dh_key.obj
 0003:000003d0       ?ctr@?1??dh_sharedinfo_encode@@9@9 100bd3d0     libeay32:dh_kdf.obj
 0003:000003d8       _nist_curves               100bd3d8     libeay32:ec_curve.obj
 0003:00000450       _names_type_num            100bd450     libeay32:o_names.obj
 0003:00000454       ?h@?1??i2a_ASN1_INTEGER@@9@9 100bd454     libeay32:f_int.obj
 0003:00000458       _mon                       100bd458     libeay32:t_x509.obj
 0003:00000488       _HEX_DIGITS                100bd488     libeay32:ec_print.obj
 0003:0000048c       ?gen_compressed@?1??ECPKParameters_print@@9@9 100bd48c     libeay32:eck_prn.obj
 0003:00000490       ?gen_uncompressed@?1??ECPKParameters_print@@9@9 100bd490     libeay32:eck_prn.obj
 0003:00000494       ?gen_hybrid@?1??ECPKParameters_print@@9@9 100bd494     libeay32:eck_prn.obj
 0003:00000498       _ext_nid_list              100bd498     libeay32:x509_req.obj
 0003:000004a4       _ext_nids                  100bd4a4     libeay32:x509_req.obj
 0003:000004a8       _standard_exts             100bd4a8     libeay32:v3_lib.obj
 0003:00000550       _openssl_dsa_meth          100bd550     libeay32:dsa_ossl.obj
 0003:00000580       _bignum_pf                 100bd580     libeay32:x_bignum.obj
 0003:000005a0       _long_pf                   100bd5a0     libeay32:x_long.obj
 0003:000005c0       _openssl_ecdsa_meth        100bd5c0     libeay32:ecs_ossl.obj
 0003:000005d8       _int_crl_meth              100bd5d8     libeay32:x_crl.obj
 0003:000005ec       _default_crl_method        100bd5ec     libeay32:x_crl.obj
 0003:000005f0       _xstandard                 100bd5f0     libeay32:v3_purp.obj
 0003:000006ec       _global_mask               100bd6ec     libeay32:a_strnid.obj
 0003:000006f0       _ns_cert_type_table        100bd6f0     libeay32:v3_bitst.obj
 0003:00000760       _key_usage_type_table      100bd760     libeay32:v3_bitst.obj
 0003:000007d8       _crl_reasons               100bd7d8     libeay32:v3_enum.obj
 0003:0000085c       _nconf_method              100bd85c     libeay32:v3_conf.obj
 0003:0000086c       _conf_lhash_method         100bd86c     libeay32:v3_conf.obj
 0003:0000087c       _openssl_ecdh_meth         100bd87c     libeay32:ech_ossl.obj
 0003:000008a0       ?spaces@?1??asn1_print_fsname@@9@9 100bd8a0     libeay32:tasn_prn.obj
 0003:000008b8       _mem_method                100bd8b8     libeay32:bss_mem.obj
 0003:000008e0       _null_method               100bd8e0     libeay32:bss_null.obj
 0003:00000908       _methods_md                100bd908     libeay32:bio_md.obj
 0003:00000930       _methods_enc               100bd930     libeay32:bio_enc.obj
 0003:00000958       _default_trust             100bd958     libeay32:x509_trs.obj
 0003:00000960       _trstandard                100bd960     libeay32:x509_trs.obj
 0003:00000a20       _CONF_type_default         100bda20     libeay32:conf_def.obj
 0003:00000c20       _CONF_type_win32           100bdc20     libeay32:conf_def.obj
 0003:00000e20       _default_method            100bde20     libeay32:conf_def.obj
 0003:00000e48       _WIN32_method              100bde48     libeay32:conf_def.obj
 0003:00000e70       ?h@?1??i2a_ASN1_STRING@@9@9 100bde70     libeay32:f_string.obj
 0003:00000e74       _methods_asn1              100bde74     libeay32:bio_asn1.obj
 0003:00000e9c       _methods_buffer            100bde9c     libeay32:bf_buff.obj
 0003:00000ec4       _methods_b64               100bdec4     libeay32:bio_b64.obj
 0003:00000eec       _dso_meth_win32            100bdeec     libeay32:dso_win32.obj
 0003:00000f1c       _ui_openssl                100bdf1c     libeay32:ui_openssl.obj
 0003:00000f38       ?init@std@@3JA             100bdf38     libcpmt:xlock.obj
 0003:00000f40       ?atcount_cdecl@@3IA        100bdf40     libcpmt:iosptrs.obj
 0003:00000ff0       ?__vcrt_flsindex@@3KA      100bdff0     libvcruntime:per_thread_data.obj
 0003:000010c8       _errno_no_memory           100be0c8     libucrt:errno.obj
 0003:000010cc       _doserrno_no_memory        100be0cc     libucrt:errno.obj
 0003:000010d0       _chbuf                     100be0d0     libucrt:getch.obj
 0003:00001140       ___acrt_flsindex           100be140     libucrt:per_thread_data.obj
 0003:00001144       __ctype_loc_style          100be144     libucrt:wsetlocale.obj
 0003:00001348       _tzstd_program             100be348     libucrt:timeset.obj
 0003:00001388       _tzdst_program             100be388     libucrt:timeset.obj
 0003:000013c8       _tzname_states             100be3c8     libucrt:timeset.obj
 0003:000013e0       ___rgctypeflag             100be3e0     libucrt:mbctype.obj
 0003:000013e8       ___rgcode_page_info        100be3e8     libucrt:mbctype.obj
 0003:00001920       __module                   100be920     DeviceQuery.obj
 0003:00001df4       _bn_limit_bits             100bedf4     libeay32:bn_lib.obj
 0003:00001df8       _bn_limit_bits_low         100bedf8     libeay32:bn_lib.obj
 0003:00001dfc       _bn_limit_bits_high        100bedfc     libeay32:bn_lib.obj
 0003:00001e00       _bn_limit_bits_mont        100bee00     libeay32:bn_lib.obj
 0003:00001e04       ?init@?1??BN_options@@9@9  100bee04     libeay32:bn_print.obj
 0003:00001e08       ?data@?1??BN_options@@9@9  100bee08     libeay32:bn_print.obj
 0003:00001e18       _default_RSA_meth          100bee18     libeay32:rsa_lib.obj
 0003:00001e1c       _malloc_debug_func         100bee1c     libeay32:mem.obj
 0003:00001e20       _realloc_debug_func        100bee20     libeay32:mem.obj
 0003:00001e24       _free_debug_func           100bee24     libeay32:mem.obj
 0003:00001e28       _set_debug_options_func    100bee28     libeay32:mem.obj
 0003:00001e2c       _get_debug_options_func    100bee2c     libeay32:mem.obj
 0003:00001e30       _err_fns                   100bee30     libeay32:err.obj
 0003:00001e34       _int_error_hash            100bee34     libeay32:err.obj
 0003:00001e38       _int_thread_hash           100bee38     libeay32:err.obj
 0003:00001e3c       _int_thread_hash_references 100bee3c     libeay32:err.obj
 0003:00001e40       _SYS_str_reasons           100bee40     libeay32:err.obj
 0003:00002240       ?strerror_tab@?1??build_SYS_str_reasons@@9@9 100bf240     libeay32:err.obj
 0003:00003220       ?buf@?1??ERR_error_string@@9@9 100c0220     libeay32:err.obj
 0003:00003320       ?fallback@?1??ERR_get_state@@9@9 100c0320     libeay32:err.obj
 0003:000034b0       ?_OPENSSL_isservice@?1??OPENSSL_isservice@@9@9 100c04b0     libeay32:cryptlib.obj
 0003:000034b8       _SSLeay_MSVC5_hack         100c04b8     libeay32:cryptlib.obj
 0003:000034c0       _app_locks                 100c04c0     libeay32:cryptlib.obj
 0003:000034c4       _dyn_locks                 100c04c4     libeay32:cryptlib.obj
 0003:000034c8       _locking_callback          100c04c8     libeay32:cryptlib.obj
 0003:000034cc       _add_lock_callback         100c04cc     libeay32:cryptlib.obj
 0003:000034d0       _id_callback               100c04d0     libeay32:cryptlib.obj
 0003:000034d4       _threadid_callback         100c04d4     libeay32:cryptlib.obj
 0003:000034d8       _dynlock_create_callback   100c04d8     libeay32:cryptlib.obj
 0003:000034dc       _dynlock_lock_callback     100c04dc     libeay32:cryptlib.obj
 0003:000034e0       _dynlock_destroy_callback  100c04e0     libeay32:cryptlib.obj
 0003:000034e4       _funct_ref                 100c04e4     libeay32:rand_lib.obj
 0003:000034e8       _default_RAND_meth         100c04e8     libeay32:rand_lib.obj
 0003:000034ec       _impl                      100c04ec     libeay32:ex_data.obj
 0003:000034f0       _ex_data                   100c04f0     libeay32:ex_data.obj
 0003:000034f4       _rsa_table                 100c04f4     libeay32:tb_rsa.obj
 0003:000034f8       ?done@?1??OPENSSL_init@@9@9 100c04f8     libeay32:o_init.obj
 0003:000034fc       _mh_mode                   100c04fc     libeay32:mem_dbg.obj
 0003:00003500       _order                     100c0500     libeay32:mem_dbg.obj
 0003:00003504       _mh                        100c0504     libeay32:mem_dbg.obj
 0003:00003508       _amih                      100c0508     libeay32:mem_dbg.obj
 0003:0000350c       _options                   100c050c     libeay32:mem_dbg.obj
 0003:00003510       _num_disable               100c0510     libeay32:mem_dbg.obj
 0003:00003514       _break_order_num           100c0514     libeay32:mem_dbg.obj
 0003:00003518       _disabling_threadid        100c0518     libeay32:mem_dbg.obj
 0003:00003520       _state_num                 100c0520     libeay32:md_rand.obj
 0003:00003524       _state_index               100c0524     libeay32:md_rand.obj
 0003:00003528       _md_count                  100c0528     libeay32:md_rand.obj
 0003:00003530       _entropy                   100c0530     libeay32:md_rand.obj
 0003:00003538       _initialized               100c0538     libeay32:md_rand.obj
 0003:0000353c       _crypto_lock_rand          100c053c     libeay32:md_rand.obj
 0003:00003540       ?stirred_pool@?1??ssleay_rand_bytes@@9@9 100c0540     libeay32:md_rand.obj
 0003:00003544       _md                        100c0544     libeay32:md_rand.obj
 0003:00003558       _state                     100c0558     libeay32:md_rand.obj
 0003:0000396c       _locking_threadid          100c096c     libeay32:md_rand.obj
 0003:00003974       _rand_table                100c0974     libeay32:tb_rand.obj
 0003:00003978       _engine_list_head          100c0978     libeay32:eng_list.obj
 0003:0000397c       _engine_list_tail          100c097c     libeay32:eng_list.obj
 0003:00003980       _table_flags               100c0980     libeay32:eng_table.obj
 0003:00003984       _cleanup_stack             100c0984     libeay32:eng_lib.obj
 0003:00003988       _internal_static_hack      100c0988     libeay32:eng_lib.obj
 0003:0000398c       _added                     100c098c     libeay32:obj_dat.obj
 0003:00003994       ?key@?3??RAND_event@@9@9   100c0994     libeay32:rand_win.obj
 0003:00003998       ?lastx@?4??RAND_event@@9@9 100c0998     libeay32:rand_win.obj
 0003:0000399c       ?lasty@?4??RAND_event@@9@9 100c099c     libeay32:rand_win.obj
 0003:000039a0       ?lastdx@?4??RAND_event@@9@9 100c09a0     libeay32:rand_win.obj
 0003:000039a4       ?lastdy@?4??RAND_event@@9@9 100c09a4     libeay32:rand_win.obj
 0003:000039a8       _pkey_meth_table           100c09a8     libeay32:tb_pkmeth.obj
 0003:000039ac       _pkey_asn1_meth_table      100c09ac     libeay32:tb_asnmth.obj
 0003:000039b4       _digest_table              100c09b4     libeay32:tb_digest.obj
 0003:000039b8       ?m@?1??SHA224@@9@9         100c09b8     libeay32:sha256.obj
 0003:000039d4       ?m@?1??SHA256@@9@9         100c09d4     libeay32:sha256.obj
 0003:000039f8       ?m@?1??SHA384@@9@9         100c09f8     libeay32:sha512.obj
 0003:00003a28       ?m@?1??SHA512@@9@9         100c0a28     libeay32:sha512.obj
 0003:00003a68       _app_methods               100c0a68     libeay32:ameth_lib.obj
 0003:00003a6c       _default_DH_method         100c0a6c     libeay32:dh_lib.obj
 0003:00003a70       _default_DSA_method        100c0a70     libeay32:dsa_lib.obj
 0003:00003a74       _default_ECDSA_method      100c0a74     libeay32:ecs_lib.obj
 0003:00003a78       ?m@?1??HMAC@@9@9           100c0a78     libeay32:hmac.obj
 0003:00003ab8       ?zero_iv@?1??CMAC_Init@@9@9 100c0ab8     libeay32:cmac.obj
 0003:00003ad8       _names_lh                  100c0ad8     libeay32:o_names.obj
 0003:00003adc       _name_funcs_stack          100c0adc     libeay32:o_names.obj
 0003:00003ae0       _free_type                 100c0ae0     libeay32:o_names.obj
 0003:00003ae4       _pbe_algs                  100c0ae4     libeay32:evp_pbe.obj
 0003:00003ae8       _supported_modules         100c0ae8     libeay32:conf_mod.obj
 0003:00003aec       _initialized_modules       100c0aec     libeay32:conf_mod.obj
 0003:00003af0       _ext_list                  100c0af0     libeay32:v3_lib.obj
 0003:00003af4       _dh_table                  100c0af4     libeay32:tb_dh.obj
 0003:00003af8       _dsa_table                 100c0af8     libeay32:tb_dsa.obj
 0003:00003afc       _ecdsa_table               100c0afc     libeay32:tb_ecdsa.obj
 0003:00003b00       _default_ECDH_method       100c0b00     libeay32:ech_lib.obj
 0003:00003b04       _xptable                   100c0b04     libeay32:v3_purp.obj
 0003:00003b08       _cipher_table              100c0b08     libeay32:tb_cipher.obj
 0003:00003b0c       _default_CONF_method       100c0b0c     libeay32:conf_lib.obj
 0003:00003b10       _default_DSO_meth          100c0b10     libeay32:dso_lib.obj
 0003:00003b14       _stable                    100c0b14     libeay32:a_strnid.obj
 0003:00003b18       _ecdh_table                100c0b18     libeay32:tb_ecdh.obj
 0003:00003b1c       __empty_id                 100c0b1c     libeay32:x509_vpm.obj
 0003:00003b38       _param_table               100c0b38     libeay32:x509_vpm.obj
 0003:00003b3c       _trtable                   100c0b3c     libeay32:x509_trs.obj
 0003:00003b40       ?_hide_DES_check_key@?1??_shadow_DES_check_key@@9@9 100c0b40     libeay32:set_key.obj
 0003:00003b44       ?m@?1??SHA1@@9@9           100c0b44     libeay32:sha1_one.obj
 0003:00003b58       ?tntmp@?1??asn1_str2tag@@9@9 100c0b58     libeay32:asn1_gen.obj
 0003:00003b60       _prompt_string             100c0b60     libeay32:evp_key.obj
 0003:00003bb0       _default_UI_meth           100c0bb0     libeay32:ui_lib.obj
 0003:00003bb8       _savsig                    100c0bb8     libeay32:ui_openssl.obj
 0003:00003c38       _tty_in                    100c0c38     libeay32:ui_openssl.obj
 0003:00003c3c       _tty_out                   100c0c3c     libeay32:ui_openssl.obj
 0003:00003c40       _is_a_tty                  100c0c40     libeay32:ui_openssl.obj
 0003:00003c44       _intr_signal               100c0c44     libeay32:ui_openssl.obj
 0003:00003c48       ?ps@?1??read_string_inner@@9@9 100c0c48     libeay32:ui_openssl.obj
 0003:00003c50       ?initlocks@std@@3V_Init_locks@1@A 100c0c50     libcpmt:xlock.obj
 0003:00003c58       ?mtx@std@@3PAU_RTL_CRITICAL_SECTION@@A 100c0c58     libcpmt:xlock.obj
 0003:00003d18       ?initlocks@@3V_Init_locks@std@@A 100c0d18     libcpmt:cout.obj
 0003:00003d19       ?init_cout@std@@3U_Init_cout@1@A 100c0d19     libcpmt:cout.obj
 0003:00003d70       ?fout@std@@3V?$basic_filebuf@DU?$char_traits@D@std@@@1@A 100c0d70     libcpmt:cout.obj
 0003:00003de0       _global_locale             100c0de0     libcpmt:locale0.obj
 0003:00003de4       ?_Fac_head@std@@3PAU_Fac_node@1@A 100c0de4     libcpmt:locale0.obj
 0003:00003dfc       ?classic_locale@std@@3Vlocale@1@A 100c0dfc     libcpmt:locale0.obj
 0003:00003e04       ?_Fac_tidy_reg@std@@3U_Fac_tidy_reg_t@1@B 100c0e04     libcpmt:locale0.obj
 0003:00003e05       ?registered@?1??_Setgloballocale@locale@std@@CAXPAX@Z@4_NA 100c0e05     libcpmt:locale0.obj
 0003:00003e10       ?stdstr@std@@3PAPAVios_base@1@A 100c0e10     libcpmt:ios.obj
 0003:00003e38       ?stdopens@std@@3PADA       100c0e38     libcpmt:ios.obj
 0003:00003e64       ?atfuns_cdecl@@3PAP6AXXZA  100c0e64     libcpmt:iosptrs.obj
 0003:00003e8c       ?initlocks@std@@3V_Init_locks@1@A 100c0e8c     libcpmt:iosptrs.obj
 0003:00003e8d       ?init_atexit@@3U_Init_atexit@@A 100c0e8d     libcpmt:iosptrs.obj
 0003:00003fb8       ?_Tss_mutex@@3U_RTL_CRITICAL_SECTION@@A 100c0fb8     LIBCMT:thread_safe_statics.obj
 0003:00003fd0       ?_Tss_cv@@3U_RTL_CONDITION_VARIABLE@@A 100c0fd0     LIBCMT:thread_safe_statics.obj
 0003:00003fd4       ?_Tss_event@@3PAXA         100c0fd4     LIBCMT:thread_safe_statics.obj
 0003:00003fd8       ?encoded_sleep_condition_variable_cs@@3P6GHPAU_RTL_CONDITION_VARIABLE@@PAU_RTL_CRITICAL_SECTION@@K@ZA 100c0fd8     LIBCMT:thread_safe_statics.obj
 0003:00003fdc       ?encoded_wake_all_condition_variable@@3P6GXPAU_RTL_CONDITION_VARIABLE@@@ZA 100c0fdc     LIBCMT:thread_safe_statics.obj
 0003:00003fe8       ?module_local_atexit_table@@3U_onexit_table_t@@A 100c0fe8     LIBCMT:utility.obj
 0003:00003ff4       ?module_local_at_quick_exit_table@@3U_onexit_table_t@@A 100c0ff4     LIBCMT:utility.obj
 0003:00004000       ?is_initialized_as_dll@@3_NA 100c1000     LIBCMT:utility.obj
 0003:00004008       _GS_ExceptionRecord        100c1008     LIBCMT:gs_report.obj
 0003:00004058       _GS_ContextRecord          100c1058     LIBCMT:gs_report.obj
 0003:00004324       ?__proc_attached@@3HA      100c1324     LIBCMT:dll_dllmain.obj
 0003:00004344       ?module_handles@@3PAPAUHINSTANCE__@@A 100c1344     libvcruntime:winapi_downlevel.obj
 0003:00004354       ?encoded_function_pointers@@3PAPAXA 100c1354     libvcruntime:winapi_downlevel.obj
 0003:0000437c       ?__vcrt_startup_thread_ptd@@3U__vcrt_ptd@@A 100c137c     libvcruntime:per_thread_data.obj
 0003:000043a4       ___vcrt_lock_table         100c13a4     libvcruntime:locks.obj
 0003:000043bc       ___vcrt_locks_initialized  100c13bc     libvcruntime:locks.obj
 0003:000043e8       ?heap@@3V_HeapManager@@A   100c13e8     libvcruntime:undname.obj
 0003:000043fc       ___acrt_invalid_parameter_handler 100c13fc     libucrt:invalid_parameter.obj
 0003:0000440c       _c_termination_complete    100c140c     libucrt:exit.obj
 0003:00004410       _thread_local_exit_callback_func 100c1410     libucrt:exit.obj
 0003:00004414       ?c_exit_complete@?5??common_exit@@YAXHW4_crt_exit_cleanup_mode@@W4_crt_exit_return_mode@@@Z@4_NA 100c1414     libucrt:exit.obj
 0003:00004415       _console_ctrl_handler_installed 100c1415     libucrt:signal.obj
 0003:00004418       _ctrlc_action              100c1418     libucrt:signal.obj
 0003:0000441c       _ctrlbreak_action          100c141c     libucrt:signal.obj
 0003:00004420       _abort_action              100c1420     libucrt:signal.obj
 0003:00004424       _term_action               100c1424     libucrt:signal.obj
 0003:00004428       ___acrt_lock_table         100c1428     libucrt:locks.obj
 0003:00004560       ___acrt_locks_initialized  100c1560     libucrt:locks.obj
 0003:0000456c       ___acrt_new_handler        100c156c     libucrt:new_handler.obj
 0003:00004570       ?program_name@?5???$common_configure_argv@D@@YAHW4_crt_argv_mode@@@Z@4PADA 100c1570     libucrt:argv_parsing.obj
 0003:000046a0       _enable_percent_n          100c16a0     libucrt:printf_count_output.obj
 0003:000048c0       _module_handles            100c18c0     libucrt:winapi_thunks.obj
 0003:00004910       _encoded_function_pointers 100c1910     libucrt:winapi_thunks.obj
 0003:00004990       ?static_enum_proc@?1??enum_system_locales_ex_nolock@@YAHQ6GHPA_WKJ@Z@Z@4P6GH0KJ@ZA 100c1990     libucrt:winapi_thunks.obj
 0003:00004994       ?state_cache@?1??__acrt_is_packaged_app@@9@4JA 100c1994     libucrt:winapi_thunks.obj
 0003:000049a8       __tzname                   100c19a8     libucrt:timeset.obj
 0003:000049b0       _tz_api_used               100c19b0     libucrt:tzset.obj
 0003:000049b8       _tz_info                   100c19b8     libucrt:tzset.obj
 0003:00004a64       ___acrt_global_new_mode    100c1a64     libucrt:new_mode.obj
 0003:00004a88       _fSystemSet                100c1a88     libucrt:mbctype.obj
 0003:00004a8c       ?initialized@?1??__acrt_initialize_multibyte@@9@4_NA 100c1a8c     libucrt:mbctype.obj
 0003:00004aa8       _user_matherr              100c1aa8     libucrt:matherr.obj
 0003:00004ab0       ___acrt_app_type           100c1ab0     libucrt:report_runtime_error.obj
 0003:00004ab4       __pmatherr_set             100c1ab4     libucrt:libm_error.obj
 0003:00004b00       ?flipped@?1??flipAndCodeBytes@DiskInfo@@CAPADPAD@Z@4PADA 100c1b00     IOCTL_DeviceQuery.obj
 0003:00004ef0       ?string@?1??ConvertToString@DiskInfo@@CAPADQAGHH@Z@4PADA 100c1ef0     IOCTL_DeviceQuery.obj
 0004:00000000       __guard_fids__signal       100c3000     libucrt:signal.obj
 0004:00000004       __guard_fids____dcrt_uninitialize_environments_nolock 100c3004     libucrt:environment_initialization.obj
 0004:0000000c       __guard_fids__             100c300c     libucrt:initialization.obj
 0004:0000006c       __guard_fids____acrt_initialize_ptd 100c306c     libucrt:per_thread_data.obj
 0004:00000070       __guard_fids__             100c3070     libucrt:wsetlocale.obj
 0004:00000088       __guard_fids_??$?RV<lambda_9227be29367c048ad7fd93a717dcb1a1>@@AAV<lambda_a463b7b0560cfcaf9b17f27c6ef46564>@@V<lambda_ccea11b5727ccf69be64f5f5d9a08d9f>@@@?$__crt_seh_guarded_call@H@@QAEH$$QAV<lambda_9227be29367c048ad7fd93a717dcb1a1>@@AAV<lambda_a463b7b0560cfcaf9b17f27c6ef46564>@@$$QAV<lambda_ccea11b5727ccf69be64f5f5d9a08d9f>@@@Z 100c3088     libucrt:winapi_thunks.obj
 0004:0000008c       __guard_fids__             100c308c     libucrt:stdio_initializer.obj
 0004:00000090       __guard_fids__             100c3090     libucrt:stdio_initializer.obj
 0004:00000094       __guard_fids_??$expand_argument_wildcards@D@@YAHQAD0AAV?$argument_list@D@?A0xb0e4b824@@@Z 100c3094     libucrt:argv_wildcards.obj
 0004:00000098       __guard_fids__             100c3098     libucrt:locale_initializer.obj
 0004:0000009c       __guard_fids__GetLocaleNameFromLangCountry 100c309c     libucrt:get_qualified_locale.obj
 0004:000000a0       __guard_fids__GetLocaleNameFromLanguage 100c30a0     libucrt:get_qualified_locale.obj
 0004:000000a4       __guard_fids__GetLcidFromLangCountry 100c30a4     libucrt:getqloc_downlevel.obj
 0004:000000a8       __guard_fids__GetLcidFromLanguage 100c30a8     libucrt:getqloc_downlevel.obj
 0004:000000ac       __guard_fids__GetLcidFromCountry 100c30ac     libucrt:getqloc_downlevel.obj
 0004:000000b0       __guard_fids__             100c30b0     libucrt:timeset_initializer.obj
 0004:000000b4       __guard_fids__             100c30b4     libucrt:console_input_initializer.obj
 0004:000000b8       __guard_fids__             100c30b8     libucrt:sse2_initializer.obj
 0004:000000bc       __guard_fids____libm_error_support 100c30bc     libucrt:libm_error.obj
 0004:000000c0       __guard_fids__             100c30c0     libucrt:multibyte_initializer.obj
 0004:000000c4       __guard_fids__             100c30c4     libucrt:console_output_initializer.obj
 0004:000000c8       __guard_fids_??__Einitlocks@std@@YAXXZ 100c30c8     libcpmt:xlock.obj
 0004:000000cc       __guard_fids__             100c30cc     libcpmt:xlock.obj
 0004:000000d0       __guard_fids_??__Einitlocks@@YAXXZ 100c30d0     libcpmt:cout.obj
 0004:000000d4       __guard_fids_??__Efout@std@@YAXXZ 100c30d4     libcpmt:cout.obj
 0004:000000d8       __guard_fids_??__Ecout@std@@YAXXZ 100c30d8     libcpmt:cout.obj
 0004:000000dc       __guard_fids__             100c30dc     libcpmt:cout.obj
 0004:000000e4       __guard_fids__             100c30e4     libcpmt:cout.obj
 0004:000000ec       __guard_fids__             100c30ec     libcpmt:cout.obj
 0004:000000f4       __guard_fids__             100c30f4     libcpmt:cout.obj
 0004:000000f8       __guard_fids__             100c30f8     libcpmt:cout.obj
 0004:00000104       __guard_fids__             100c3104     libcpmt:cout.obj
 0004:00000130       __guard_fids__             100c3130     libcpmt:cout.obj
 0004:00000148       __guard_fids__             100c3148     libcpmt:cout.obj
 0004:00000150       __guard_fids__             100c3150     libcpmt:cout.obj
 0004:00000158       __guard_fids__             100c3158     libcpmt:cout.obj
 0004:00000170       __guard_fids__             100c3170     libcpmt:cout.obj
 0004:00000178       __guard_fids__             100c3178     libcpmt:cout.obj
 0004:0000017c       __guard_fids__             100c317c     libcpmt:cout.obj
 0004:000001b8       __guard_fids__             100c31b8     libcpmt:cout.obj
 0004:000001f4       __guard_fids__             100c31f4     libcpmt:cout.obj
 0004:000001f8       __guard_fids__             100c31f8     libcpmt:cout.obj
 0004:000001fc       __guard_fids__             100c31fc     libcpmt:cout.obj
 0004:00000224       __guard_fids__             100c3224     libcpmt:cout.obj
 0004:00000228       __guard_fids__             100c3228     libcpmt:cout.obj
 0004:0000022c       __guard_fids__             100c322c     libcpmt:cout.obj
 0004:00000230       __guard_fids__             100c3230     libcpmt:cout.obj
 0004:00000234       __guard_fids__             100c3234     libcpmt:cout.obj
 0004:00000238       __guard_fids__             100c3238     libcpmt:cout.obj
 0004:0000023c       __guard_fids_??__E_Fac_tidy_reg@std@@YAXXZ 100c323c     libcpmt:locale0.obj
 0004:00000240       __guard_fids_?_Setgloballocale@locale@std@@CAXPAX@Z 100c3240     libcpmt:locale0.obj
 0004:00000244       __guard_fids_??__Eclassic_locale@std@@YAXXZ 100c3244     libcpmt:locale0.obj
 0004:00000248       __guard_fids__             100c3248     libcpmt:locale0.obj
 0004:00000254       __guard_fids__             100c3254     libcpmt:locale0.obj
 0004:00000258       __guard_fids__             100c3258     libcpmt:locale0.obj
 0004:0000025c       __guard_fids__             100c325c     libcpmt:xthrow.obj
 0004:00000264       __guard_fids__             100c3264     libcpmt:xthrow.obj
 0004:0000026c       __guard_fids__             100c326c     libcpmt:xthrow.obj
 0004:00000274       __guard_fids__             100c3274     libcpmt:xthrow.obj
 0004:0000027c       __guard_fids__             100c327c     libcpmt:xthrow.obj
 0004:00000280       __guard_fids__             100c3280     libcpmt:xthrow.obj
 0004:00000284       __guard_fids__             100c3284     libcpmt:xthrow.obj
 0004:00000288       __guard_fids__             100c3288     libcpmt:xthrow.obj
 0004:0000028c       __guard_fids__             100c328c     libcpmt:xthrow.obj
 0004:00000290       __guard_fids__             100c3290     libcpmt:xthrow.obj
 0004:00000294       __guard_fids__             100c3294     libcpmt:xthrow.obj
 0004:00000298       __guard_fids_??__Einitlocks@std@@YAXXZ 100c3298     libcpmt:iosptrs.obj
 0004:0000029c       __guard_fids_??__Einit_atexit@@YAXXZ 100c329c     libcpmt:iosptrs.obj
 0004:000002a0       __guard_fids__             100c32a0     libcpmt:iosptrs.obj
 0004:000002a4       __guard_fids__             100c32a4     libcpmt:iosptrs.obj
 0004:000002a8       __guard_fids__             100c32a8     libcpmt:winapisupp.obj
 0004:000002ac       __guard_fids__             100c32ac     LIBCMT:thread_safe_statics.obj
 0004:000002b0       __guard_fids_?__scrt_initialize_thread_safe_statics@@YAHXZ 100c32b0     LIBCMT:thread_safe_statics.obj
 0004:000002b4       __guard_fids_?dllmain_crt_process_attach@@YAHQAUHINSTANCE__@@QAX@Z 100c32b4     LIBCMT:dll_dllmain.obj
 0004:000002bc       __guard_fids_?dllmain_dispatch@@YAHQAUHINSTANCE__@@KQAX@Z 100c32bc     LIBCMT:dll_dllmain.obj
 0004:000002c0       __guard_fids__             100c32c0     LIBCMT:std_type_info_static.obj
 0004:000002c4       __guard_fids__             100c32c4     LIBCMT:throw_bad_alloc.obj
 0004:000002cc       __guard_fids__             100c32cc     LIBCMT:throw_bad_alloc.obj
 0004:000002d0       __guard_fids__             100c32d0     LIBCMT:throw_bad_alloc.obj
 0004:000002d4       __guard_fids__             100c32d4     LIBCMT:guard_support.obj
 0004:000002d8       __guard_fids__             100c32d8     comsuppw:comsupp.obj
 0004:000002dc       __guard_fids_??__EvtMissing@@YAXXZ 100c32dc     comsuppw:comutil.obj
 0004:000002e0       __guard_fids__             100c32e0     comsuppw:comutil.obj
 0004:000002e4       __guard_fids__             100c32e4     comsuppw:comraise.obj
 0004:000002e8       __guard_fids__             100c32e8     comsuppw:comraise.obj
 0004:000002ec       __guard_fids__             100c32ec     comsuppw:comraise.obj
 0004:000002f0       __guard_fids__             100c32f0     libvcruntime:frame.obj
 0004:000002f4       __guard_fids__             100c32f4     libvcruntime:frame.obj
 0004:000002fc       __guard_fids__             100c32fc     libvcruntime:frame.obj
 0004:00000300       __guard_fids__             100c3300     libvcruntime:frame.obj
 0004:00000304       __guard_fids____vcrt_initialize_ptd 100c3304     libvcruntime:per_thread_data.obj
 0006:00000060       $R000000                   100c5060     * linker generated manifest res *

 Exports

  ordinal    name

        1    _WMI_DeviceQuery@12
        2    __register_DeviceQuery_
               exported name: _register_DeviceQuery_
